
APPGS3MDM32A01.elf:     file format elf32-littlearm

Sections:
Idx Name          Size      VMA       LMA       File off  Algn
  0 .initdata     0000002c  102c7040  102c7040  00007040  2**2
                  CONTENTS, ALLOC, LOAD, READONLY, DATA
  1 text          000076dc  102c706c  102c706c  0000706c  2**2
                  CONTENTS, ALLOC, LOAD, READONLY, CODE
  2 .text.Ql_GPRS_GetPDPCntxtState 00000060  102ce748  102ce748  0000e748  2**2
                  CONTENTS, ALLOC, LOAD, READONLY, CODE
  3 .text.Ql_GPRS_GetPDPContextId 00000060  102ce7a8  102ce7a8  0000e7a8  2**2
                  CONTENTS, ALLOC, LOAD, READONLY, CODE
  4 .text.Ql_MEM_Alloc 00000078  102ce808  102ce808  0000e808  2**2
                  CONTENTS, ALLOC, LOAD, READONLY, CODE
  5 .text.Ql_MEM_Free 00000074  102ce880  102ce880  0000e880  2**2
                  CONTENTS, ALLOC, LOAD, READONLY, CODE
  6 .text.ql_InitVFunc 000000d8  102ce8f4  102ce8f4  0000e8f4  2**2
                  CONTENTS, ALLOC, LOAD, READONLY, CODE
  7 .text.ocpu_main 000000f0  102ce9cc  102ce9cc  0000e9cc  2**2
                  CONTENTS, ALLOC, LOAD, READONLY, CODE
  8 .text.proc_reserved2 00000070  102ceabc  102ceabc  0000eabc  2**2
                  CONTENTS, ALLOC, LOAD, READONLY, CODE
  9 .text.ril_StopATTimer 00000034  102ceb2c  102ceb2c  0000eb2c  2**2
                  CONTENTS, ALLOC, LOAD, READONLY, CODE
 10 .text.Callback_OnATTimer 0000004c  102ceb60  102ceb60  0000eb60  2**2
                  CONTENTS, ALLOC, LOAD, READONLY, CODE
 11 .text.CallBack_SerialPort_Hdlr 00000384  102cebac  102cebac  0000ebac  2**2
                  CONTENTS, ALLOC, LOAD, READONLY, CODE
 12 .text.proc_reserved1 00000200  102cef30  102cef30  0000ef30  2**2
                  CONTENTS, ALLOC, LOAD, READONLY, CODE
 13 .text.Ql_RIL_Initialize 000000d4  102cf130  102cf130  0000f130  2**2
                  CONTENTS, ALLOC, LOAD, READONLY, CODE
 14 .text.Ql_RIL_SendATCmd 00000260  102cf204  102cf204  0000f204  2**2
                  CONTENTS, ALLOC, LOAD, READONLY, CODE
 15 .text.Ql_RIL_WriteDataToCore 00000024  102cf464  102cf464  0000f464  2**2
                  CONTENTS, ALLOC, LOAD, READONLY, CODE
 16 .text.Ql_atof 00000098  102cf488  102cf488  0000f488  2**2
                  CONTENTS, ALLOC, LOAD, READONLY, CODE
 17 .text.Ql_strcpy 000000a0  102cf520  102cf520  0000f520  2**2
                  CONTENTS, ALLOC, LOAD, READONLY, CODE
 18 .text.Ql_strncpy 00000088  102cf5c0  102cf5c0  0000f5c0  2**2
                  CONTENTS, ALLOC, LOAD, READONLY, CODE
 19 .text.Ql_strlen 00000078  102cf648  102cf648  0000f648  2**2
                  CONTENTS, ALLOC, LOAD, READONLY, CODE
 20 .text.Ql_strcmp 00000068  102cf6c0  102cf6c0  0000f6c0  2**2
                  CONTENTS, ALLOC, LOAD, READONLY, CODE
 21 .text.Ql_strncmp 00000070  102cf728  102cf728  0000f728  2**2
                  CONTENTS, ALLOC, LOAD, READONLY, CODE
 22 .text.Ql_memset 00000088  102cf798  102cf798  0000f798  2**2
                  CONTENTS, ALLOC, LOAD, READONLY, CODE
 23 .text.Ql_memcpy 00000088  102cf820  102cf820  0000f820  2**2
                  CONTENTS, ALLOC, LOAD, READONLY, CODE
 24 .text.Ql_strstr 00000080  102cf8a8  102cf8a8  0000f8a8  2**2
                  CONTENTS, ALLOC, LOAD, READONLY, CODE
 25 .text.Ql_toupper 00000008  102cf928  102cf928  0000f928  2**2
                  CONTENTS, ALLOC, LOAD, READONLY, CODE
 26 .text.Ql_atoi 00000084  102cf930  102cf930  0000f930  2**2
                  CONTENTS, ALLOC, LOAD, READONLY, CODE
 27 .text.Ql_Sleep 00000074  102cf9b4  102cf9b4  0000f9b4  2**2
                  CONTENTS, ALLOC, LOAD, READONLY, CODE
 28 .text.Ql_GetMsSincePwrOn 00000084  102cfa28  102cfa28  0000fa28  2**2
                  CONTENTS, ALLOC, LOAD, READONLY, CODE
 29 .text.Ql_GetSDKVer 00000064  102cfaac  102cfaac  0000faac  2**2
                  CONTENTS, ALLOC, LOAD, READONLY, CODE
 30 .text.Ql_OS_GetMessage 00000060  102cfb10  102cfb10  0000fb10  2**2
                  CONTENTS, ALLOC, LOAD, READONLY, CODE
 31 .text.Ql_OS_SendMessage 00000078  102cfb70  102cfb70  0000fb70  2**2
                  CONTENTS, ALLOC, LOAD, READONLY, CODE
 32 .text.Ql_OS_CreateMutex 00000054  102cfbe8  102cfbe8  0000fbe8  2**2
                  CONTENTS, ALLOC, LOAD, READONLY, CODE
 33 .text.Ql_OS_TakeMutex 00000054  102cfc3c  102cfc3c  0000fc3c  2**2
                  CONTENTS, ALLOC, LOAD, READONLY, CODE
 34 .text.Ql_OS_GiveMutex 00000054  102cfc90  102cfc90  0000fc90  2**2
                  CONTENTS, ALLOC, LOAD, READONLY, CODE
 35 .text.Ql_OS_CreateEvent 00000054  102cfce4  102cfce4  0000fce4  2**2
                  CONTENTS, ALLOC, LOAD, READONLY, CODE
 36 .text.Ql_OS_WaitEvent 00000068  102cfd38  102cfd38  0000fd38  2**2
                  CONTENTS, ALLOC, LOAD, READONLY, CODE
 37 .text.Ql_OS_SetEvent 00000068  102cfda0  102cfda0  0000fda0  2**2
                  CONTENTS, ALLOC, LOAD, READONLY, CODE
 38 .text.Ql_Timer_Register 00000070  102cfe08  102cfe08  0000fe08  2**2
                  CONTENTS, ALLOC, LOAD, READONLY, CODE
 39 .text.Ql_Timer_Start 00000070  102cfe78  102cfe78  0000fe78  2**2
                  CONTENTS, ALLOC, LOAD, READONLY, CODE
 40 .text.Ql_Timer_Stop 00000060  102cfee8  102cfee8  0000fee8  2**2
                  CONTENTS, ALLOC, LOAD, READONLY, CODE
 41 .text.Ql_UART_Register 00000070  102cff48  102cff48  0000ff48  2**2
                  CONTENTS, ALLOC, LOAD, READONLY, CODE
 42 .text.Ql_UART_Open 00000070  102cffb8  102cffb8  0000ffb8  2**2
                  CONTENTS, ALLOC, LOAD, READONLY, CODE
 43 .text.Ql_UART_Write 00000070  102d0028  102d0028  00010028  2**2
                  CONTENTS, ALLOC, LOAD, READONLY, CODE
 44 .text.Ql_UART_Read 00000070  102d0098  102d0098  00010098  2**2
                  CONTENTS, ALLOC, LOAD, READONLY, CODE
 45 .text.Ql_UART_GetPinStatus 00000068  102d0108  102d0108  00010108  2**2
                  CONTENTS, ALLOC, LOAD, READONLY, CODE
 46 .text.Ql_UART_SendEscap 00000060  102d0170  102d0170  00010170  2**2
                  CONTENTS, ALLOC, LOAD, READONLY, CODE
 47 .rodata       00000e0c  102d01d0  102d01d0  000101d0  2**2
                  CONTENTS, ALLOC, LOAD, READONLY, DATA
 48 .rodata.str1.4 00001214  102d0fdc  102d0fdc  00010fdc  2**2
                  CONTENTS, ALLOC, LOAD, READONLY, DATA
 49 .rodata.str1.1 000004c3  102d21f0  102d21f0  000121f0  2**0
                  CONTENTS, ALLOC, LOAD, READONLY, DATA
 50 .data         00000050  f03d2000  102d26b8  0001a000  2**3
                  CONTENTS, ALLOC, LOAD, DATA
 51 .bss          00003abc  f03d2050  102d2708  0001a050  2**3
                  ALLOC
 52 .comment      00000030  00000000  00000000  0001a050  2**0
                  CONTENTS, READONLY
 53 .ARM.attributes 0000002b  00000000  00000000  0001a080  2**0
                  CONTENTS, READONLY
 54 .debug_frame  00000064  00000000  00000000  0001a0ac  2**2
                  CONTENTS, READONLY, DEBUGGING

Disassembly of section text:

102c706c <Ql_RIL_AT_GetErrCode>:
102c706c:	e59f3004 	ldr	r3, [pc, #4]	; 102c7078 <Ql_RIL_AT_GetErrCode+0xc>
102c7070:	e5930000 	ldr	r0, [r3]
102c7074:	e12fff1e 	bx	lr
102c7078:	f03d2050 	.word	0xf03d2050

102c707c <Ql_RIL_AT_SetErrCode>:
102c707c:	e59f2008 	ldr	r2, [pc, #8]	; 102c708c <Ql_RIL_AT_SetErrCode+0x10>
102c7080:	e5820000 	str	r0, [r2]
102c7084:	e1a00003 	mov	r0, r3
102c7088:	e12fff1e 	bx	lr
102c708c:	f03d2050 	.word	0xf03d2050

102c7090 <Default_atRsp_callback>:
102c7090:	e92d4070 	push	{r4, r5, r6, lr}
102c7094:	e59f20a8 	ldr	r2, [pc, #168]	; 102c7144 <Default_atRsp_callback+0xb4>
102c7098:	e59f40a8 	ldr	r4, [pc, #168]	; 102c7148 <Default_atRsp_callback+0xb8>
102c709c:	e1a05000 	mov	r5, r0
102c70a0:	e1a06001 	mov	r6, r1
102c70a4:	e12fff34 	blx	r4
102c70a8:	e3500000 	cmp	r0, #0
102c70ac:	0a000003 	beq	102c70c0 <Default_atRsp_callback+0x30>
102c70b0:	e59f3094 	ldr	r3, [pc, #148]	; 102c714c <Default_atRsp_callback+0xbc>
102c70b4:	e3a00000 	mov	r0, #0
102c70b8:	e5830000 	str	r0, [r3]
102c70bc:	e8bd8070 	pop	{r4, r5, r6, pc}
102c70c0:	e1a00005 	mov	r0, r5
102c70c4:	e1a01006 	mov	r1, r6
102c70c8:	e59f2080 	ldr	r2, [pc, #128]	; 102c7150 <Default_atRsp_callback+0xc0>
102c70cc:	e12fff34 	blx	r4
102c70d0:	e3500000 	cmp	r0, #0
102c70d4:	1a000016 	bne	102c7134 <Default_atRsp_callback+0xa4>
102c70d8:	e1a00005 	mov	r0, r5
102c70dc:	e1a01006 	mov	r1, r6
102c70e0:	e59f206c 	ldr	r2, [pc, #108]	; 102c7154 <Default_atRsp_callback+0xc4>
102c70e4:	e59f406c 	ldr	r4, [pc, #108]	; 102c7158 <Default_atRsp_callback+0xc8>
102c70e8:	e12fff34 	blx	r4
102c70ec:	e3500000 	cmp	r0, #0
102c70f0:	1a000007 	bne	102c7114 <Default_atRsp_callback+0x84>
102c70f4:	e1a00005 	mov	r0, r5
102c70f8:	e1a01006 	mov	r1, r6
102c70fc:	e59f2058 	ldr	r2, [pc, #88]	; 102c715c <Default_atRsp_callback+0xcc>
102c7100:	e12fff34 	blx	r4
102c7104:	e3500000 	cmp	r0, #0
102c7108:	1a000001 	bne	102c7114 <Default_atRsp_callback+0x84>
102c710c:	e3a00001 	mov	r0, #1
102c7110:	e8bd8070 	pop	{r4, r5, r6, pc}
102c7114:	e59f3044 	ldr	r3, [pc, #68]	; 102c7160 <Default_atRsp_callback+0xd0>
102c7118:	e1a00005 	mov	r0, r5
102c711c:	e5933000 	ldr	r3, [r3]
102c7120:	e59f103c 	ldr	r1, [pc, #60]	; 102c7164 <Default_atRsp_callback+0xd4>
102c7124:	e59f2020 	ldr	r2, [pc, #32]	; 102c714c <Default_atRsp_callback+0xbc>
102c7128:	e12fff33 	blx	r3
102c712c:	e3e00000 	mvn	r0, #0
102c7130:	e8bd8070 	pop	{r4, r5, r6, pc}
102c7134:	e59f3010 	ldr	r3, [pc, #16]	; 102c714c <Default_atRsp_callback+0xbc>
102c7138:	e3e00000 	mvn	r0, #0
102c713c:	e5830000 	str	r0, [r3]
102c7140:	e8bd8070 	pop	{r4, r5, r6, pc}
102c7144:	102d17a8 	.word	0x102d17a8
102c7148:	102ccd38 	.word	0x102ccd38
102c714c:	f03d2050 	.word	0xf03d2050
102c7150:	102d0fdc 	.word	0x102d0fdc
102c7154:	102d0fe4 	.word	0x102d0fe4
102c7158:	102cccac 	.word	0x102cccac
102c715c:	102d1000 	.word	0x102d1000
102c7160:	f03d5b08 	.word	0xf03d5b08
102c7164:	102d0ff0 	.word	0x102d0ff0

102c7168 <AtRsp_QBTCONND_Hdlr>:
102c7168:	e92d4008 	push	{r3, lr}
102c716c:	e59f2010 	ldr	r2, [pc, #16]	; 102c7184 <AtRsp_QBTCONND_Hdlr+0x1c>
102c7170:	e59f3010 	ldr	r3, [pc, #16]	; 102c7188 <AtRsp_QBTCONND_Hdlr+0x20>
102c7174:	e12fff33 	blx	r3
102c7178:	e2700001 	rsbs	r0, r0, #1
102c717c:	33a00000 	movcc	r0, #0
102c7180:	e8bd8008 	pop	{r3, pc}
102c7184:	102d17a8 	.word	0x102d17a8
102c7188:	102ccd38 	.word	0x102ccd38

102c718c <BT_DevMngmt_Clean>:
102c718c:	e92d40f8 	push	{r3, r4, r5, r6, r7, lr}
102c7190:	e59f4028 	ldr	r4, [pc, #40]	; 102c71c0 <BT_DevMngmt_Clean+0x34>
102c7194:	e59f7028 	ldr	r7, [pc, #40]	; 102c71c4 <BT_DevMngmt_Clean+0x38>
102c7198:	e2845078 	add	r5, r4, #120	; 0x78
102c719c:	e3a06000 	mov	r6, #0
102c71a0:	e4940004 	ldr	r0, [r4], #4
102c71a4:	e3500000 	cmp	r0, #0
102c71a8:	0a000001 	beq	102c71b4 <BT_DevMngmt_Clean+0x28>
102c71ac:	e12fff37 	blx	r7
102c71b0:	e5046004 	str	r6, [r4, #-4]
102c71b4:	e1540005 	cmp	r4, r5
102c71b8:	1afffff8 	bne	102c71a0 <BT_DevMngmt_Clean+0x14>
102c71bc:	e8bd80f8 	pop	{r3, r4, r5, r6, r7, pc}
102c71c0:	f03d2058 	.word	0xf03d2058
102c71c4:	102ce880 	.word	0x102ce880

102c71c8 <ATRsp_QBTSTATE_Hdlr>:
102c71c8:	e92d4ff0 	push	{r4, r5, r6, r7, r8, r9, sl, fp, lr}
102c71cc:	e1a06002 	mov	r6, r2
102c71d0:	e24dd03c 	sub	sp, sp, #60	; 0x3c
102c71d4:	e59f54c8 	ldr	r5, [pc, #1224]	; 102c76a4 <ATRsp_QBTSTATE_Hdlr+0x4dc>
102c71d8:	e59f24c8 	ldr	r2, [pc, #1224]	; 102c76a8 <ATRsp_QBTSTATE_Hdlr+0x4e0>
102c71dc:	e1a09000 	mov	r9, r0
102c71e0:	e1a07001 	mov	r7, r1
102c71e4:	e12fff35 	blx	r5
102c71e8:	e3e04000 	mvn	r4, #0
102c71ec:	e3a03000 	mov	r3, #0
102c71f0:	e58d3010 	str	r3, [sp, #16]
102c71f4:	e58d3014 	str	r3, [sp, #20]
102c71f8:	e58d3018 	str	r3, [sp, #24]
102c71fc:	e58d301c 	str	r3, [sp, #28]
102c7200:	e58d3020 	str	r3, [sp, #32]
102c7204:	e58d3024 	str	r3, [sp, #36]	; 0x24
102c7208:	e58d3028 	str	r3, [sp, #40]	; 0x28
102c720c:	e58d302c 	str	r3, [sp, #44]	; 0x2c
102c7210:	e58d3030 	str	r3, [sp, #48]	; 0x30
102c7214:	e58d3034 	str	r3, [sp, #52]	; 0x34
102c7218:	e58d400c 	str	r4, [sp, #12]
102c721c:	e2508000 	subs	r8, r0, #0
102c7220:	0a0000e3 	beq	102c75b4 <ATRsp_QBTSTATE_Hdlr+0x3ec>
102c7224:	e59f5480 	ldr	r5, [pc, #1152]	; 102c76ac <ATRsp_QBTSTATE_Hdlr+0x4e4>
102c7228:	e5d53000 	ldrb	r3, [r5]
102c722c:	e3530000 	cmp	r3, #0
102c7230:	0a000010 	beq	102c7278 <ATRsp_QBTSTATE_Hdlr+0xb0>
102c7234:	e3560000 	cmp	r6, #0
102c7238:	0a000005 	beq	102c7254 <ATRsp_QBTSTATE_Hdlr+0x8c>
102c723c:	e59f346c 	ldr	r3, [pc, #1132]	; 102c76b0 <ATRsp_QBTSTATE_Hdlr+0x4e8>
102c7240:	e59f146c 	ldr	r1, [pc, #1132]	; 102c76b4 <ATRsp_QBTSTATE_Hdlr+0x4ec>
102c7244:	e5933000 	ldr	r3, [r3]
102c7248:	e1a02006 	mov	r2, r6
102c724c:	e12fff33 	blx	r3
102c7250:	e59d400c 	ldr	r4, [sp, #12]
102c7254:	e3a03000 	mov	r3, #0
102c7258:	e3540000 	cmp	r4, #0
102c725c:	e5c53000 	strb	r3, [r5]
102c7260:	0a00000c 	beq	102c7298 <ATRsp_QBTSTATE_Hdlr+0xd0>
102c7264:	e3540001 	cmp	r4, #1
102c7268:	0a00004d 	beq	102c73a4 <ATRsp_QBTSTATE_Hdlr+0x1dc>
102c726c:	e3a00001 	mov	r0, #1
102c7270:	e28dd03c 	add	sp, sp, #60	; 0x3c
102c7274:	e8bd8ff0 	pop	{r4, r5, r6, r7, r8, r9, sl, fp, pc}
102c7278:	e59f3430 	ldr	r3, [pc, #1072]	; 102c76b0 <ATRsp_QBTSTATE_Hdlr+0x4e8>
102c727c:	e59f1434 	ldr	r1, [pc, #1076]	; 102c76b8 <ATRsp_QBTSTATE_Hdlr+0x4f0>
102c7280:	e5933000 	ldr	r3, [r3]
102c7284:	e28d200c 	add	r2, sp, #12
102c7288:	e12fff33 	blx	r3
102c728c:	e59d400c 	ldr	r4, [sp, #12]
102c7290:	e3540000 	cmp	r4, #0
102c7294:	1afffff2 	bne	102c7264 <ATRsp_QBTSTATE_Hdlr+0x9c>
102c7298:	e59f341c 	ldr	r3, [pc, #1052]	; 102c76bc <ATRsp_QBTSTATE_Hdlr+0x4f4>
102c729c:	e3a00060 	mov	r0, #96	; 0x60
102c72a0:	e12fff33 	blx	r3
102c72a4:	e59f7404 	ldr	r7, [pc, #1028]	; 102c76b0 <ATRsp_QBTSTATE_Hdlr+0x4e8>
102c72a8:	e1a01004 	mov	r1, r4
102c72ac:	e3a02060 	mov	r2, #96	; 0x60
102c72b0:	e59f8408 	ldr	r8, [pc, #1032]	; 102c76c0 <ATRsp_QBTSTATE_Hdlr+0x4f8>
102c72b4:	e1a06000 	mov	r6, r0
102c72b8:	e12fff38 	blx	r8
102c72bc:	e3e03000 	mvn	r3, #0
102c72c0:	e59f13fc 	ldr	r1, [pc, #1020]	; 102c76c4 <ATRsp_QBTSTATE_Hdlr+0x4fc>
102c72c4:	e2862050 	add	r2, r6, #80	; 0x50
102c72c8:	e5863050 	str	r3, [r6, #80]	; 0x50
102c72cc:	e5863054 	str	r3, [r6, #84]	; 0x54
102c72d0:	e5863058 	str	r3, [r6, #88]	; 0x58
102c72d4:	e1a00009 	mov	r0, r9
102c72d8:	e5973000 	ldr	r3, [r7]
102c72dc:	e286a004 	add	sl, r6, #4
102c72e0:	e12fff33 	blx	r3
102c72e4:	e286503c 	add	r5, r6, #60	; 0x3c
102c72e8:	e59f13d8 	ldr	r1, [pc, #984]	; 102c76c8 <ATRsp_QBTSTATE_Hdlr+0x500>
102c72ec:	e1a0200a 	mov	r2, sl
102c72f0:	e5973000 	ldr	r3, [r7]
102c72f4:	e1a00009 	mov	r0, r9
102c72f8:	e12fff33 	blx	r3
102c72fc:	e1a02005 	mov	r2, r5
102c7300:	e59f13c4 	ldr	r1, [pc, #964]	; 102c76cc <ATRsp_QBTSTATE_Hdlr+0x504>
102c7304:	e5973000 	ldr	r3, [r7]
102c7308:	e1a00009 	mov	r0, r9
102c730c:	e12fff33 	blx	r3
102c7310:	e1a00005 	mov	r0, r5
102c7314:	e59f33b4 	ldr	r3, [pc, #948]	; 102c76d0 <ATRsp_QBTSTATE_Hdlr+0x508>
102c7318:	e12fff33 	blx	r3
102c731c:	e59f33b0 	ldr	r3, [pc, #944]	; 102c76d4 <ATRsp_QBTSTATE_Hdlr+0x50c>
102c7320:	e1a01000 	mov	r1, r0
102c7324:	e1a00005 	mov	r0, r5
102c7328:	e12fff33 	blx	r3
102c732c:	e59f33a4 	ldr	r3, [pc, #932]	; 102c76d8 <ATRsp_QBTSTATE_Hdlr+0x510>
102c7330:	e5969050 	ldr	r9, [r6, #80]	; 0x50
102c7334:	e1a05003 	mov	r5, r3
102c7338:	e5860000 	str	r0, [r6]
102c733c:	ea000002 	b	102c734c <ATRsp_QBTSTATE_Hdlr+0x184>
102c7340:	e2844001 	add	r4, r4, #1
102c7344:	e354001e 	cmp	r4, #30
102c7348:	0a000078 	beq	102c7530 <ATRsp_QBTSTATE_Hdlr+0x368>
102c734c:	e5b5c004 	ldr	ip, [r5, #4]!
102c7350:	e35c0000 	cmp	ip, #0
102c7354:	0afffff9 	beq	102c7340 <ATRsp_QBTSTATE_Hdlr+0x178>
102c7358:	e59c7000 	ldr	r7, [ip]
102c735c:	e1500007 	cmp	r0, r7
102c7360:	1afffff6 	bne	102c7340 <ATRsp_QBTSTATE_Hdlr+0x178>
102c7364:	e3a02038 	mov	r2, #56	; 0x38
102c7368:	e58c9050 	str	r9, [ip, #80]	; 0x50
102c736c:	e28c0004 	add	r0, ip, #4
102c7370:	e3a01000 	mov	r1, #0
102c7374:	e12fff38 	blx	r8
102c7378:	e59f335c 	ldr	r3, [pc, #860]	; 102c76dc <ATRsp_QBTSTATE_Hdlr+0x514>
102c737c:	e1a0100a 	mov	r1, sl
102c7380:	e7930104 	ldr	r0, [r3, r4, lsl #2]
102c7384:	e59f3354 	ldr	r3, [pc, #852]	; 102c76e0 <ATRsp_QBTSTATE_Hdlr+0x518>
102c7388:	e2800004 	add	r0, r0, #4
102c738c:	e12fff33 	blx	r3
102c7390:	e1a00006 	mov	r0, r6
102c7394:	e59f3348 	ldr	r3, [pc, #840]	; 102c76e4 <ATRsp_QBTSTATE_Hdlr+0x51c>
102c7398:	e12fff33 	blx	r3
102c739c:	e3a00001 	mov	r0, #1
102c73a0:	eaffffb2 	b	102c7270 <ATRsp_QBTSTATE_Hdlr+0xa8>
102c73a4:	e59f3310 	ldr	r3, [pc, #784]	; 102c76bc <ATRsp_QBTSTATE_Hdlr+0x4f4>
102c73a8:	e3a00060 	mov	r0, #96	; 0x60
102c73ac:	e12fff33 	blx	r3
102c73b0:	e59f42f8 	ldr	r4, [pc, #760]	; 102c76b0 <ATRsp_QBTSTATE_Hdlr+0x4e8>
102c73b4:	e3a01000 	mov	r1, #0
102c73b8:	e3a02060 	mov	r2, #96	; 0x60
102c73bc:	e59f82fc 	ldr	r8, [pc, #764]	; 102c76c0 <ATRsp_QBTSTATE_Hdlr+0x4f8>
102c73c0:	e59fb320 	ldr	fp, [pc, #800]	; 102c76e8 <ATRsp_QBTSTATE_Hdlr+0x520>
102c73c4:	e59f6304 	ldr	r6, [pc, #772]	; 102c76d0 <ATRsp_QBTSTATE_Hdlr+0x508>
102c73c8:	e59fa31c 	ldr	sl, [pc, #796]	; 102c76ec <ATRsp_QBTSTATE_Hdlr+0x524>
102c73cc:	e1a05000 	mov	r5, r0
102c73d0:	e12fff38 	blx	r8
102c73d4:	e3e03000 	mvn	r3, #0
102c73d8:	e285c004 	add	ip, r5, #4
102c73dc:	e59f12e0 	ldr	r1, [pc, #736]	; 102c76c4 <ATRsp_QBTSTATE_Hdlr+0x4fc>
102c73e0:	e2852054 	add	r2, r5, #84	; 0x54
102c73e4:	e5853050 	str	r3, [r5, #80]	; 0x50
102c73e8:	e5853054 	str	r3, [r5, #84]	; 0x54
102c73ec:	e5853058 	str	r3, [r5, #88]	; 0x58
102c73f0:	e1a00009 	mov	r0, r9
102c73f4:	e5943000 	ldr	r3, [r4]
102c73f8:	e58dc004 	str	ip, [sp, #4]
102c73fc:	e12fff33 	blx	r3
102c7400:	e285303c 	add	r3, r5, #60	; 0x3c
102c7404:	e58d3000 	str	r3, [sp]
102c7408:	e59f12b8 	ldr	r1, [pc, #696]	; 102c76c8 <ATRsp_QBTSTATE_Hdlr+0x500>
102c740c:	e5943000 	ldr	r3, [r4]
102c7410:	e59d2004 	ldr	r2, [sp, #4]
102c7414:	e1a00009 	mov	r0, r9
102c7418:	e12fff33 	blx	r3
102c741c:	e5943000 	ldr	r3, [r4]
102c7420:	e59f12c8 	ldr	r1, [pc, #712]	; 102c76f0 <ATRsp_QBTSTATE_Hdlr+0x528>
102c7424:	e59d2000 	ldr	r2, [sp]
102c7428:	e1a00009 	mov	r0, r9
102c742c:	e12fff33 	blx	r3
102c7430:	e5943000 	ldr	r3, [r4]
102c7434:	e1a00009 	mov	r0, r9
102c7438:	e59f12b4 	ldr	r1, [pc, #692]	; 102c76f4 <ATRsp_QBTSTATE_Hdlr+0x52c>
102c743c:	e28d2010 	add	r2, sp, #16
102c7440:	e3a04000 	mov	r4, #0
102c7444:	e12fff33 	blx	r3
102c7448:	e59f92a8 	ldr	r9, [pc, #680]	; 102c76f8 <ATRsp_QBTSTATE_Hdlr+0x530>
102c744c:	e1a07004 	mov	r7, r4
102c7450:	ea000004 	b	102c7468 <ATRsp_QBTSTATE_Hdlr+0x2a0>
102c7454:	e1a04823 	lsr	r4, r3, #16
102c7458:	e799b104 	ldr	fp, [r9, r4, lsl #2]
102c745c:	e1a07004 	mov	r7, r4
102c7460:	e35b0000 	cmp	fp, #0
102c7464:	0a00005e 	beq	102c75e4 <ATRsp_QBTSTATE_Hdlr+0x41c>
102c7468:	e28d0010 	add	r0, sp, #16
102c746c:	e12fff36 	blx	r6
102c7470:	e1a0100b 	mov	r1, fp
102c7474:	e1a02000 	mov	r2, r0
102c7478:	e28d0010 	add	r0, sp, #16
102c747c:	e12fff3a 	blx	sl
102c7480:	e2873001 	add	r3, r7, #1
102c7484:	e1a03803 	lsl	r3, r3, #16
102c7488:	e3500000 	cmp	r0, #0
102c748c:	1afffff0 	bne	102c7454 <ATRsp_QBTSTATE_Hdlr+0x28c>
102c7490:	e5854058 	str	r4, [r5, #88]	; 0x58
102c7494:	e59d0000 	ldr	r0, [sp]
102c7498:	e12fff36 	blx	r6
102c749c:	e59f3230 	ldr	r3, [pc, #560]	; 102c76d4 <ATRsp_QBTSTATE_Hdlr+0x50c>
102c74a0:	e3a04000 	mov	r4, #0
102c74a4:	e1a01000 	mov	r1, r0
102c74a8:	e59d0000 	ldr	r0, [sp]
102c74ac:	e12fff33 	blx	r3
102c74b0:	e59f3220 	ldr	r3, [pc, #544]	; 102c76d8 <ATRsp_QBTSTATE_Hdlr+0x510>
102c74b4:	e595a054 	ldr	sl, [r5, #84]	; 0x54
102c74b8:	e5956058 	ldr	r6, [r5, #88]	; 0x58
102c74bc:	e1a02003 	mov	r2, r3
102c74c0:	e5850000 	str	r0, [r5]
102c74c4:	ea000002 	b	102c74d4 <ATRsp_QBTSTATE_Hdlr+0x30c>
102c74c8:	e2844001 	add	r4, r4, #1
102c74cc:	e354001e 	cmp	r4, #30
102c74d0:	0a000045 	beq	102c75ec <ATRsp_QBTSTATE_Hdlr+0x424>
102c74d4:	e5b2c004 	ldr	ip, [r2, #4]!
102c74d8:	e35c0000 	cmp	ip, #0
102c74dc:	0afffff9 	beq	102c74c8 <ATRsp_QBTSTATE_Hdlr+0x300>
102c74e0:	e59c1000 	ldr	r1, [ip]
102c74e4:	e1500001 	cmp	r0, r1
102c74e8:	1afffff6 	bne	102c74c8 <ATRsp_QBTSTATE_Hdlr+0x300>
102c74ec:	e3a02038 	mov	r2, #56	; 0x38
102c74f0:	e58ca054 	str	sl, [ip, #84]	; 0x54
102c74f4:	e58c6058 	str	r6, [ip, #88]	; 0x58
102c74f8:	e28c0004 	add	r0, ip, #4
102c74fc:	e3a01000 	mov	r1, #0
102c7500:	e12fff38 	blx	r8
102c7504:	e59f31d0 	ldr	r3, [pc, #464]	; 102c76dc <ATRsp_QBTSTATE_Hdlr+0x514>
102c7508:	e59d1004 	ldr	r1, [sp, #4]
102c750c:	e7930104 	ldr	r0, [r3, r4, lsl #2]
102c7510:	e59f31c8 	ldr	r3, [pc, #456]	; 102c76e0 <ATRsp_QBTSTATE_Hdlr+0x518>
102c7514:	e2800004 	add	r0, r0, #4
102c7518:	e12fff33 	blx	r3
102c751c:	e1a00005 	mov	r0, r5
102c7520:	e59f31bc 	ldr	r3, [pc, #444]	; 102c76e4 <ATRsp_QBTSTATE_Hdlr+0x51c>
102c7524:	e12fff33 	blx	r3
102c7528:	e3a00001 	mov	r0, #1
102c752c:	eaffff4f 	b	102c7270 <ATRsp_QBTSTATE_Hdlr+0xa8>
102c7530:	e59f41a4 	ldr	r4, [pc, #420]	; 102c76dc <ATRsp_QBTSTATE_Hdlr+0x514>
102c7534:	e3a0c000 	mov	ip, #0
102c7538:	e1a05004 	mov	r5, r4
102c753c:	e2840074 	add	r0, r4, #116	; 0x74
102c7540:	e5b32004 	ldr	r2, [r3, #4]!
102c7544:	e28c1001 	add	r1, ip, #1
102c7548:	e3520000 	cmp	r2, #0
102c754c:	e1a01801 	lsl	r1, r1, #16
102c7550:	11a0c821 	lsrne	ip, r1, #16
102c7554:	e1530000 	cmp	r3, r0
102c7558:	1afffff8 	bne	102c7540 <ATRsp_QBTSTATE_Hdlr+0x378>
102c755c:	e35c001d 	cmp	ip, #29
102c7560:	9a000004 	bls	102c7578 <ATRsp_QBTSTATE_Hdlr+0x3b0>
102c7564:	e1a00006 	mov	r0, r6
102c7568:	e59f3174 	ldr	r3, [pc, #372]	; 102c76e4 <ATRsp_QBTSTATE_Hdlr+0x51c>
102c756c:	e12fff33 	blx	r3
102c7570:	e3a00001 	mov	r0, #1
102c7574:	eaffff3d 	b	102c7270 <ATRsp_QBTSTATE_Hdlr+0xa8>
102c7578:	e5941000 	ldr	r1, [r4]
102c757c:	e3510000 	cmp	r1, #0
102c7580:	0a000008 	beq	102c75a8 <ATRsp_QBTSTATE_Hdlr+0x3e0>
102c7584:	e3a03001 	mov	r3, #1
102c7588:	ea000001 	b	102c7594 <ATRsp_QBTSTATE_Hdlr+0x3cc>
102c758c:	e353001e 	cmp	r3, #30
102c7590:	0affff35 	beq	102c726c <ATRsp_QBTSTATE_Hdlr+0xa4>
102c7594:	e5b52004 	ldr	r2, [r5, #4]!
102c7598:	e1a01003 	mov	r1, r3
102c759c:	e3520000 	cmp	r2, #0
102c75a0:	e2833001 	add	r3, r3, #1
102c75a4:	1afffff8 	bne	102c758c <ATRsp_QBTSTATE_Hdlr+0x3c4>
102c75a8:	e7846101 	str	r6, [r4, r1, lsl #2]
102c75ac:	e3a00001 	mov	r0, #1
102c75b0:	eaffff2e 	b	102c7270 <ATRsp_QBTSTATE_Hdlr+0xa8>
102c75b4:	e1a00009 	mov	r0, r9
102c75b8:	e1a01007 	mov	r1, r7
102c75bc:	e59f2138 	ldr	r2, [pc, #312]	; 102c76fc <ATRsp_QBTSTATE_Hdlr+0x534>
102c75c0:	e59f4138 	ldr	r4, [pc, #312]	; 102c7700 <ATRsp_QBTSTATE_Hdlr+0x538>
102c75c4:	e12fff34 	blx	r4
102c75c8:	e3500000 	cmp	r0, #0
102c75cc:	0a000026 	beq	102c766c <ATRsp_QBTSTATE_Hdlr+0x4a4>
102c75d0:	e59f30d4 	ldr	r3, [pc, #212]	; 102c76ac <ATRsp_QBTSTATE_Hdlr+0x4e4>
102c75d4:	e3a02001 	mov	r2, #1
102c75d8:	e5c32000 	strb	r2, [r3]
102c75dc:	e1a00008 	mov	r0, r8
102c75e0:	eaffff22 	b	102c7270 <ATRsp_QBTSTATE_Hdlr+0xa8>
102c75e4:	e3e04000 	mvn	r4, #0
102c75e8:	eaffffa8 	b	102c7490 <ATRsp_QBTSTATE_Hdlr+0x2c8>
102c75ec:	e59f40e8 	ldr	r4, [pc, #232]	; 102c76dc <ATRsp_QBTSTATE_Hdlr+0x514>
102c75f0:	e3a0c000 	mov	ip, #0
102c75f4:	e1a06004 	mov	r6, r4
102c75f8:	e2840074 	add	r0, r4, #116	; 0x74
102c75fc:	e5b32004 	ldr	r2, [r3, #4]!
102c7600:	e28c1001 	add	r1, ip, #1
102c7604:	e3520000 	cmp	r2, #0
102c7608:	e1a01801 	lsl	r1, r1, #16
102c760c:	11a0c821 	lsrne	ip, r1, #16
102c7610:	e1530000 	cmp	r3, r0
102c7614:	1afffff8 	bne	102c75fc <ATRsp_QBTSTATE_Hdlr+0x434>
102c7618:	e35c001d 	cmp	ip, #29
102c761c:	9a000003 	bls	102c7630 <ATRsp_QBTSTATE_Hdlr+0x468>
102c7620:	e1a00005 	mov	r0, r5
102c7624:	e59f30b8 	ldr	r3, [pc, #184]	; 102c76e4 <ATRsp_QBTSTATE_Hdlr+0x51c>
102c7628:	e12fff33 	blx	r3
102c762c:	eaffff0e 	b	102c726c <ATRsp_QBTSTATE_Hdlr+0xa4>
102c7630:	e5941000 	ldr	r1, [r4]
102c7634:	e3510000 	cmp	r1, #0
102c7638:	0a000008 	beq	102c7660 <ATRsp_QBTSTATE_Hdlr+0x498>
102c763c:	e3a03001 	mov	r3, #1
102c7640:	ea000001 	b	102c764c <ATRsp_QBTSTATE_Hdlr+0x484>
102c7644:	e353001e 	cmp	r3, #30
102c7648:	0affff07 	beq	102c726c <ATRsp_QBTSTATE_Hdlr+0xa4>
102c764c:	e5b62004 	ldr	r2, [r6, #4]!
102c7650:	e1a01003 	mov	r1, r3
102c7654:	e3520000 	cmp	r2, #0
102c7658:	e2833001 	add	r3, r3, #1
102c765c:	1afffff8 	bne	102c7644 <ATRsp_QBTSTATE_Hdlr+0x47c>
102c7660:	e7845101 	str	r5, [r4, r1, lsl #2]
102c7664:	e3a00001 	mov	r0, #1
102c7668:	eaffff00 	b	102c7270 <ATRsp_QBTSTATE_Hdlr+0xa8>
102c766c:	e1a00009 	mov	r0, r9
102c7670:	e1a01007 	mov	r1, r7
102c7674:	e59f2088 	ldr	r2, [pc, #136]	; 102c7704 <ATRsp_QBTSTATE_Hdlr+0x53c>
102c7678:	e12fff34 	blx	r4
102c767c:	e3500000 	cmp	r0, #0
102c7680:	1a000005 	bne	102c769c <ATRsp_QBTSTATE_Hdlr+0x4d4>
102c7684:	e1a00009 	mov	r0, r9
102c7688:	e1a01007 	mov	r1, r7
102c768c:	e59f2074 	ldr	r2, [pc, #116]	; 102c7708 <ATRsp_QBTSTATE_Hdlr+0x540>
102c7690:	e12fff35 	blx	r5
102c7694:	e3500000 	cmp	r0, #0
102c7698:	0afffef3 	beq	102c726c <ATRsp_QBTSTATE_Hdlr+0xa4>
102c769c:	e3e00000 	mvn	r0, #0
102c76a0:	eafffef2 	b	102c7270 <ATRsp_QBTSTATE_Hdlr+0xa8>
102c76a4:	102cccac 	.word	0x102cccac
102c76a8:	102d1010 	.word	0x102d1010
102c76ac:	f03d2000 	.word	0xf03d2000
102c76b0:	f03d5b08 	.word	0xf03d5b08
102c76b4:	102d0ff0 	.word	0x102d0ff0
102c76b8:	102d101c 	.word	0x102d101c
102c76bc:	102ce808 	.word	0x102ce808
102c76c0:	102cf798 	.word	0x102cf798
102c76c4:	102d1030 	.word	0x102d1030
102c76c8:	102d1044 	.word	0x102d1044
102c76cc:	102d105c 	.word	0x102d105c
102c76d0:	102cf648 	.word	0x102cf648
102c76d4:	102ccfb8 	.word	0x102ccfb8
102c76d8:	f03d2054 	.word	0xf03d2054
102c76dc:	f03d2058 	.word	0xf03d2058
102c76e0:	102cf520 	.word	0x102cf520
102c76e4:	102ce880 	.word	0x102ce880
102c76e8:	102d100c 	.word	0x102d100c
102c76ec:	102cf728 	.word	0x102cf728
102c76f0:	102d1074 	.word	0x102d1074
102c76f4:	102d1094 	.word	0x102d1094
102c76f8:	102d01d0 	.word	0x102d01d0
102c76fc:	102d17a8 	.word	0x102d17a8
102c7700:	102ccd38 	.word	0x102ccd38
102c7704:	102d0fdc 	.word	0x102d0fdc
102c7708:	102d0fe4 	.word	0x102d0fe4

102c770c <ATRsp_QBTSPPREAD_Hdlr>:
102c770c:	e92d41f0 	push	{r4, r5, r6, r7, r8, lr}
102c7710:	e59f40e4 	ldr	r4, [pc, #228]	; 102c77fc <ATRsp_QBTSPPREAD_Hdlr+0xf0>
102c7714:	e1a05000 	mov	r5, r0
102c7718:	e5d43078 	ldrb	r3, [r4, #120]	; 0x78
102c771c:	e1a07001 	mov	r7, r1
102c7720:	e3530000 	cmp	r3, #0
102c7724:	e1a06002 	mov	r6, r2
102c7728:	0a00000b 	beq	102c775c <ATRsp_QBTSPPREAD_Hdlr+0x50>
102c772c:	e59f30cc 	ldr	r3, [pc, #204]	; 102c7800 <ATRsp_QBTSPPREAD_Hdlr+0xf4>
102c7730:	e594007c 	ldr	r0, [r4, #124]	; 0x7c
102c7734:	e1a01005 	mov	r1, r5
102c7738:	e5942080 	ldr	r2, [r4, #128]	; 0x80
102c773c:	e12fff33 	blx	r3
102c7740:	e3560000 	cmp	r6, #0
102c7744:	15943080 	ldrne	r3, [r4, #128]	; 0x80
102c7748:	e3a00001 	mov	r0, #1
102c774c:	15863000 	strne	r3, [r6]
102c7750:	e3a03000 	mov	r3, #0
102c7754:	e5c43078 	strb	r3, [r4, #120]	; 0x78
102c7758:	e8bd81f0 	pop	{r4, r5, r6, r7, r8, pc}
102c775c:	e59f20a0 	ldr	r2, [pc, #160]	; 102c7804 <ATRsp_QBTSPPREAD_Hdlr+0xf8>
102c7760:	e59f60a0 	ldr	r6, [pc, #160]	; 102c7808 <ATRsp_QBTSPPREAD_Hdlr+0xfc>
102c7764:	e12fff36 	blx	r6
102c7768:	e2508000 	subs	r8, r0, #0
102c776c:	e1a00005 	mov	r0, r5
102c7770:	0a00000b 	beq	102c77a4 <ATRsp_QBTSPPREAD_Hdlr+0x98>
102c7774:	e59f3090 	ldr	r3, [pc, #144]	; 102c780c <ATRsp_QBTSPPREAD_Hdlr+0x100>
102c7778:	e59f1090 	ldr	r1, [pc, #144]	; 102c7810 <ATRsp_QBTSPPREAD_Hdlr+0x104>
102c777c:	e5933000 	ldr	r3, [r3]
102c7780:	e2842080 	add	r2, r4, #128	; 0x80
102c7784:	e12fff33 	blx	r3
102c7788:	e5943080 	ldr	r3, [r4, #128]	; 0x80
102c778c:	e3530000 	cmp	r3, #0
102c7790:	13a00001 	movne	r0, #1
102c7794:	05c43078 	strbeq	r3, [r4, #120]	; 0x78
102c7798:	03a00001 	moveq	r0, #1
102c779c:	15c40078 	strbne	r0, [r4, #120]	; 0x78
102c77a0:	e8bd81f0 	pop	{r4, r5, r6, r7, r8, pc}
102c77a4:	e1a01007 	mov	r1, r7
102c77a8:	e59f2064 	ldr	r2, [pc, #100]	; 102c7814 <ATRsp_QBTSPPREAD_Hdlr+0x108>
102c77ac:	e59f4064 	ldr	r4, [pc, #100]	; 102c7818 <ATRsp_QBTSPPREAD_Hdlr+0x10c>
102c77b0:	e12fff34 	blx	r4
102c77b4:	e3500000 	cmp	r0, #0
102c77b8:	0a000001 	beq	102c77c4 <ATRsp_QBTSPPREAD_Hdlr+0xb8>
102c77bc:	e1a00008 	mov	r0, r8
102c77c0:	e8bd81f0 	pop	{r4, r5, r6, r7, r8, pc}
102c77c4:	e1a00005 	mov	r0, r5
102c77c8:	e1a01007 	mov	r1, r7
102c77cc:	e59f2048 	ldr	r2, [pc, #72]	; 102c781c <ATRsp_QBTSPPREAD_Hdlr+0x110>
102c77d0:	e12fff34 	blx	r4
102c77d4:	e3500000 	cmp	r0, #0
102c77d8:	0a000001 	beq	102c77e4 <ATRsp_QBTSPPREAD_Hdlr+0xd8>
102c77dc:	e3e00000 	mvn	r0, #0
102c77e0:	e8bd81f0 	pop	{r4, r5, r6, r7, r8, pc}
102c77e4:	e1a00005 	mov	r0, r5
102c77e8:	e1a01007 	mov	r1, r7
102c77ec:	e59f202c 	ldr	r2, [pc, #44]	; 102c7820 <ATRsp_QBTSPPREAD_Hdlr+0x114>
102c77f0:	e12fff36 	blx	r6
102c77f4:	e3e00000 	mvn	r0, #0
102c77f8:	e8bd81f0 	pop	{r4, r5, r6, r7, r8, pc}
102c77fc:	f03d2058 	.word	0xf03d2058
102c7800:	102cf820 	.word	0x102cf820
102c7804:	102d10b8 	.word	0x102d10b8
102c7808:	102cccac 	.word	0x102cccac
102c780c:	f03d5b08 	.word	0xf03d5b08
102c7810:	102d10c8 	.word	0x102d10c8
102c7814:	102d17a8 	.word	0x102d17a8
102c7818:	102ccd38 	.word	0x102ccd38
102c781c:	102d0fdc 	.word	0x102d0fdc
102c7820:	102d0fe4 	.word	0x102d0fe4

102c7824 <ATRsp_QBTGPROF_Hdlr>:
102c7824:	e92d41f0 	push	{r4, r5, r6, r7, r8, lr}
102c7828:	e1a06002 	mov	r6, r2
102c782c:	e59f50a8 	ldr	r5, [pc, #168]	; 102c78dc <ATRsp_QBTGPROF_Hdlr+0xb8>
102c7830:	e59f20a8 	ldr	r2, [pc, #168]	; 102c78e0 <ATRsp_QBTGPROF_Hdlr+0xbc>
102c7834:	e1a04000 	mov	r4, r0
102c7838:	e1a08001 	mov	r8, r1
102c783c:	e12fff35 	blx	r5
102c7840:	e2507000 	subs	r7, r0, #0
102c7844:	0a000009 	beq	102c7870 <ATRsp_QBTGPROF_Hdlr+0x4c>
102c7848:	e59f3094 	ldr	r3, [pc, #148]	; 102c78e4 <ATRsp_QBTGPROF_Hdlr+0xc0>
102c784c:	e1a00004 	mov	r0, r4
102c7850:	e5d32084 	ldrb	r2, [r3, #132]	; 0x84
102c7854:	e59f308c 	ldr	r3, [pc, #140]	; 102c78e8 <ATRsp_QBTGPROF_Hdlr+0xc4>
102c7858:	e59f108c 	ldr	r1, [pc, #140]	; 102c78ec <ATRsp_QBTGPROF_Hdlr+0xc8>
102c785c:	e5933000 	ldr	r3, [r3]
102c7860:	e0862102 	add	r2, r6, r2, lsl #2
102c7864:	e12fff33 	blx	r3
102c7868:	e3a00001 	mov	r0, #1
102c786c:	e8bd81f0 	pop	{r4, r5, r6, r7, r8, pc}
102c7870:	e1a00004 	mov	r0, r4
102c7874:	e1a01008 	mov	r1, r8
102c7878:	e59f2070 	ldr	r2, [pc, #112]	; 102c78f0 <ATRsp_QBTGPROF_Hdlr+0xcc>
102c787c:	e59f6070 	ldr	r6, [pc, #112]	; 102c78f4 <ATRsp_QBTGPROF_Hdlr+0xd0>
102c7880:	e12fff36 	blx	r6
102c7884:	e3500000 	cmp	r0, #0
102c7888:	0a000003 	beq	102c789c <ATRsp_QBTGPROF_Hdlr+0x78>
102c788c:	e59f3050 	ldr	r3, [pc, #80]	; 102c78e4 <ATRsp_QBTGPROF_Hdlr+0xc0>
102c7890:	e1a00007 	mov	r0, r7
102c7894:	e5c37084 	strb	r7, [r3, #132]	; 0x84
102c7898:	e8bd81f0 	pop	{r4, r5, r6, r7, r8, pc}
102c789c:	e1a00004 	mov	r0, r4
102c78a0:	e1a01008 	mov	r1, r8
102c78a4:	e59f204c 	ldr	r2, [pc, #76]	; 102c78f8 <ATRsp_QBTGPROF_Hdlr+0xd4>
102c78a8:	e12fff36 	blx	r6
102c78ac:	e3500000 	cmp	r0, #0
102c78b0:	1a000007 	bne	102c78d4 <ATRsp_QBTGPROF_Hdlr+0xb0>
102c78b4:	e1a00004 	mov	r0, r4
102c78b8:	e1a01008 	mov	r1, r8
102c78bc:	e59f2038 	ldr	r2, [pc, #56]	; 102c78fc <ATRsp_QBTGPROF_Hdlr+0xd8>
102c78c0:	e12fff35 	blx	r5
102c78c4:	e3500000 	cmp	r0, #0
102c78c8:	03a00001 	moveq	r0, #1
102c78cc:	13e00000 	mvnne	r0, #0
102c78d0:	e8bd81f0 	pop	{r4, r5, r6, r7, r8, pc}
102c78d4:	e3e00000 	mvn	r0, #0
102c78d8:	e8bd81f0 	pop	{r4, r5, r6, r7, r8, pc}
102c78dc:	102cccac 	.word	0x102cccac
102c78e0:	102d10d4 	.word	0x102d10d4
102c78e4:	f03d2058 	.word	0xf03d2058
102c78e8:	f03d5b08 	.word	0xf03d5b08
102c78ec:	102d10e4 	.word	0x102d10e4
102c78f0:	102d17a8 	.word	0x102d17a8
102c78f4:	102ccd38 	.word	0x102ccd38
102c78f8:	102d0fdc 	.word	0x102d0fdc
102c78fc:	102d0fe4 	.word	0x102d0fe4

102c7900 <ATRsp_QBTVISB_Hdlr>:
102c7900:	e92d41f0 	push	{r4, r5, r6, r7, r8, lr}
102c7904:	e1a06002 	mov	r6, r2
102c7908:	e59f508c 	ldr	r5, [pc, #140]	; 102c799c <ATRsp_QBTVISB_Hdlr+0x9c>
102c790c:	e59f208c 	ldr	r2, [pc, #140]	; 102c79a0 <ATRsp_QBTVISB_Hdlr+0xa0>
102c7910:	e1a04000 	mov	r4, r0
102c7914:	e1a07001 	mov	r7, r1
102c7918:	e12fff35 	blx	r5
102c791c:	e2508000 	subs	r8, r0, #0
102c7920:	e1a00004 	mov	r0, r4
102c7924:	0a000006 	beq	102c7944 <ATRsp_QBTVISB_Hdlr+0x44>
102c7928:	e59f3074 	ldr	r3, [pc, #116]	; 102c79a4 <ATRsp_QBTVISB_Hdlr+0xa4>
102c792c:	e59f1074 	ldr	r1, [pc, #116]	; 102c79a8 <ATRsp_QBTVISB_Hdlr+0xa8>
102c7930:	e5933000 	ldr	r3, [r3]
102c7934:	e1a02006 	mov	r2, r6
102c7938:	e12fff33 	blx	r3
102c793c:	e3a00001 	mov	r0, #1
102c7940:	e8bd81f0 	pop	{r4, r5, r6, r7, r8, pc}
102c7944:	e1a01007 	mov	r1, r7
102c7948:	e59f205c 	ldr	r2, [pc, #92]	; 102c79ac <ATRsp_QBTVISB_Hdlr+0xac>
102c794c:	e59f605c 	ldr	r6, [pc, #92]	; 102c79b0 <ATRsp_QBTVISB_Hdlr+0xb0>
102c7950:	e12fff36 	blx	r6
102c7954:	e3500000 	cmp	r0, #0
102c7958:	0a000001 	beq	102c7964 <ATRsp_QBTVISB_Hdlr+0x64>
102c795c:	e1a00008 	mov	r0, r8
102c7960:	e8bd81f0 	pop	{r4, r5, r6, r7, r8, pc}
102c7964:	e1a00004 	mov	r0, r4
102c7968:	e1a01007 	mov	r1, r7
102c796c:	e59f2040 	ldr	r2, [pc, #64]	; 102c79b4 <ATRsp_QBTVISB_Hdlr+0xb4>
102c7970:	e12fff36 	blx	r6
102c7974:	e3500000 	cmp	r0, #0
102c7978:	0a000001 	beq	102c7984 <ATRsp_QBTVISB_Hdlr+0x84>
102c797c:	e3e00000 	mvn	r0, #0
102c7980:	e8bd81f0 	pop	{r4, r5, r6, r7, r8, pc}
102c7984:	e1a00004 	mov	r0, r4
102c7988:	e1a01007 	mov	r1, r7
102c798c:	e59f2024 	ldr	r2, [pc, #36]	; 102c79b8 <ATRsp_QBTVISB_Hdlr+0xb8>
102c7990:	e12fff35 	blx	r5
102c7994:	e3e00000 	mvn	r0, #0
102c7998:	e8bd81f0 	pop	{r4, r5, r6, r7, r8, pc}
102c799c:	102cccac 	.word	0x102cccac
102c79a0:	102d10f8 	.word	0x102d10f8
102c79a4:	f03d5b08 	.word	0xf03d5b08
102c79a8:	102d0ff0 	.word	0x102d0ff0
102c79ac:	102d17a8 	.word	0x102d17a8
102c79b0:	102ccd38 	.word	0x102ccd38
102c79b4:	102d0fdc 	.word	0x102d0fdc
102c79b8:	102d0fe4 	.word	0x102d0fe4

102c79bc <ATRsp_QBTADDR_Hdlr>:
102c79bc:	e92d41f0 	push	{r4, r5, r6, r7, r8, lr}
102c79c0:	e1a06002 	mov	r6, r2
102c79c4:	e59f508c 	ldr	r5, [pc, #140]	; 102c7a58 <ATRsp_QBTADDR_Hdlr+0x9c>
102c79c8:	e59f208c 	ldr	r2, [pc, #140]	; 102c7a5c <ATRsp_QBTADDR_Hdlr+0xa0>
102c79cc:	e1a04000 	mov	r4, r0
102c79d0:	e1a07001 	mov	r7, r1
102c79d4:	e12fff35 	blx	r5
102c79d8:	e2508000 	subs	r8, r0, #0
102c79dc:	e1a00004 	mov	r0, r4
102c79e0:	0a000006 	beq	102c7a00 <ATRsp_QBTADDR_Hdlr+0x44>
102c79e4:	e59f3074 	ldr	r3, [pc, #116]	; 102c7a60 <ATRsp_QBTADDR_Hdlr+0xa4>
102c79e8:	e59f1074 	ldr	r1, [pc, #116]	; 102c7a64 <ATRsp_QBTADDR_Hdlr+0xa8>
102c79ec:	e5933000 	ldr	r3, [r3]
102c79f0:	e1a02006 	mov	r2, r6
102c79f4:	e12fff33 	blx	r3
102c79f8:	e3a00001 	mov	r0, #1
102c79fc:	e8bd81f0 	pop	{r4, r5, r6, r7, r8, pc}
102c7a00:	e1a01007 	mov	r1, r7
102c7a04:	e59f205c 	ldr	r2, [pc, #92]	; 102c7a68 <ATRsp_QBTADDR_Hdlr+0xac>
102c7a08:	e59f605c 	ldr	r6, [pc, #92]	; 102c7a6c <ATRsp_QBTADDR_Hdlr+0xb0>
102c7a0c:	e12fff36 	blx	r6
102c7a10:	e3500000 	cmp	r0, #0
102c7a14:	0a000001 	beq	102c7a20 <ATRsp_QBTADDR_Hdlr+0x64>
102c7a18:	e1a00008 	mov	r0, r8
102c7a1c:	e8bd81f0 	pop	{r4, r5, r6, r7, r8, pc}
102c7a20:	e1a00004 	mov	r0, r4
102c7a24:	e1a01007 	mov	r1, r7
102c7a28:	e59f2040 	ldr	r2, [pc, #64]	; 102c7a70 <ATRsp_QBTADDR_Hdlr+0xb4>
102c7a2c:	e12fff36 	blx	r6
102c7a30:	e3500000 	cmp	r0, #0
102c7a34:	0a000001 	beq	102c7a40 <ATRsp_QBTADDR_Hdlr+0x84>
102c7a38:	e3e00000 	mvn	r0, #0
102c7a3c:	e8bd81f0 	pop	{r4, r5, r6, r7, r8, pc}
102c7a40:	e1a00004 	mov	r0, r4
102c7a44:	e1a01007 	mov	r1, r7
102c7a48:	e59f2024 	ldr	r2, [pc, #36]	; 102c7a74 <ATRsp_QBTADDR_Hdlr+0xb8>
102c7a4c:	e12fff35 	blx	r5
102c7a50:	e3e00000 	mvn	r0, #0
102c7a54:	e8bd81f0 	pop	{r4, r5, r6, r7, r8, pc}
102c7a58:	102cccac 	.word	0x102cccac
102c7a5c:	102d1104 	.word	0x102d1104
102c7a60:	f03d5b08 	.word	0xf03d5b08
102c7a64:	102d1110 	.word	0x102d1110
102c7a68:	102d17a8 	.word	0x102d17a8
102c7a6c:	102ccd38 	.word	0x102ccd38
102c7a70:	102d0fdc 	.word	0x102d0fdc
102c7a74:	102d0fe4 	.word	0x102d0fe4

102c7a78 <ATRsp_QBTNAME_Hdlr>:
102c7a78:	e92d41f0 	push	{r4, r5, r6, r7, r8, lr}
102c7a7c:	e1a06002 	mov	r6, r2
102c7a80:	e59f508c 	ldr	r5, [pc, #140]	; 102c7b14 <ATRsp_QBTNAME_Hdlr+0x9c>
102c7a84:	e59f208c 	ldr	r2, [pc, #140]	; 102c7b18 <ATRsp_QBTNAME_Hdlr+0xa0>
102c7a88:	e1a04000 	mov	r4, r0
102c7a8c:	e1a07001 	mov	r7, r1
102c7a90:	e12fff35 	blx	r5
102c7a94:	e2508000 	subs	r8, r0, #0
102c7a98:	e1a00004 	mov	r0, r4
102c7a9c:	0a000006 	beq	102c7abc <ATRsp_QBTNAME_Hdlr+0x44>
102c7aa0:	e59f3074 	ldr	r3, [pc, #116]	; 102c7b1c <ATRsp_QBTNAME_Hdlr+0xa4>
102c7aa4:	e59f1074 	ldr	r1, [pc, #116]	; 102c7b20 <ATRsp_QBTNAME_Hdlr+0xa8>
102c7aa8:	e5933000 	ldr	r3, [r3]
102c7aac:	e1a02006 	mov	r2, r6
102c7ab0:	e12fff33 	blx	r3
102c7ab4:	e3a00001 	mov	r0, #1
102c7ab8:	e8bd81f0 	pop	{r4, r5, r6, r7, r8, pc}
102c7abc:	e1a01007 	mov	r1, r7
102c7ac0:	e59f205c 	ldr	r2, [pc, #92]	; 102c7b24 <ATRsp_QBTNAME_Hdlr+0xac>
102c7ac4:	e59f605c 	ldr	r6, [pc, #92]	; 102c7b28 <ATRsp_QBTNAME_Hdlr+0xb0>
102c7ac8:	e12fff36 	blx	r6
102c7acc:	e3500000 	cmp	r0, #0
102c7ad0:	0a000001 	beq	102c7adc <ATRsp_QBTNAME_Hdlr+0x64>
102c7ad4:	e1a00008 	mov	r0, r8
102c7ad8:	e8bd81f0 	pop	{r4, r5, r6, r7, r8, pc}
102c7adc:	e1a00004 	mov	r0, r4
102c7ae0:	e1a01007 	mov	r1, r7
102c7ae4:	e59f2040 	ldr	r2, [pc, #64]	; 102c7b2c <ATRsp_QBTNAME_Hdlr+0xb4>
102c7ae8:	e12fff36 	blx	r6
102c7aec:	e3500000 	cmp	r0, #0
102c7af0:	0a000001 	beq	102c7afc <ATRsp_QBTNAME_Hdlr+0x84>
102c7af4:	e3e00000 	mvn	r0, #0
102c7af8:	e8bd81f0 	pop	{r4, r5, r6, r7, r8, pc}
102c7afc:	e1a00004 	mov	r0, r4
102c7b00:	e1a01007 	mov	r1, r7
102c7b04:	e59f2024 	ldr	r2, [pc, #36]	; 102c7b30 <ATRsp_QBTNAME_Hdlr+0xb8>
102c7b08:	e12fff35 	blx	r5
102c7b0c:	e3e00000 	mvn	r0, #0
102c7b10:	e8bd81f0 	pop	{r4, r5, r6, r7, r8, pc}
102c7b14:	102cccac 	.word	0x102cccac
102c7b18:	102d1124 	.word	0x102d1124
102c7b1c:	f03d5b08 	.word	0xf03d5b08
102c7b20:	102d1044 	.word	0x102d1044
102c7b24:	102d17a8 	.word	0x102d17a8
102c7b28:	102ccd38 	.word	0x102ccd38
102c7b2c:	102d0fdc 	.word	0x102d0fdc
102c7b30:	102d0fe4 	.word	0x102d0fe4

102c7b34 <ATRsp_QBTPWR_Hdlr>:
102c7b34:	e92d41f0 	push	{r4, r5, r6, r7, r8, lr}
102c7b38:	e1a06002 	mov	r6, r2
102c7b3c:	e59f508c 	ldr	r5, [pc, #140]	; 102c7bd0 <ATRsp_QBTPWR_Hdlr+0x9c>
102c7b40:	e59f208c 	ldr	r2, [pc, #140]	; 102c7bd4 <ATRsp_QBTPWR_Hdlr+0xa0>
102c7b44:	e1a04000 	mov	r4, r0
102c7b48:	e1a07001 	mov	r7, r1
102c7b4c:	e12fff35 	blx	r5
102c7b50:	e2508000 	subs	r8, r0, #0
102c7b54:	e1a00004 	mov	r0, r4
102c7b58:	0a000006 	beq	102c7b78 <ATRsp_QBTPWR_Hdlr+0x44>
102c7b5c:	e59f3074 	ldr	r3, [pc, #116]	; 102c7bd8 <ATRsp_QBTPWR_Hdlr+0xa4>
102c7b60:	e59f1074 	ldr	r1, [pc, #116]	; 102c7bdc <ATRsp_QBTPWR_Hdlr+0xa8>
102c7b64:	e5933000 	ldr	r3, [r3]
102c7b68:	e1a02006 	mov	r2, r6
102c7b6c:	e12fff33 	blx	r3
102c7b70:	e3a00001 	mov	r0, #1
102c7b74:	e8bd81f0 	pop	{r4, r5, r6, r7, r8, pc}
102c7b78:	e1a01007 	mov	r1, r7
102c7b7c:	e59f205c 	ldr	r2, [pc, #92]	; 102c7be0 <ATRsp_QBTPWR_Hdlr+0xac>
102c7b80:	e59f605c 	ldr	r6, [pc, #92]	; 102c7be4 <ATRsp_QBTPWR_Hdlr+0xb0>
102c7b84:	e12fff36 	blx	r6
102c7b88:	e3500000 	cmp	r0, #0
102c7b8c:	0a000001 	beq	102c7b98 <ATRsp_QBTPWR_Hdlr+0x64>
102c7b90:	e1a00008 	mov	r0, r8
102c7b94:	e8bd81f0 	pop	{r4, r5, r6, r7, r8, pc}
102c7b98:	e1a00004 	mov	r0, r4
102c7b9c:	e1a01007 	mov	r1, r7
102c7ba0:	e59f2040 	ldr	r2, [pc, #64]	; 102c7be8 <ATRsp_QBTPWR_Hdlr+0xb4>
102c7ba4:	e12fff36 	blx	r6
102c7ba8:	e3500000 	cmp	r0, #0
102c7bac:	0a000001 	beq	102c7bb8 <ATRsp_QBTPWR_Hdlr+0x84>
102c7bb0:	e3e00000 	mvn	r0, #0
102c7bb4:	e8bd81f0 	pop	{r4, r5, r6, r7, r8, pc}
102c7bb8:	e1a00004 	mov	r0, r4
102c7bbc:	e1a01007 	mov	r1, r7
102c7bc0:	e59f2024 	ldr	r2, [pc, #36]	; 102c7bec <ATRsp_QBTPWR_Hdlr+0xb8>
102c7bc4:	e12fff35 	blx	r5
102c7bc8:	e3e00000 	mvn	r0, #0
102c7bcc:	e8bd81f0 	pop	{r4, r5, r6, r7, r8, pc}
102c7bd0:	102cccac 	.word	0x102cccac
102c7bd4:	102d1130 	.word	0x102d1130
102c7bd8:	f03d5b08 	.word	0xf03d5b08
102c7bdc:	102d0ff0 	.word	0x102d0ff0
102c7be0:	102d17a8 	.word	0x102d17a8
102c7be4:	102ccd38 	.word	0x102ccd38
102c7be8:	102d0fdc 	.word	0x102d0fdc
102c7bec:	102d0fe4 	.word	0x102d0fe4

102c7bf0 <ATRsp_QBTSPPSEND_Hdlr>:
102c7bf0:	e92d41f0 	push	{r4, r5, r6, r7, r8, lr}
102c7bf4:	e1a04002 	mov	r4, r2
102c7bf8:	e59f50a8 	ldr	r5, [pc, #168]	; 102c7ca8 <ATRsp_QBTSPPSEND_Hdlr+0xb8>
102c7bfc:	e59f20a8 	ldr	r2, [pc, #168]	; 102c7cac <ATRsp_QBTSPPSEND_Hdlr+0xbc>
102c7c00:	e1a07000 	mov	r7, r0
102c7c04:	e1a06001 	mov	r6, r1
102c7c08:	e12fff35 	blx	r5
102c7c0c:	e2508000 	subs	r8, r0, #0
102c7c10:	0a000009 	beq	102c7c3c <ATRsp_QBTSPPSEND_Hdlr+0x4c>
102c7c14:	e59f3094 	ldr	r3, [pc, #148]	; 102c7cb0 <ATRsp_QBTSPPSEND_Hdlr+0xc0>
102c7c18:	e5930088 	ldr	r0, [r3, #136]	; 0x88
102c7c1c:	e593108c 	ldr	r1, [r3, #140]	; 0x8c
102c7c20:	e59f308c 	ldr	r3, [pc, #140]	; 102c7cb4 <ATRsp_QBTSPPSEND_Hdlr+0xc4>
102c7c24:	e12fff33 	blx	r3
102c7c28:	e3540000 	cmp	r4, #0
102c7c2c:	0a00000b 	beq	102c7c60 <ATRsp_QBTSPPSEND_Hdlr+0x70>
102c7c30:	e5840000 	str	r0, [r4]
102c7c34:	e3a00001 	mov	r0, #1
102c7c38:	e8bd81f0 	pop	{r4, r5, r6, r7, r8, pc}
102c7c3c:	e1a00007 	mov	r0, r7
102c7c40:	e1a01006 	mov	r1, r6
102c7c44:	e59f206c 	ldr	r2, [pc, #108]	; 102c7cb8 <ATRsp_QBTSPPSEND_Hdlr+0xc8>
102c7c48:	e59f406c 	ldr	r4, [pc, #108]	; 102c7cbc <ATRsp_QBTSPPSEND_Hdlr+0xcc>
102c7c4c:	e12fff34 	blx	r4
102c7c50:	e3500000 	cmp	r0, #0
102c7c54:	0a000003 	beq	102c7c68 <ATRsp_QBTSPPSEND_Hdlr+0x78>
102c7c58:	e1a00008 	mov	r0, r8
102c7c5c:	e8bd81f0 	pop	{r4, r5, r6, r7, r8, pc}
102c7c60:	e3a00001 	mov	r0, #1
102c7c64:	e8bd81f0 	pop	{r4, r5, r6, r7, r8, pc}
102c7c68:	e1a00007 	mov	r0, r7
102c7c6c:	e1a01006 	mov	r1, r6
102c7c70:	e59f2048 	ldr	r2, [pc, #72]	; 102c7cc0 <ATRsp_QBTSPPSEND_Hdlr+0xd0>
102c7c74:	e12fff34 	blx	r4
102c7c78:	e3500000 	cmp	r0, #0
102c7c7c:	1a000007 	bne	102c7ca0 <ATRsp_QBTSPPSEND_Hdlr+0xb0>
102c7c80:	e1a00007 	mov	r0, r7
102c7c84:	e1a01006 	mov	r1, r6
102c7c88:	e59f2034 	ldr	r2, [pc, #52]	; 102c7cc4 <ATRsp_QBTSPPSEND_Hdlr+0xd4>
102c7c8c:	e12fff35 	blx	r5
102c7c90:	e3500000 	cmp	r0, #0
102c7c94:	03a00001 	moveq	r0, #1
102c7c98:	13e00000 	mvnne	r0, #0
102c7c9c:	e8bd81f0 	pop	{r4, r5, r6, r7, r8, pc}
102c7ca0:	e3e00000 	mvn	r0, #0
102c7ca4:	e8bd81f0 	pop	{r4, r5, r6, r7, r8, pc}
102c7ca8:	102cccac 	.word	0x102cccac
102c7cac:	102d1b4c 	.word	0x102d1b4c
102c7cb0:	f03d2058 	.word	0xf03d2058
102c7cb4:	102cf464 	.word	0x102cf464
102c7cb8:	102d17a8 	.word	0x102d17a8
102c7cbc:	102ccd38 	.word	0x102ccd38
102c7cc0:	102d0fdc 	.word	0x102d0fdc
102c7cc4:	102d0fe4 	.word	0x102d0fe4

102c7cc8 <BT_DevMngmt_GetDeviceId>:
102c7cc8:	e59f303c 	ldr	r3, [pc, #60]	; 102c7d0c <BT_DevMngmt_GetDeviceId+0x44>
102c7ccc:	e5932000 	ldr	r2, [r3]
102c7cd0:	e5921000 	ldr	r1, [r2]
102c7cd4:	e1510000 	cmp	r1, r0
102c7cd8:	0a000007 	beq	102c7cfc <BT_DevMngmt_GetDeviceId+0x34>
102c7cdc:	e283c074 	add	ip, r3, #116	; 0x74
102c7ce0:	ea000001 	b	102c7cec <BT_DevMngmt_GetDeviceId+0x24>
102c7ce4:	e153000c 	cmp	r3, ip
102c7ce8:	0a000005 	beq	102c7d04 <BT_DevMngmt_GetDeviceId+0x3c>
102c7cec:	e5b32004 	ldr	r2, [r3, #4]!
102c7cf0:	e5921000 	ldr	r1, [r2]
102c7cf4:	e1510000 	cmp	r1, r0
102c7cf8:	1afffff9 	bne	102c7ce4 <BT_DevMngmt_GetDeviceId+0x1c>
102c7cfc:	e592004c 	ldr	r0, [r2, #76]	; 0x4c
102c7d00:	e12fff1e 	bx	lr
102c7d04:	e3a00000 	mov	r0, #0
102c7d08:	e12fff1e 	bx	lr
102c7d0c:	f03d2058 	.word	0xf03d2058

102c7d10 <BT_DevMngmt_GetPairedId>:
102c7d10:	e59f303c 	ldr	r3, [pc, #60]	; 102c7d54 <BT_DevMngmt_GetPairedId+0x44>
102c7d14:	e5932000 	ldr	r2, [r3]
102c7d18:	e5921000 	ldr	r1, [r2]
102c7d1c:	e1510000 	cmp	r1, r0
102c7d20:	0a000007 	beq	102c7d44 <BT_DevMngmt_GetPairedId+0x34>
102c7d24:	e283c074 	add	ip, r3, #116	; 0x74
102c7d28:	ea000001 	b	102c7d34 <BT_DevMngmt_GetPairedId+0x24>
102c7d2c:	e153000c 	cmp	r3, ip
102c7d30:	0a000005 	beq	102c7d4c <BT_DevMngmt_GetPairedId+0x3c>
102c7d34:	e5b32004 	ldr	r2, [r3, #4]!
102c7d38:	e5921000 	ldr	r1, [r2]
102c7d3c:	e1510000 	cmp	r1, r0
102c7d40:	1afffff9 	bne	102c7d2c <BT_DevMngmt_GetPairedId+0x1c>
102c7d44:	e5920050 	ldr	r0, [r2, #80]	; 0x50
102c7d48:	e12fff1e 	bx	lr
102c7d4c:	e3a00000 	mov	r0, #0
102c7d50:	e12fff1e 	bx	lr
102c7d54:	f03d2058 	.word	0xf03d2058

102c7d58 <BT_DevMngmt_GetConnId>:
102c7d58:	e59f303c 	ldr	r3, [pc, #60]	; 102c7d9c <BT_DevMngmt_GetConnId+0x44>
102c7d5c:	e5932000 	ldr	r2, [r3]
102c7d60:	e5921000 	ldr	r1, [r2]
102c7d64:	e1510000 	cmp	r1, r0
102c7d68:	0a000007 	beq	102c7d8c <BT_DevMngmt_GetConnId+0x34>
102c7d6c:	e283c074 	add	ip, r3, #116	; 0x74
102c7d70:	ea000001 	b	102c7d7c <BT_DevMngmt_GetConnId+0x24>
102c7d74:	e153000c 	cmp	r3, ip
102c7d78:	0a000005 	beq	102c7d94 <BT_DevMngmt_GetConnId+0x3c>
102c7d7c:	e5b32004 	ldr	r2, [r3, #4]!
102c7d80:	e5921000 	ldr	r1, [r2]
102c7d84:	e1510000 	cmp	r1, r0
102c7d88:	1afffff9 	bne	102c7d74 <BT_DevMngmt_GetConnId+0x1c>
102c7d8c:	e5920054 	ldr	r0, [r2, #84]	; 0x54
102c7d90:	e12fff1e 	bx	lr
102c7d94:	e3a00000 	mov	r0, #0
102c7d98:	e12fff1e 	bx	lr
102c7d9c:	f03d2058 	.word	0xf03d2058

102c7da0 <BT_DevMngmt_GetProfileId>:
102c7da0:	e59f303c 	ldr	r3, [pc, #60]	; 102c7de4 <BT_DevMngmt_GetProfileId+0x44>
102c7da4:	e5932000 	ldr	r2, [r3]
102c7da8:	e5921000 	ldr	r1, [r2]
102c7dac:	e1510000 	cmp	r1, r0
102c7db0:	0a000007 	beq	102c7dd4 <BT_DevMngmt_GetProfileId+0x34>
102c7db4:	e283c074 	add	ip, r3, #116	; 0x74
102c7db8:	ea000001 	b	102c7dc4 <BT_DevMngmt_GetProfileId+0x24>
102c7dbc:	e153000c 	cmp	r3, ip
102c7dc0:	0a000005 	beq	102c7ddc <BT_DevMngmt_GetProfileId+0x3c>
102c7dc4:	e5b32004 	ldr	r2, [r3, #4]!
102c7dc8:	e5921000 	ldr	r1, [r2]
102c7dcc:	e1510000 	cmp	r1, r0
102c7dd0:	1afffff9 	bne	102c7dbc <BT_DevMngmt_GetProfileId+0x1c>
102c7dd4:	e5920058 	ldr	r0, [r2, #88]	; 0x58
102c7dd8:	e12fff1e 	bx	lr
102c7ddc:	e3a00000 	mov	r0, #0
102c7de0:	e12fff1e 	bx	lr
102c7de4:	f03d2058 	.word	0xf03d2058

102c7de8 <BT_DevMngmt_GetDevName>:
102c7de8:	e59f303c 	ldr	r3, [pc, #60]	; 102c7e2c <BT_DevMngmt_GetDevName+0x44>
102c7dec:	e5932000 	ldr	r2, [r3]
102c7df0:	e5921000 	ldr	r1, [r2]
102c7df4:	e1510000 	cmp	r1, r0
102c7df8:	0a000007 	beq	102c7e1c <BT_DevMngmt_GetDevName+0x34>
102c7dfc:	e283c074 	add	ip, r3, #116	; 0x74
102c7e00:	ea000001 	b	102c7e0c <BT_DevMngmt_GetDevName+0x24>
102c7e04:	e153000c 	cmp	r3, ip
102c7e08:	0a000005 	beq	102c7e24 <BT_DevMngmt_GetDevName+0x3c>
102c7e0c:	e5b32004 	ldr	r2, [r3, #4]!
102c7e10:	e5921000 	ldr	r1, [r2]
102c7e14:	e1510000 	cmp	r1, r0
102c7e18:	1afffff9 	bne	102c7e04 <BT_DevMngmt_GetDevName+0x1c>
102c7e1c:	e2820004 	add	r0, r2, #4
102c7e20:	e12fff1e 	bx	lr
102c7e24:	e3a00000 	mov	r0, #0
102c7e28:	e12fff1e 	bx	lr
102c7e2c:	f03d2058 	.word	0xf03d2058

102c7e30 <BT_DevMngmt_GetDevAddr>:
102c7e30:	e59f303c 	ldr	r3, [pc, #60]	; 102c7e74 <BT_DevMngmt_GetDevAddr+0x44>
102c7e34:	e5932000 	ldr	r2, [r3]
102c7e38:	e5921000 	ldr	r1, [r2]
102c7e3c:	e1510000 	cmp	r1, r0
102c7e40:	0a000007 	beq	102c7e64 <BT_DevMngmt_GetDevAddr+0x34>
102c7e44:	e283c074 	add	ip, r3, #116	; 0x74
102c7e48:	ea000001 	b	102c7e54 <BT_DevMngmt_GetDevAddr+0x24>
102c7e4c:	e153000c 	cmp	r3, ip
102c7e50:	0a000005 	beq	102c7e6c <BT_DevMngmt_GetDevAddr+0x3c>
102c7e54:	e5b32004 	ldr	r2, [r3, #4]!
102c7e58:	e5921000 	ldr	r1, [r2]
102c7e5c:	e1510000 	cmp	r1, r0
102c7e60:	1afffff9 	bne	102c7e4c <BT_DevMngmt_GetDevAddr+0x1c>
102c7e64:	e282003c 	add	r0, r2, #60	; 0x3c
102c7e68:	e12fff1e 	bx	lr
102c7e6c:	e3a00000 	mov	r0, #0
102c7e70:	e12fff1e 	bx	lr
102c7e74:	f03d2058 	.word	0xf03d2058

102c7e78 <RIL_BT_Switch>:
102c7e78:	e3500001 	cmp	r0, #1
102c7e7c:	e92d4010 	push	{r4, lr}
102c7e80:	e1a04000 	mov	r4, r0
102c7e84:	e24dd020 	sub	sp, sp, #32
102c7e88:	83e00003 	mvnhi	r0, #3
102c7e8c:	8a000014 	bhi	102c7ee4 <RIL_BT_Switch+0x6c>
102c7e90:	e3a01000 	mov	r1, #0
102c7e94:	e3a02014 	mov	r2, #20
102c7e98:	e59f304c 	ldr	r3, [pc, #76]	; 102c7eec <RIL_BT_Switch+0x74>
102c7e9c:	e28d000c 	add	r0, sp, #12
102c7ea0:	e12fff33 	blx	r3
102c7ea4:	e59f3044 	ldr	r3, [pc, #68]	; 102c7ef0 <RIL_BT_Switch+0x78>
102c7ea8:	e59f1044 	ldr	r1, [pc, #68]	; 102c7ef4 <RIL_BT_Switch+0x7c>
102c7eac:	e1a02004 	mov	r2, r4
102c7eb0:	e5933000 	ldr	r3, [r3]
102c7eb4:	e28d000c 	add	r0, sp, #12
102c7eb8:	e12fff33 	blx	r3
102c7ebc:	e59f3034 	ldr	r3, [pc, #52]	; 102c7ef8 <RIL_BT_Switch+0x80>
102c7ec0:	e28d000c 	add	r0, sp, #12
102c7ec4:	e12fff33 	blx	r3
102c7ec8:	e3a03000 	mov	r3, #0
102c7ecc:	e1a02003 	mov	r2, r3
102c7ed0:	e58d3000 	str	r3, [sp]
102c7ed4:	e59fc020 	ldr	ip, [pc, #32]	; 102c7efc <RIL_BT_Switch+0x84>
102c7ed8:	e1a01000 	mov	r1, r0
102c7edc:	e28d000c 	add	r0, sp, #12
102c7ee0:	e12fff3c 	blx	ip
102c7ee4:	e28dd020 	add	sp, sp, #32
102c7ee8:	e8bd8010 	pop	{r4, pc}
102c7eec:	102cf798 	.word	0x102cf798
102c7ef0:	f03d5b00 	.word	0xf03d5b00
102c7ef4:	102d113c 	.word	0x102d113c
102c7ef8:	102cf648 	.word	0x102cf648
102c7efc:	102cf204 	.word	0x102cf204

102c7f00 <RIL_BT_GetPwrState>:
102c7f00:	e59f2058 	ldr	r2, [pc, #88]	; 102c7f60 <RIL_BT_GetPwrState+0x60>
102c7f04:	e92d4030 	push	{r4, r5, lr}
102c7f08:	e1a05000 	mov	r5, r0
102c7f0c:	e8920007 	ldm	r2, {r0, r1, r2}
102c7f10:	e24dd01c 	sub	sp, sp, #28
102c7f14:	e28d400c 	add	r4, sp, #12
102c7f18:	e3550000 	cmp	r5, #0
102c7f1c:	e8840007 	stm	r4, {r0, r1, r2}
102c7f20:	0a00000c 	beq	102c7f58 <RIL_BT_GetPwrState+0x58>
102c7f24:	e59f3038 	ldr	r3, [pc, #56]	; 102c7f64 <RIL_BT_GetPwrState+0x64>
102c7f28:	e1a00004 	mov	r0, r4
102c7f2c:	e12fff33 	blx	r3
102c7f30:	e3a03000 	mov	r3, #0
102c7f34:	e58d3000 	str	r3, [sp]
102c7f38:	e59f2028 	ldr	r2, [pc, #40]	; 102c7f68 <RIL_BT_GetPwrState+0x68>
102c7f3c:	e1a03005 	mov	r3, r5
102c7f40:	e59fc024 	ldr	ip, [pc, #36]	; 102c7f6c <RIL_BT_GetPwrState+0x6c>
102c7f44:	e1a01000 	mov	r1, r0
102c7f48:	e1a00004 	mov	r0, r4
102c7f4c:	e12fff3c 	blx	ip
102c7f50:	e28dd01c 	add	sp, sp, #28
102c7f54:	e8bd8030 	pop	{r4, r5, pc}
102c7f58:	e3e00003 	mvn	r0, #3
102c7f5c:	eafffffb 	b	102c7f50 <RIL_BT_GetPwrState+0x50>
102c7f60:	102d01f0 	.word	0x102d01f0
102c7f64:	102cf648 	.word	0x102cf648
102c7f68:	102c7b34 	.word	0x102c7b34
102c7f6c:	102cf204 	.word	0x102cf204

102c7f70 <RIL_BT_SetName>:
102c7f70:	e92d4030 	push	{r4, r5, lr}
102c7f74:	e2704001 	rsbs	r4, r0, #1
102c7f78:	33a04000 	movcc	r4, #0
102c7f7c:	e3510036 	cmp	r1, #54	; 0x36
102c7f80:	83844001 	orrhi	r4, r4, #1
102c7f84:	e3540000 	cmp	r4, #0
102c7f88:	e24dd05c 	sub	sp, sp, #92	; 0x5c
102c7f8c:	e1a05000 	mov	r5, r0
102c7f90:	1a000016 	bne	102c7ff0 <RIL_BT_SetName+0x80>
102c7f94:	e1a01004 	mov	r1, r4
102c7f98:	e3a02050 	mov	r2, #80	; 0x50
102c7f9c:	e59f3054 	ldr	r3, [pc, #84]	; 102c7ff8 <RIL_BT_SetName+0x88>
102c7fa0:	e28d0008 	add	r0, sp, #8
102c7fa4:	e12fff33 	blx	r3
102c7fa8:	e59f304c 	ldr	r3, [pc, #76]	; 102c7ffc <RIL_BT_SetName+0x8c>
102c7fac:	e59f104c 	ldr	r1, [pc, #76]	; 102c8000 <RIL_BT_SetName+0x90>
102c7fb0:	e1a02005 	mov	r2, r5
102c7fb4:	e5933000 	ldr	r3, [r3]
102c7fb8:	e28d0008 	add	r0, sp, #8
102c7fbc:	e12fff33 	blx	r3
102c7fc0:	e59f303c 	ldr	r3, [pc, #60]	; 102c8004 <RIL_BT_SetName+0x94>
102c7fc4:	e28d0008 	add	r0, sp, #8
102c7fc8:	e12fff33 	blx	r3
102c7fcc:	e1a02004 	mov	r2, r4
102c7fd0:	e58d4000 	str	r4, [sp]
102c7fd4:	e1a03004 	mov	r3, r4
102c7fd8:	e59fc028 	ldr	ip, [pc, #40]	; 102c8008 <RIL_BT_SetName+0x98>
102c7fdc:	e1a01000 	mov	r1, r0
102c7fe0:	e28d0008 	add	r0, sp, #8
102c7fe4:	e12fff3c 	blx	ip
102c7fe8:	e28dd05c 	add	sp, sp, #92	; 0x5c
102c7fec:	e8bd8030 	pop	{r4, r5, pc}
102c7ff0:	e3e00003 	mvn	r0, #3
102c7ff4:	eafffffb 	b	102c7fe8 <RIL_BT_SetName+0x78>
102c7ff8:	102cf798 	.word	0x102cf798
102c7ffc:	f03d5b00 	.word	0xf03d5b00
102c8000:	102d114c 	.word	0x102d114c
102c8004:	102cf648 	.word	0x102cf648
102c8008:	102cf204 	.word	0x102cf204

102c800c <RIL_BT_GetName>:
102c800c:	e59f311c 	ldr	r3, [pc, #284]	; 102c8130 <RIL_BT_GetName+0x124>
102c8010:	e92d40f0 	push	{r4, r5, r6, r7, lr}
102c8014:	e1a05000 	mov	r5, r0
102c8018:	e1a06001 	mov	r6, r1
102c801c:	e893000f 	ldm	r3, {r0, r1, r2, r3}
102c8020:	e24dd05c 	sub	sp, sp, #92	; 0x5c
102c8024:	e3a04000 	mov	r4, #0
102c8028:	e28dc00c 	add	ip, sp, #12
102c802c:	e1550004 	cmp	r5, r4
102c8030:	e8ac0007 	stmia	ip!, {r0, r1, r2}
102c8034:	e5cd4019 	strb	r4, [sp, #25]
102c8038:	e5cc3000 	strb	r3, [ip]
102c803c:	e5cd401a 	strb	r4, [sp, #26]
102c8040:	e5cd401b 	strb	r4, [sp, #27]
102c8044:	e5cd401c 	strb	r4, [sp, #28]
102c8048:	e5cd401d 	strb	r4, [sp, #29]
102c804c:	e5cd401e 	strb	r4, [sp, #30]
102c8050:	e5cd401f 	strb	r4, [sp, #31]
102c8054:	e58d4020 	str	r4, [sp, #32]
102c8058:	e58d4024 	str	r4, [sp, #36]	; 0x24
102c805c:	e58d4028 	str	r4, [sp, #40]	; 0x28
102c8060:	e58d402c 	str	r4, [sp, #44]	; 0x2c
102c8064:	e58d4030 	str	r4, [sp, #48]	; 0x30
102c8068:	e58d4034 	str	r4, [sp, #52]	; 0x34
102c806c:	e58d4038 	str	r4, [sp, #56]	; 0x38
102c8070:	e58d403c 	str	r4, [sp, #60]	; 0x3c
102c8074:	e58d4040 	str	r4, [sp, #64]	; 0x40
102c8078:	e58d4044 	str	r4, [sp, #68]	; 0x44
102c807c:	e58d4048 	str	r4, [sp, #72]	; 0x48
102c8080:	e58d404c 	str	r4, [sp, #76]	; 0x4c
102c8084:	e58d4050 	str	r4, [sp, #80]	; 0x50
102c8088:	e58d4054 	str	r4, [sp, #84]	; 0x54
102c808c:	0a000025 	beq	102c8128 <RIL_BT_GetName+0x11c>
102c8090:	e1a01004 	mov	r1, r4
102c8094:	e1a02006 	mov	r2, r6
102c8098:	e59f3094 	ldr	r3, [pc, #148]	; 102c8134 <RIL_BT_GetName+0x128>
102c809c:	e1a00005 	mov	r0, r5
102c80a0:	e12fff33 	blx	r3
102c80a4:	e59f708c 	ldr	r7, [pc, #140]	; 102c8138 <RIL_BT_GetName+0x12c>
102c80a8:	e28d000c 	add	r0, sp, #12
102c80ac:	e12fff37 	blx	r7
102c80b0:	e58d4000 	str	r4, [sp]
102c80b4:	e59f2080 	ldr	r2, [pc, #128]	; 102c813c <RIL_BT_GetName+0x130>
102c80b8:	e28d3020 	add	r3, sp, #32
102c80bc:	e59fc07c 	ldr	ip, [pc, #124]	; 102c8140 <RIL_BT_GetName+0x134>
102c80c0:	e1a01000 	mov	r1, r0
102c80c4:	e28d000c 	add	r0, sp, #12
102c80c8:	e12fff3c 	blx	ip
102c80cc:	e2504000 	subs	r4, r0, #0
102c80d0:	0a000002 	beq	102c80e0 <RIL_BT_GetName+0xd4>
102c80d4:	e1a00004 	mov	r0, r4
102c80d8:	e28dd05c 	add	sp, sp, #92	; 0x5c
102c80dc:	e8bd80f0 	pop	{r4, r5, r6, r7, pc}
102c80e0:	e28d0020 	add	r0, sp, #32
102c80e4:	e12fff37 	blx	r7
102c80e8:	e1560000 	cmp	r6, r0
102c80ec:	2a000005 	bcs	102c8108 <RIL_BT_GetName+0xfc>
102c80f0:	e1a00005 	mov	r0, r5
102c80f4:	e28d1020 	add	r1, sp, #32
102c80f8:	e2462001 	sub	r2, r6, #1
102c80fc:	e59f3040 	ldr	r3, [pc, #64]	; 102c8144 <RIL_BT_GetName+0x138>
102c8100:	e12fff33 	blx	r3
102c8104:	eafffff2 	b	102c80d4 <RIL_BT_GetName+0xc8>
102c8108:	e28d0020 	add	r0, sp, #32
102c810c:	e12fff37 	blx	r7
102c8110:	e28d1020 	add	r1, sp, #32
102c8114:	e59f3028 	ldr	r3, [pc, #40]	; 102c8144 <RIL_BT_GetName+0x138>
102c8118:	e1a02000 	mov	r2, r0
102c811c:	e1a00005 	mov	r0, r5
102c8120:	e12fff33 	blx	r3
102c8124:	eaffffea 	b	102c80d4 <RIL_BT_GetName+0xc8>
102c8128:	e3e04003 	mvn	r4, #3
102c812c:	eaffffe8 	b	102c80d4 <RIL_BT_GetName+0xc8>
102c8130:	102d01fc 	.word	0x102d01fc
102c8134:	102cf798 	.word	0x102cf798
102c8138:	102cf648 	.word	0x102cf648
102c813c:	102c7a78 	.word	0x102c7a78
102c8140:	102cf204 	.word	0x102cf204
102c8144:	102cf5c0 	.word	0x102cf5c0

102c8148 <RIL_BT_GetLocalAddr>:
102c8148:	e59f30d8 	ldr	r3, [pc, #216]	; 102c8228 <RIL_BT_GetLocalAddr+0xe0>
102c814c:	e92d40f0 	push	{r4, r5, r6, r7, lr}
102c8150:	e1a05000 	mov	r5, r0
102c8154:	e1a06001 	mov	r6, r1
102c8158:	e893000f 	ldm	r3, {r0, r1, r2, r3}
102c815c:	e24dd02c 	sub	sp, sp, #44	; 0x2c
102c8160:	e3a04000 	mov	r4, #0
102c8164:	e28dc008 	add	ip, sp, #8
102c8168:	e1550004 	cmp	r5, r4
102c816c:	e8ac0007 	stmia	ip!, {r0, r1, r2}
102c8170:	e58d4018 	str	r4, [sp, #24]
102c8174:	e5cc3000 	strb	r3, [ip]
102c8178:	e58d401c 	str	r4, [sp, #28]
102c817c:	e58d4020 	str	r4, [sp, #32]
102c8180:	e5cd4024 	strb	r4, [sp, #36]	; 0x24
102c8184:	0a000025 	beq	102c8220 <RIL_BT_GetLocalAddr+0xd8>
102c8188:	e1a01004 	mov	r1, r4
102c818c:	e1a02006 	mov	r2, r6
102c8190:	e59f3094 	ldr	r3, [pc, #148]	; 102c822c <RIL_BT_GetLocalAddr+0xe4>
102c8194:	e1a00005 	mov	r0, r5
102c8198:	e12fff33 	blx	r3
102c819c:	e59f708c 	ldr	r7, [pc, #140]	; 102c8230 <RIL_BT_GetLocalAddr+0xe8>
102c81a0:	e28d0008 	add	r0, sp, #8
102c81a4:	e12fff37 	blx	r7
102c81a8:	e58d4000 	str	r4, [sp]
102c81ac:	e59f2080 	ldr	r2, [pc, #128]	; 102c8234 <RIL_BT_GetLocalAddr+0xec>
102c81b0:	e28d3018 	add	r3, sp, #24
102c81b4:	e59fc07c 	ldr	ip, [pc, #124]	; 102c8238 <RIL_BT_GetLocalAddr+0xf0>
102c81b8:	e1a01000 	mov	r1, r0
102c81bc:	e28d0008 	add	r0, sp, #8
102c81c0:	e12fff3c 	blx	ip
102c81c4:	e2504000 	subs	r4, r0, #0
102c81c8:	0a000002 	beq	102c81d8 <RIL_BT_GetLocalAddr+0x90>
102c81cc:	e1a00004 	mov	r0, r4
102c81d0:	e28dd02c 	add	sp, sp, #44	; 0x2c
102c81d4:	e8bd80f0 	pop	{r4, r5, r6, r7, pc}
102c81d8:	e28d0018 	add	r0, sp, #24
102c81dc:	e12fff37 	blx	r7
102c81e0:	e1560000 	cmp	r6, r0
102c81e4:	2a000005 	bcs	102c8200 <RIL_BT_GetLocalAddr+0xb8>
102c81e8:	e1a00005 	mov	r0, r5
102c81ec:	e28d1018 	add	r1, sp, #24
102c81f0:	e2462001 	sub	r2, r6, #1
102c81f4:	e59f3040 	ldr	r3, [pc, #64]	; 102c823c <RIL_BT_GetLocalAddr+0xf4>
102c81f8:	e12fff33 	blx	r3
102c81fc:	eafffff2 	b	102c81cc <RIL_BT_GetLocalAddr+0x84>
102c8200:	e28d0018 	add	r0, sp, #24
102c8204:	e12fff37 	blx	r7
102c8208:	e28d1018 	add	r1, sp, #24
102c820c:	e59f3028 	ldr	r3, [pc, #40]	; 102c823c <RIL_BT_GetLocalAddr+0xf4>
102c8210:	e1a02000 	mov	r2, r0
102c8214:	e1a00005 	mov	r0, r5
102c8218:	e12fff33 	blx	r3
102c821c:	eaffffea 	b	102c81cc <RIL_BT_GetLocalAddr+0x84>
102c8220:	e3e04003 	mvn	r4, #3
102c8224:	eaffffe8 	b	102c81cc <RIL_BT_GetLocalAddr+0x84>
102c8228:	102d0210 	.word	0x102d0210
102c822c:	102cf798 	.word	0x102cf798
102c8230:	102cf648 	.word	0x102cf648
102c8234:	102c79bc 	.word	0x102c79bc
102c8238:	102cf204 	.word	0x102cf204
102c823c:	102cf5c0 	.word	0x102cf5c0

102c8240 <RIL_BT_SetVisble>:
102c8240:	e3500002 	cmp	r0, #2
102c8244:	e92d4030 	push	{r4, r5, lr}
102c8248:	e1a04000 	mov	r4, r0
102c824c:	e24dd02c 	sub	sp, sp, #44	; 0x2c
102c8250:	e1a05001 	mov	r5, r1
102c8254:	8a00001e 	bhi	102c82d4 <RIL_BT_SetVisble+0x94>
102c8258:	e28d0008 	add	r0, sp, #8
102c825c:	e3a01000 	mov	r1, #0
102c8260:	e3a0201e 	mov	r2, #30
102c8264:	e59fc070 	ldr	ip, [pc, #112]	; 102c82dc <RIL_BT_SetVisble+0x9c>
102c8268:	e12fff3c 	blx	ip
102c826c:	e3540002 	cmp	r4, #2
102c8270:	e28d0008 	add	r0, sp, #8
102c8274:	e59f3064 	ldr	r3, [pc, #100]	; 102c82e0 <RIL_BT_SetVisble+0xa0>
102c8278:	1a000010 	bne	102c82c0 <RIL_BT_SetVisble+0x80>
102c827c:	e593c000 	ldr	ip, [r3]
102c8280:	e59f105c 	ldr	r1, [pc, #92]	; 102c82e4 <RIL_BT_SetVisble+0xa4>
102c8284:	e1a02004 	mov	r2, r4
102c8288:	e1a03005 	mov	r3, r5
102c828c:	e12fff3c 	blx	ip
102c8290:	e59f3050 	ldr	r3, [pc, #80]	; 102c82e8 <RIL_BT_SetVisble+0xa8>
102c8294:	e28d0008 	add	r0, sp, #8
102c8298:	e12fff33 	blx	r3
102c829c:	e3a03000 	mov	r3, #0
102c82a0:	e1a02003 	mov	r2, r3
102c82a4:	e58d3000 	str	r3, [sp]
102c82a8:	e59fc03c 	ldr	ip, [pc, #60]	; 102c82ec <RIL_BT_SetVisble+0xac>
102c82ac:	e1a01000 	mov	r1, r0
102c82b0:	e28d0008 	add	r0, sp, #8
102c82b4:	e12fff3c 	blx	ip
102c82b8:	e28dd02c 	add	sp, sp, #44	; 0x2c
102c82bc:	e8bd8030 	pop	{r4, r5, pc}
102c82c0:	e5933000 	ldr	r3, [r3]
102c82c4:	e59f1024 	ldr	r1, [pc, #36]	; 102c82f0 <RIL_BT_SetVisble+0xb0>
102c82c8:	e1a02004 	mov	r2, r4
102c82cc:	e12fff33 	blx	r3
102c82d0:	eaffffee 	b	102c8290 <RIL_BT_SetVisble+0x50>
102c82d4:	e3e00003 	mvn	r0, #3
102c82d8:	eafffff6 	b	102c82b8 <RIL_BT_SetVisble+0x78>
102c82dc:	102cf798 	.word	0x102cf798
102c82e0:	f03d5b00 	.word	0xf03d5b00
102c82e4:	102d116c 	.word	0x102d116c
102c82e8:	102cf648 	.word	0x102cf648
102c82ec:	102cf204 	.word	0x102cf204
102c82f0:	102d115c 	.word	0x102d115c

102c82f4 <OnURCHandler_BTVisible>:
102c82f4:	e92d41f0 	push	{r4, r5, r6, r7, r8, lr}
102c82f8:	e59f40d0 	ldr	r4, [pc, #208]	; 102c83d0 <OnURCHandler_BTVisible+0xdc>
102c82fc:	e3a05000 	mov	r5, #0
102c8300:	e5943090 	ldr	r3, [r4, #144]	; 0x90
102c8304:	e24dd028 	sub	sp, sp, #40	; 0x28
102c8308:	e1530005 	cmp	r3, r5
102c830c:	e1a06000 	mov	r6, r0
102c8310:	e58d5004 	str	r5, [sp, #4]
102c8314:	0a000015 	beq	102c8370 <OnURCHandler_BTVisible+0x7c>
102c8318:	e28d1008 	add	r1, sp, #8
102c831c:	e59f70b0 	ldr	r7, [pc, #176]	; 102c83d4 <OnURCHandler_BTVisible+0xe0>
102c8320:	e12fff37 	blx	r7
102c8324:	e2508000 	subs	r8, r0, #0
102c8328:	0a000012 	beq	102c8378 <OnURCHandler_BTVisible+0x84>
102c832c:	e59f30a4 	ldr	r3, [pc, #164]	; 102c83d8 <OnURCHandler_BTVisible+0xe4>
102c8330:	e28d2004 	add	r2, sp, #4
102c8334:	e5933000 	ldr	r3, [r3]
102c8338:	e59f109c 	ldr	r1, [pc, #156]	; 102c83dc <OnURCHandler_BTVisible+0xe8>
102c833c:	e1a00006 	mov	r0, r6
102c8340:	e12fff33 	blx	r3
102c8344:	e59d1004 	ldr	r1, [sp, #4]
102c8348:	e1510005 	cmp	r1, r5
102c834c:	01a02001 	moveq	r2, r1
102c8350:	11a02005 	movne	r2, r5
102c8354:	0594c090 	ldreq	ip, [r4, #144]	; 0x90
102c8358:	03a00009 	moveq	r0, #9
102c835c:	03a01001 	moveq	r1, #1
102c8360:	1594c090 	ldrne	ip, [r4, #144]	; 0x90
102c8364:	13a00009 	movne	r0, #9
102c8368:	e1a03002 	mov	r3, r2
102c836c:	e12fff3c 	blx	ip
102c8370:	e28dd028 	add	sp, sp, #40	; 0x28
102c8374:	e8bd81f0 	pop	{r4, r5, r6, r7, r8, pc}
102c8378:	e59f1060 	ldr	r1, [pc, #96]	; 102c83e0 <OnURCHandler_BTVisible+0xec>
102c837c:	e59f3060 	ldr	r3, [pc, #96]	; 102c83e4 <OnURCHandler_BTVisible+0xf0>
102c8380:	e28d0008 	add	r0, sp, #8
102c8384:	e12fff33 	blx	r3
102c8388:	e1a00006 	mov	r0, r6
102c838c:	e28d1008 	add	r1, sp, #8
102c8390:	e12fff37 	blx	r7
102c8394:	e3500000 	cmp	r0, #0
102c8398:	0afffff4 	beq	102c8370 <OnURCHandler_BTVisible+0x7c>
102c839c:	e59f3034 	ldr	r3, [pc, #52]	; 102c83d8 <OnURCHandler_BTVisible+0xe4>
102c83a0:	e28d2004 	add	r2, sp, #4
102c83a4:	e59f1030 	ldr	r1, [pc, #48]	; 102c83dc <OnURCHandler_BTVisible+0xe8>
102c83a8:	e5933000 	ldr	r3, [r3]
102c83ac:	e1a00006 	mov	r0, r6
102c83b0:	e12fff33 	blx	r3
102c83b4:	e1a02008 	mov	r2, r8
102c83b8:	e594c090 	ldr	ip, [r4, #144]	; 0x90
102c83bc:	e3a00009 	mov	r0, #9
102c83c0:	e59d1004 	ldr	r1, [sp, #4]
102c83c4:	e1a03008 	mov	r3, r8
102c83c8:	e12fff3c 	blx	ip
102c83cc:	eaffffe7 	b	102c8370 <OnURCHandler_BTVisible+0x7c>
102c83d0:	f03d2058 	.word	0xf03d2058
102c83d4:	102ccb6c 	.word	0x102ccb6c
102c83d8:	f03d5b08 	.word	0xf03d5b08
102c83dc:	102d0ff0 	.word	0x102d0ff0
102c83e0:	102d0220 	.word	0x102d0220
102c83e4:	102cf520 	.word	0x102cf520

102c83e8 <RIL_BT_GetVisble>:
102c83e8:	e59f205c 	ldr	r2, [pc, #92]	; 102c844c <RIL_BT_GetVisble+0x64>
102c83ec:	e92d4010 	push	{r4, lr}
102c83f0:	e1a04000 	mov	r4, r0
102c83f4:	e892000f 	ldm	r2, {r0, r1, r2, r3}
102c83f8:	e24dd018 	sub	sp, sp, #24
102c83fc:	e28dc008 	add	ip, sp, #8
102c8400:	e3540000 	cmp	r4, #0
102c8404:	e8ac0007 	stmia	ip!, {r0, r1, r2}
102c8408:	e5cc3000 	strb	r3, [ip]
102c840c:	0a00000c 	beq	102c8444 <RIL_BT_GetVisble+0x5c>
102c8410:	e59f3038 	ldr	r3, [pc, #56]	; 102c8450 <RIL_BT_GetVisble+0x68>
102c8414:	e28d0008 	add	r0, sp, #8
102c8418:	e12fff33 	blx	r3
102c841c:	e3a03000 	mov	r3, #0
102c8420:	e58d3000 	str	r3, [sp]
102c8424:	e59f2028 	ldr	r2, [pc, #40]	; 102c8454 <RIL_BT_GetVisble+0x6c>
102c8428:	e1a03004 	mov	r3, r4
102c842c:	e59fc024 	ldr	ip, [pc, #36]	; 102c8458 <RIL_BT_GetVisble+0x70>
102c8430:	e1a01000 	mov	r1, r0
102c8434:	e28d0008 	add	r0, sp, #8
102c8438:	e12fff3c 	blx	ip
102c843c:	e28dd018 	add	sp, sp, #24
102c8440:	e8bd8010 	pop	{r4, pc}
102c8444:	e3e00003 	mvn	r0, #3
102c8448:	eafffffb 	b	102c843c <RIL_BT_GetVisble+0x54>
102c844c:	102d0230 	.word	0x102d0230
102c8450:	102cf648 	.word	0x102cf648
102c8454:	102c7900 	.word	0x102c7900
102c8458:	102cf204 	.word	0x102cf204

102c845c <OnURCHandler_BTScan>:
102c845c:	e92d4ff0 	push	{r4, r5, r6, r7, r8, r9, sl, fp, lr}
102c8460:	e59f4280 	ldr	r4, [pc, #640]	; 102c86e8 <OnURCHandler_BTScan+0x28c>
102c8464:	e59f6280 	ldr	r6, [pc, #640]	; 102c86ec <OnURCHandler_BTScan+0x290>
102c8468:	e1a09000 	mov	r9, r0
102c846c:	e5967090 	ldr	r7, [r6, #144]	; 0x90
102c8470:	e894000f 	ldm	r4, {r0, r1, r2, r3}
102c8474:	e24dd01c 	sub	sp, sp, #28
102c8478:	e3a05000 	mov	r5, #0
102c847c:	e28dc008 	add	ip, sp, #8
102c8480:	e1570005 	cmp	r7, r5
102c8484:	e8ac0007 	stmia	ip!, {r0, r1, r2}
102c8488:	e58d5000 	str	r5, [sp]
102c848c:	e5cc3000 	strb	r3, [ip]
102c8490:	e58d5004 	str	r5, [sp, #4]
102c8494:	0a000050 	beq	102c85dc <OnURCHandler_BTScan+0x180>
102c8498:	e1a00009 	mov	r0, r9
102c849c:	e28d1008 	add	r1, sp, #8
102c84a0:	e59f7248 	ldr	r7, [pc, #584]	; 102c86f0 <OnURCHandler_BTScan+0x294>
102c84a4:	e12fff37 	blx	r7
102c84a8:	e2508000 	subs	r8, r0, #0
102c84ac:	0a00004c 	beq	102c85e4 <OnURCHandler_BTScan+0x188>
102c84b0:	e59f423c 	ldr	r4, [pc, #572]	; 102c86f4 <OnURCHandler_BTScan+0x298>
102c84b4:	e1a0200d 	mov	r2, sp
102c84b8:	e1a00009 	mov	r0, r9
102c84bc:	e5943000 	ldr	r3, [r4]
102c84c0:	e59f1230 	ldr	r1, [pc, #560]	; 102c86f8 <OnURCHandler_BTScan+0x29c>
102c84c4:	e12fff33 	blx	r3
102c84c8:	e59d2000 	ldr	r2, [sp]
102c84cc:	e1520005 	cmp	r2, r5
102c84d0:	0a000059 	beq	102c863c <OnURCHandler_BTScan+0x1e0>
102c84d4:	e59f3220 	ldr	r3, [pc, #544]	; 102c86fc <OnURCHandler_BTScan+0x2a0>
102c84d8:	e3a00060 	mov	r0, #96	; 0x60
102c84dc:	e12fff33 	blx	r3
102c84e0:	e59fa218 	ldr	sl, [pc, #536]	; 102c8700 <OnURCHandler_BTScan+0x2a4>
102c84e4:	e1a01005 	mov	r1, r5
102c84e8:	e3a02060 	mov	r2, #96	; 0x60
102c84ec:	e1a07000 	mov	r7, r0
102c84f0:	e2878004 	add	r8, r7, #4
102c84f4:	e12fff3a 	blx	sl
102c84f8:	e3e03000 	mvn	r3, #0
102c84fc:	e59d0000 	ldr	r0, [sp]
102c8500:	e287b03c 	add	fp, r7, #60	; 0x3c
102c8504:	e59f11f8 	ldr	r1, [pc, #504]	; 102c8704 <OnURCHandler_BTScan+0x2a8>
102c8508:	e1a02008 	mov	r2, r8
102c850c:	e587004c 	str	r0, [r7, #76]	; 0x4c
102c8510:	e5873050 	str	r3, [r7, #80]	; 0x50
102c8514:	e5873054 	str	r3, [r7, #84]	; 0x54
102c8518:	e5873058 	str	r3, [r7, #88]	; 0x58
102c851c:	e1a00009 	mov	r0, r9
102c8520:	e5943000 	ldr	r3, [r4]
102c8524:	e12fff33 	blx	r3
102c8528:	e1a0200b 	mov	r2, fp
102c852c:	e59f11d4 	ldr	r1, [pc, #468]	; 102c8708 <OnURCHandler_BTScan+0x2ac>
102c8530:	e5943000 	ldr	r3, [r4]
102c8534:	e1a00009 	mov	r0, r9
102c8538:	e12fff33 	blx	r3
102c853c:	e59f31c8 	ldr	r3, [pc, #456]	; 102c870c <OnURCHandler_BTScan+0x2b0>
102c8540:	e1a0000b 	mov	r0, fp
102c8544:	e12fff33 	blx	r3
102c8548:	e59f31c0 	ldr	r3, [pc, #448]	; 102c8710 <OnURCHandler_BTScan+0x2b4>
102c854c:	e2464004 	sub	r4, r6, #4
102c8550:	e1a01000 	mov	r1, r0
102c8554:	e1a0000b 	mov	r0, fp
102c8558:	e12fff33 	blx	r3
102c855c:	e597104c 	ldr	r1, [r7, #76]	; 0x4c
102c8560:	e1a0c004 	mov	ip, r4
102c8564:	e5870000 	str	r0, [r7]
102c8568:	ea000002 	b	102c8578 <OnURCHandler_BTScan+0x11c>
102c856c:	e2855001 	add	r5, r5, #1
102c8570:	e355001e 	cmp	r5, #30
102c8574:	0a000036 	beq	102c8654 <OnURCHandler_BTScan+0x1f8>
102c8578:	e5bc3004 	ldr	r3, [ip, #4]!
102c857c:	e3530000 	cmp	r3, #0
102c8580:	0afffff9 	beq	102c856c <OnURCHandler_BTScan+0x110>
102c8584:	e593e000 	ldr	lr, [r3]
102c8588:	e150000e 	cmp	r0, lr
102c858c:	1afffff6 	bne	102c856c <OnURCHandler_BTScan+0x110>
102c8590:	e3a02038 	mov	r2, #56	; 0x38
102c8594:	e583104c 	str	r1, [r3, #76]	; 0x4c
102c8598:	e2830004 	add	r0, r3, #4
102c859c:	e3a01000 	mov	r1, #0
102c85a0:	e12fff3a 	blx	sl
102c85a4:	e7960105 	ldr	r0, [r6, r5, lsl #2]
102c85a8:	e1a01008 	mov	r1, r8
102c85ac:	e59f3160 	ldr	r3, [pc, #352]	; 102c8714 <OnURCHandler_BTScan+0x2b8>
102c85b0:	e2800004 	add	r0, r0, #4
102c85b4:	e12fff33 	blx	r3
102c85b8:	e3a03000 	mov	r3, #0
102c85bc:	e3a00001 	mov	r0, #1
102c85c0:	e596c090 	ldr	ip, [r6, #144]	; 0x90
102c85c4:	e3a01003 	mov	r1, #3
102c85c8:	e1a02007 	mov	r2, r7
102c85cc:	e12fff3c 	blx	ip
102c85d0:	e1a00007 	mov	r0, r7
102c85d4:	e59f313c 	ldr	r3, [pc, #316]	; 102c8718 <OnURCHandler_BTScan+0x2bc>
102c85d8:	e12fff33 	blx	r3
102c85dc:	e28dd01c 	add	sp, sp, #28
102c85e0:	e8bd8ff0 	pop	{r4, r5, r6, r7, r8, r9, sl, fp, pc}
102c85e4:	e2441020 	sub	r1, r4, #32
102c85e8:	e59f3124 	ldr	r3, [pc, #292]	; 102c8714 <OnURCHandler_BTScan+0x2b8>
102c85ec:	e28d0008 	add	r0, sp, #8
102c85f0:	e12fff33 	blx	r3
102c85f4:	e1a00009 	mov	r0, r9
102c85f8:	e28d1008 	add	r1, sp, #8
102c85fc:	e12fff37 	blx	r7
102c8600:	e3500000 	cmp	r0, #0
102c8604:	0afffff4 	beq	102c85dc <OnURCHandler_BTScan+0x180>
102c8608:	e59f30e4 	ldr	r3, [pc, #228]	; 102c86f4 <OnURCHandler_BTScan+0x298>
102c860c:	e28d2004 	add	r2, sp, #4
102c8610:	e5933000 	ldr	r3, [r3]
102c8614:	e1a00009 	mov	r0, r9
102c8618:	e59f10fc 	ldr	r1, [pc, #252]	; 102c871c <OnURCHandler_BTScan+0x2c0>
102c861c:	e12fff33 	blx	r3
102c8620:	e1a02008 	mov	r2, r8
102c8624:	e596c090 	ldr	ip, [r6, #144]	; 0x90
102c8628:	e3a00001 	mov	r0, #1
102c862c:	e59d1004 	ldr	r1, [sp, #4]
102c8630:	e1a03008 	mov	r3, r8
102c8634:	e12fff3c 	blx	ip
102c8638:	eaffffe7 	b	102c85dc <OnURCHandler_BTScan+0x180>
102c863c:	e596c090 	ldr	ip, [r6, #144]	; 0x90
102c8640:	e3a00001 	mov	r0, #1
102c8644:	e3a01002 	mov	r1, #2
102c8648:	e1a03002 	mov	r3, r2
102c864c:	e12fff3c 	blx	ip
102c8650:	eaffffe1 	b	102c85dc <OnURCHandler_BTScan+0x180>
102c8654:	e596c090 	ldr	ip, [r6, #144]	; 0x90
102c8658:	e59f608c 	ldr	r6, [pc, #140]	; 102c86ec <OnURCHandler_BTScan+0x290>
102c865c:	e3a00001 	mov	r0, #1
102c8660:	e1a02007 	mov	r2, r7
102c8664:	e3a01003 	mov	r1, #3
102c8668:	e3a03000 	mov	r3, #0
102c866c:	e12fff3c 	blx	ip
102c8670:	e1a00006 	mov	r0, r6
102c8674:	e2862074 	add	r2, r6, #116	; 0x74
102c8678:	e3a0c000 	mov	ip, #0
102c867c:	e5b43004 	ldr	r3, [r4, #4]!
102c8680:	e28c1001 	add	r1, ip, #1
102c8684:	e3530000 	cmp	r3, #0
102c8688:	e1a01801 	lsl	r1, r1, #16
102c868c:	11a0c821 	lsrne	ip, r1, #16
102c8690:	e1540002 	cmp	r4, r2
102c8694:	1afffff8 	bne	102c867c <OnURCHandler_BTScan+0x220>
102c8698:	e35c001d 	cmp	ip, #29
102c869c:	9a000003 	bls	102c86b0 <OnURCHandler_BTScan+0x254>
102c86a0:	e1a00007 	mov	r0, r7
102c86a4:	e59f306c 	ldr	r3, [pc, #108]	; 102c8718 <OnURCHandler_BTScan+0x2bc>
102c86a8:	e12fff33 	blx	r3
102c86ac:	eaffffca 	b	102c85dc <OnURCHandler_BTScan+0x180>
102c86b0:	e5961000 	ldr	r1, [r6]
102c86b4:	e3510000 	cmp	r1, #0
102c86b8:	0a000008 	beq	102c86e0 <OnURCHandler_BTScan+0x284>
102c86bc:	e3a03001 	mov	r3, #1
102c86c0:	ea000001 	b	102c86cc <OnURCHandler_BTScan+0x270>
102c86c4:	e353001e 	cmp	r3, #30
102c86c8:	0affffc3 	beq	102c85dc <OnURCHandler_BTScan+0x180>
102c86cc:	e5b02004 	ldr	r2, [r0, #4]!
102c86d0:	e1a01003 	mov	r1, r3
102c86d4:	e3520000 	cmp	r2, #0
102c86d8:	e2833001 	add	r3, r3, #1
102c86dc:	1afffff8 	bne	102c86c4 <OnURCHandler_BTScan+0x268>
102c86e0:	e7867101 	str	r7, [r6, r1, lsl #2]
102c86e4:	eaffffbc 	b	102c85dc <OnURCHandler_BTScan+0x180>
102c86e8:	102d0240 	.word	0x102d0240
102c86ec:	f03d2058 	.word	0xf03d2058
102c86f0:	102ccb6c 	.word	0x102ccb6c
102c86f4:	f03d5b08 	.word	0xf03d5b08
102c86f8:	102d101c 	.word	0x102d101c
102c86fc:	102ce808 	.word	0x102ce808
102c8700:	102cf798 	.word	0x102cf798
102c8704:	102d1044 	.word	0x102d1044
102c8708:	102d1180 	.word	0x102d1180
102c870c:	102cf648 	.word	0x102cf648
102c8710:	102ccfb8 	.word	0x102ccfb8
102c8714:	102cf520 	.word	0x102cf520
102c8718:	102ce880 	.word	0x102ce880
102c871c:	102d0ff0 	.word	0x102d0ff0

102c8720 <RIL_BT_GetDevListInfo>:
102c8720:	e92d40f0 	push	{r4, r5, r6, r7, lr}
102c8724:	e59f4060 	ldr	r4, [pc, #96]	; 102c878c <RIL_BT_GetDevListInfo+0x6c>
102c8728:	e59f7060 	ldr	r7, [pc, #96]	; 102c8790 <RIL_BT_GetDevListInfo+0x70>
102c872c:	e24dd014 	sub	sp, sp, #20
102c8730:	e2846078 	add	r6, r4, #120	; 0x78
102c8734:	e5b4c004 	ldr	ip, [r4, #4]!
102c8738:	e59f0054 	ldr	r0, [pc, #84]	; 102c8794 <RIL_BT_GetDevListInfo+0x74>
102c873c:	e35c0000 	cmp	ip, #0
102c8740:	e28c5004 	add	r5, ip, #4
102c8744:	e28c103c 	add	r1, ip, #60	; 0x3c
102c8748:	0a00000a 	beq	102c8778 <RIL_BT_GetDevListInfo+0x58>
102c874c:	e59ce050 	ldr	lr, [ip, #80]	; 0x50
102c8750:	e59c204c 	ldr	r2, [ip, #76]	; 0x4c
102c8754:	e59c3000 	ldr	r3, [ip]
102c8758:	e58de000 	str	lr, [sp]
102c875c:	e59ce054 	ldr	lr, [ip, #84]	; 0x54
102c8760:	e58de004 	str	lr, [sp, #4]
102c8764:	e59cc058 	ldr	ip, [ip, #88]	; 0x58
102c8768:	e58dc008 	str	ip, [sp, #8]
102c876c:	e58d500c 	str	r5, [sp, #12]
102c8770:	e597c000 	ldr	ip, [r7]
102c8774:	e12fff3c 	blx	ip
102c8778:	e1540006 	cmp	r4, r6
102c877c:	1affffec 	bne	102c8734 <RIL_BT_GetDevListInfo+0x14>
102c8780:	e3a00000 	mov	r0, #0
102c8784:	e28dd014 	add	sp, sp, #20
102c8788:	e8bd80f0 	pop	{r4, r5, r6, r7, pc}
102c878c:	f03d2054 	.word	0xf03d2054
102c8790:	f03d5b04 	.word	0xf03d5b04
102c8794:	102d1198 	.word	0x102d1198

102c8798 <RIL_BT_GetDevListPointer>:
102c8798:	e59f0000 	ldr	r0, [pc]	; 102c87a0 <RIL_BT_GetDevListPointer+0x8>
102c879c:	e12fff1e 	bx	lr
102c87a0:	f03d2058 	.word	0xf03d2058

102c87a4 <RIL_BT_StopScan>:
102c87a4:	e59f3044 	ldr	r3, [pc, #68]	; 102c87f0 <RIL_BT_StopScan+0x4c>
102c87a8:	e52de004 	push	{lr}		; (str lr, [sp, #-4]!)
102c87ac:	e893000f 	ldm	r3, {r0, r1, r2, r3}
102c87b0:	e24dd01c 	sub	sp, sp, #28
102c87b4:	e28dc008 	add	ip, sp, #8
102c87b8:	e8ac0007 	stmia	ip!, {r0, r1, r2}
102c87bc:	e28d0008 	add	r0, sp, #8
102c87c0:	e5cc3000 	strb	r3, [ip]
102c87c4:	e59f3028 	ldr	r3, [pc, #40]	; 102c87f4 <RIL_BT_StopScan+0x50>
102c87c8:	e12fff33 	blx	r3
102c87cc:	e3a03000 	mov	r3, #0
102c87d0:	e1a02003 	mov	r2, r3
102c87d4:	e58d3000 	str	r3, [sp]
102c87d8:	e59fc018 	ldr	ip, [pc, #24]	; 102c87f8 <RIL_BT_StopScan+0x54>
102c87dc:	e1a01000 	mov	r1, r0
102c87e0:	e28d0008 	add	r0, sp, #8
102c87e4:	e12fff3c 	blx	ip
102c87e8:	e28dd01c 	add	sp, sp, #28
102c87ec:	e8bd8000 	ldmfd	sp!, {pc}
102c87f0:	102d0250 	.word	0x102d0250
102c87f4:	102cf648 	.word	0x102cf648
102c87f8:	102cf204 	.word	0x102cf204

102c87fc <RIL_BT_QueryState>:
102c87fc:	e59f204c 	ldr	r2, [pc, #76]	; 102c8850 <RIL_BT_QueryState+0x54>
102c8800:	e92d4010 	push	{r4, lr}
102c8804:	e1a04000 	mov	r4, r0
102c8808:	e892000f 	ldm	r2, {r0, r1, r2, r3}
102c880c:	e24dd018 	sub	sp, sp, #24
102c8810:	e28dc008 	add	ip, sp, #8
102c8814:	e8ac0007 	stmia	ip!, {r0, r1, r2}
102c8818:	e28d0008 	add	r0, sp, #8
102c881c:	e5cc3000 	strb	r3, [ip]
102c8820:	e59f302c 	ldr	r3, [pc, #44]	; 102c8854 <RIL_BT_QueryState+0x58>
102c8824:	e12fff33 	blx	r3
102c8828:	e3a03000 	mov	r3, #0
102c882c:	e58d3000 	str	r3, [sp]
102c8830:	e59f2020 	ldr	r2, [pc, #32]	; 102c8858 <RIL_BT_QueryState+0x5c>
102c8834:	e1a03004 	mov	r3, r4
102c8838:	e59fc01c 	ldr	ip, [pc, #28]	; 102c885c <RIL_BT_QueryState+0x60>
102c883c:	e1a01000 	mov	r1, r0
102c8840:	e28d0008 	add	r0, sp, #8
102c8844:	e12fff3c 	blx	ip
102c8848:	e28dd018 	add	sp, sp, #24
102c884c:	e8bd8010 	pop	{r4, pc}
102c8850:	102d0260 	.word	0x102d0260
102c8854:	102cf648 	.word	0x102cf648
102c8858:	102c71c8 	.word	0x102c71c8
102c885c:	102cf204 	.word	0x102cf204

102c8860 <RIL_BT_StartScan>:
102c8860:	e3500014 	cmp	r0, #20
102c8864:	e92d4070 	push	{r4, r5, r6, lr}
102c8868:	e1a04000 	mov	r4, r0
102c886c:	e24dd020 	sub	sp, sp, #32
102c8870:	e1a05001 	mov	r5, r1
102c8874:	e1a06002 	mov	r6, r2
102c8878:	8a000021 	bhi	102c8904 <RIL_BT_StartScan+0xa4>
102c887c:	e35100ff 	cmp	r1, #255	; 0xff
102c8880:	8a00001f 	bhi	102c8904 <RIL_BT_StartScan+0xa4>
102c8884:	e2423001 	sub	r3, r2, #1
102c8888:	e1a03803 	lsl	r3, r3, #16
102c888c:	e35308fe 	cmp	r3, #16646144	; 0xfe0000
102c8890:	8a00001b 	bhi	102c8904 <RIL_BT_StartScan+0xa4>
102c8894:	ebfffa3c 	bl	102c718c <BT_DevMngmt_Clean>
102c8898:	e3a00000 	mov	r0, #0
102c889c:	ebffffd6 	bl	102c87fc <RIL_BT_QueryState>
102c88a0:	e3a01000 	mov	r1, #0
102c88a4:	e3a02014 	mov	r2, #20
102c88a8:	e59f305c 	ldr	r3, [pc, #92]	; 102c890c <RIL_BT_StartScan+0xac>
102c88ac:	e28d000c 	add	r0, sp, #12
102c88b0:	e12fff33 	blx	r3
102c88b4:	e59f0054 	ldr	r0, [pc, #84]	; 102c8910 <RIL_BT_StartScan+0xb0>
102c88b8:	e59f1054 	ldr	r1, [pc, #84]	; 102c8914 <RIL_BT_StartScan+0xb4>
102c88bc:	e1a02006 	mov	r2, r6
102c88c0:	e1a03004 	mov	r3, r4
102c88c4:	e58d5000 	str	r5, [sp]
102c88c8:	e590c000 	ldr	ip, [r0]
102c88cc:	e28d000c 	add	r0, sp, #12
102c88d0:	e12fff3c 	blx	ip
102c88d4:	e59f303c 	ldr	r3, [pc, #60]	; 102c8918 <RIL_BT_StartScan+0xb8>
102c88d8:	e28d000c 	add	r0, sp, #12
102c88dc:	e12fff33 	blx	r3
102c88e0:	e3a03000 	mov	r3, #0
102c88e4:	e1a02003 	mov	r2, r3
102c88e8:	e58d3000 	str	r3, [sp]
102c88ec:	e59fc028 	ldr	ip, [pc, #40]	; 102c891c <RIL_BT_StartScan+0xbc>
102c88f0:	e1a01000 	mov	r1, r0
102c88f4:	e28d000c 	add	r0, sp, #12
102c88f8:	e12fff3c 	blx	ip
102c88fc:	e28dd020 	add	sp, sp, #32
102c8900:	e8bd8070 	pop	{r4, r5, r6, pc}
102c8904:	e3e00003 	mvn	r0, #3
102c8908:	eafffffb 	b	102c88fc <RIL_BT_StartScan+0x9c>
102c890c:	102cf798 	.word	0x102cf798
102c8910:	f03d5b00 	.word	0xf03d5b00
102c8914:	102d11b8 	.word	0x102d11b8
102c8918:	102cf648 	.word	0x102cf648
102c891c:	102cf204 	.word	0x102cf204

102c8920 <RIL_BT_Initialize>:
102c8920:	e92d4010 	push	{r4, lr}
102c8924:	e2504000 	subs	r4, r0, #0
102c8928:	0a000006 	beq	102c8948 <RIL_BT_Initialize+0x28>
102c892c:	ebfffa16 	bl	102c718c <BT_DevMngmt_Clean>
102c8930:	e59f3018 	ldr	r3, [pc, #24]	; 102c8950 <RIL_BT_Initialize+0x30>
102c8934:	e3a00000 	mov	r0, #0
102c8938:	e5834090 	str	r4, [r3, #144]	; 0x90
102c893c:	ebffffae 	bl	102c87fc <RIL_BT_QueryState>
102c8940:	e3a00000 	mov	r0, #0
102c8944:	e8bd8010 	pop	{r4, pc}
102c8948:	e3e00003 	mvn	r0, #3
102c894c:	e8bd8010 	pop	{r4, pc}
102c8950:	f03d2058 	.word	0xf03d2058

102c8954 <RIL_BT_PairReq>:
102c8954:	e59f308c 	ldr	r3, [pc, #140]	; 102c89e8 <RIL_BT_PairReq+0x94>
102c8958:	e52de004 	push	{lr}		; (str lr, [sp, #-4]!)
102c895c:	e5932000 	ldr	r2, [r3]
102c8960:	e24dd024 	sub	sp, sp, #36	; 0x24
102c8964:	e5921000 	ldr	r1, [r2]
102c8968:	e1500001 	cmp	r0, r1
102c896c:	0a000007 	beq	102c8990 <RIL_BT_PairReq+0x3c>
102c8970:	e283c074 	add	ip, r3, #116	; 0x74
102c8974:	ea000001 	b	102c8980 <RIL_BT_PairReq+0x2c>
102c8978:	e153000c 	cmp	r3, ip
102c897c:	0a000017 	beq	102c89e0 <RIL_BT_PairReq+0x8c>
102c8980:	e5b32004 	ldr	r2, [r3, #4]!
102c8984:	e5921000 	ldr	r1, [r2]
102c8988:	e1500001 	cmp	r0, r1
102c898c:	1afffff9 	bne	102c8978 <RIL_BT_PairReq+0x24>
102c8990:	e592204c 	ldr	r2, [r2, #76]	; 0x4c
102c8994:	e3520000 	cmp	r2, #0
102c8998:	0a000010 	beq	102c89e0 <RIL_BT_PairReq+0x8c>
102c899c:	e59f3048 	ldr	r3, [pc, #72]	; 102c89ec <RIL_BT_PairReq+0x98>
102c89a0:	e59f1048 	ldr	r1, [pc, #72]	; 102c89f0 <RIL_BT_PairReq+0x9c>
102c89a4:	e5933000 	ldr	r3, [r3]
102c89a8:	e28d000c 	add	r0, sp, #12
102c89ac:	e12fff33 	blx	r3
102c89b0:	e59f303c 	ldr	r3, [pc, #60]	; 102c89f4 <RIL_BT_PairReq+0xa0>
102c89b4:	e28d000c 	add	r0, sp, #12
102c89b8:	e12fff33 	blx	r3
102c89bc:	e3a03000 	mov	r3, #0
102c89c0:	e1a02003 	mov	r2, r3
102c89c4:	e58d3000 	str	r3, [sp]
102c89c8:	e59fc028 	ldr	ip, [pc, #40]	; 102c89f8 <RIL_BT_PairReq+0xa4>
102c89cc:	e1a01000 	mov	r1, r0
102c89d0:	e28d000c 	add	r0, sp, #12
102c89d4:	e12fff3c 	blx	ip
102c89d8:	e28dd024 	add	sp, sp, #36	; 0x24
102c89dc:	e8bd8000 	ldmfd	sp!, {pc}
102c89e0:	e3e00003 	mvn	r0, #3
102c89e4:	eafffffb 	b	102c89d8 <RIL_BT_PairReq+0x84>
102c89e8:	f03d2058 	.word	0xf03d2058
102c89ec:	f03d5b00 	.word	0xf03d5b00
102c89f0:	102d11cc 	.word	0x102d11cc
102c89f4:	102cf648 	.word	0x102cf648
102c89f8:	102cf204 	.word	0x102cf204

102c89fc <OnURCHandler_BTPair>:
102c89fc:	e92d45f0 	push	{r4, r5, r6, r7, r8, sl, lr}
102c8a00:	e3a0204c 	mov	r2, #76	; 0x4c
102c8a04:	e24dd09c 	sub	sp, sp, #156	; 0x9c
102c8a08:	e3a04000 	mov	r4, #0
102c8a0c:	e1a01004 	mov	r1, r4
102c8a10:	e59f61b8 	ldr	r6, [pc, #440]	; 102c8bd0 <OnURCHandler_BTPair+0x1d4>
102c8a14:	e1a05000 	mov	r5, r0
102c8a18:	e59f71b4 	ldr	r7, [pc, #436]	; 102c8bd4 <OnURCHandler_BTPair+0x1d8>
102c8a1c:	e08d0002 	add	r0, sp, r2
102c8a20:	e58d4000 	str	r4, [sp]
102c8a24:	e58d4004 	str	r4, [sp, #4]
102c8a28:	e1cd40b8 	strh	r4, [sp, #8]
102c8a2c:	e5cd400a 	strb	r4, [sp, #10]
102c8a30:	e58d402c 	str	r4, [sp, #44]	; 0x2c
102c8a34:	e58d4030 	str	r4, [sp, #48]	; 0x30
102c8a38:	e58d4034 	str	r4, [sp, #52]	; 0x34
102c8a3c:	e58d4038 	str	r4, [sp, #56]	; 0x38
102c8a40:	e58d403c 	str	r4, [sp, #60]	; 0x3c
102c8a44:	e58d4040 	str	r4, [sp, #64]	; 0x40
102c8a48:	e58d4044 	str	r4, [sp, #68]	; 0x44
102c8a4c:	e1cd44b8 	strh	r4, [sp, #72]	; 0x48
102c8a50:	e12fff36 	blx	r6
102c8a54:	e28d0004 	add	r0, sp, #4
102c8a58:	e1a01004 	mov	r1, r4
102c8a5c:	e3a02007 	mov	r2, #7
102c8a60:	e12fff36 	blx	r6
102c8a64:	e5973090 	ldr	r3, [r7, #144]	; 0x90
102c8a68:	e1530004 	cmp	r3, r4
102c8a6c:	0a000030 	beq	102c8b34 <OnURCHandler_BTPair+0x138>
102c8a70:	e59f1160 	ldr	r1, [pc, #352]	; 102c8bd8 <OnURCHandler_BTPair+0x1dc>
102c8a74:	e28d000c 	add	r0, sp, #12
102c8a78:	e59f815c 	ldr	r8, [pc, #348]	; 102c8bdc <OnURCHandler_BTPair+0x1e0>
102c8a7c:	e12fff38 	blx	r8
102c8a80:	e59f6158 	ldr	r6, [pc, #344]	; 102c8be0 <OnURCHandler_BTPair+0x1e4>
102c8a84:	e1a00005 	mov	r0, r5
102c8a88:	e28d100c 	add	r1, sp, #12
102c8a8c:	e12fff36 	blx	r6
102c8a90:	e250a000 	subs	sl, r0, #0
102c8a94:	0a000028 	beq	102c8b3c <OnURCHandler_BTPair+0x140>
102c8a98:	e59f6144 	ldr	r6, [pc, #324]	; 102c8be4 <OnURCHandler_BTPair+0x1e8>
102c8a9c:	e59f1144 	ldr	r1, [pc, #324]	; 102c8be8 <OnURCHandler_BTPair+0x1ec>
102c8aa0:	e28d2050 	add	r2, sp, #80	; 0x50
102c8aa4:	e5963000 	ldr	r3, [r6]
102c8aa8:	e1a00005 	mov	r0, r5
102c8aac:	e12fff33 	blx	r3
102c8ab0:	e28d202c 	add	r2, sp, #44	; 0x2c
102c8ab4:	e5963000 	ldr	r3, [r6]
102c8ab8:	e59f112c 	ldr	r1, [pc, #300]	; 102c8bec <OnURCHandler_BTPair+0x1f0>
102c8abc:	e1a00005 	mov	r0, r5
102c8ac0:	e12fff33 	blx	r3
102c8ac4:	e59f8124 	ldr	r8, [pc, #292]	; 102c8bf0 <OnURCHandler_BTPair+0x1f4>
102c8ac8:	e28d002c 	add	r0, sp, #44	; 0x2c
102c8acc:	e12fff38 	blx	r8
102c8ad0:	e28d2088 	add	r2, sp, #136	; 0x88
102c8ad4:	e5963000 	ldr	r3, [r6]
102c8ad8:	e350000c 	cmp	r0, #12
102c8adc:	e1a00005 	mov	r0, r5
102c8ae0:	0a00002a 	beq	102c8b90 <OnURCHandler_BTPair+0x194>
102c8ae4:	e59f1108 	ldr	r1, [pc, #264]	; 102c8bf4 <OnURCHandler_BTPair+0x1f8>
102c8ae8:	e12fff33 	blx	r3
102c8aec:	e28d2004 	add	r2, sp, #4
102c8af0:	e5963000 	ldr	r3, [r6]
102c8af4:	e59f10fc 	ldr	r1, [pc, #252]	; 102c8bf8 <OnURCHandler_BTPair+0x1fc>
102c8af8:	e1a00005 	mov	r0, r5
102c8afc:	e12fff33 	blx	r3
102c8b00:	e28d0088 	add	r0, sp, #136	; 0x88
102c8b04:	e12fff38 	blx	r8
102c8b08:	e59f30ec 	ldr	r3, [pc, #236]	; 102c8bfc <OnURCHandler_BTPair+0x200>
102c8b0c:	e1a01000 	mov	r1, r0
102c8b10:	e28d0088 	add	r0, sp, #136	; 0x88
102c8b14:	e12fff33 	blx	r3
102c8b18:	e597c090 	ldr	ip, [r7, #144]	; 0x90
102c8b1c:	e3a01005 	mov	r1, #5
102c8b20:	e28d204c 	add	r2, sp, #76	; 0x4c
102c8b24:	e28d3004 	add	r3, sp, #4
102c8b28:	e58d004c 	str	r0, [sp, #76]	; 0x4c
102c8b2c:	e3a00002 	mov	r0, #2
102c8b30:	e12fff3c 	blx	ip
102c8b34:	e28dd09c 	add	sp, sp, #156	; 0x9c
102c8b38:	e8bd85f0 	pop	{r4, r5, r6, r7, r8, sl, pc}
102c8b3c:	e59f10bc 	ldr	r1, [pc, #188]	; 102c8c00 <OnURCHandler_BTPair+0x204>
102c8b40:	e28d000c 	add	r0, sp, #12
102c8b44:	e12fff38 	blx	r8
102c8b48:	e1a00005 	mov	r0, r5
102c8b4c:	e28d100c 	add	r1, sp, #12
102c8b50:	e12fff36 	blx	r6
102c8b54:	e3500000 	cmp	r0, #0
102c8b58:	0afffff5 	beq	102c8b34 <OnURCHandler_BTPair+0x138>
102c8b5c:	e59f3080 	ldr	r3, [pc, #128]	; 102c8be4 <OnURCHandler_BTPair+0x1e8>
102c8b60:	e1a0200d 	mov	r2, sp
102c8b64:	e59f1098 	ldr	r1, [pc, #152]	; 102c8c04 <OnURCHandler_BTPair+0x208>
102c8b68:	e5933000 	ldr	r3, [r3]
102c8b6c:	e1a00005 	mov	r0, r5
102c8b70:	e12fff33 	blx	r3
102c8b74:	e1a0200a 	mov	r2, sl
102c8b78:	e597c090 	ldr	ip, [r7, #144]	; 0x90
102c8b7c:	e3a00002 	mov	r0, #2
102c8b80:	e59d1000 	ldr	r1, [sp]
102c8b84:	e1a0300a 	mov	r3, sl
102c8b88:	e12fff3c 	blx	ip
102c8b8c:	eaffffe8 	b	102c8b34 <OnURCHandler_BTPair+0x138>
102c8b90:	e59f1054 	ldr	r1, [pc, #84]	; 102c8bec <OnURCHandler_BTPair+0x1f0>
102c8b94:	e12fff33 	blx	r3
102c8b98:	e28d0088 	add	r0, sp, #136	; 0x88
102c8b9c:	e12fff38 	blx	r8
102c8ba0:	e59f3054 	ldr	r3, [pc, #84]	; 102c8bfc <OnURCHandler_BTPair+0x200>
102c8ba4:	e1a01000 	mov	r1, r0
102c8ba8:	e28d0088 	add	r0, sp, #136	; 0x88
102c8bac:	e12fff33 	blx	r3
102c8bb0:	e597c090 	ldr	ip, [r7, #144]	; 0x90
102c8bb4:	e3a01004 	mov	r1, #4
102c8bb8:	e28d204c 	add	r2, sp, #76	; 0x4c
102c8bbc:	e1a03004 	mov	r3, r4
102c8bc0:	e58d004c 	str	r0, [sp, #76]	; 0x4c
102c8bc4:	e3a00002 	mov	r0, #2
102c8bc8:	e12fff3c 	blx	ip
102c8bcc:	eaffffd8 	b	102c8b34 <OnURCHandler_BTPair+0x138>
102c8bd0:	102cf798 	.word	0x102cf798
102c8bd4:	f03d2058 	.word	0xf03d2058
102c8bd8:	102d0270 	.word	0x102d0270
102c8bdc:	102cf520 	.word	0x102cf520
102c8be0:	102ccb6c 	.word	0x102ccb6c
102c8be4:	f03d5b08 	.word	0xf03d5b08
102c8be8:	102d1044 	.word	0x102d1044
102c8bec:	102d11dc 	.word	0x102d11dc
102c8bf0:	102cf648 	.word	0x102cf648
102c8bf4:	102d11ec 	.word	0x102d11ec
102c8bf8:	102d1180 	.word	0x102d1180
102c8bfc:	102ccfb8 	.word	0x102ccfb8
102c8c00:	102d0220 	.word	0x102d0220
102c8c04:	102d0ff0 	.word	0x102d0ff0

102c8c08 <RIL_BT_PairConfirm>:
102c8c08:	e92d4010 	push	{r4, lr}
102c8c0c:	e3a0c000 	mov	ip, #0
102c8c10:	e24dd020 	sub	sp, sp, #32
102c8c14:	e3500001 	cmp	r0, #1
102c8c18:	e1a02000 	mov	r2, r0
102c8c1c:	e1a03001 	mov	r3, r1
102c8c20:	e58dc00c 	str	ip, [sp, #12]
102c8c24:	e58dc010 	str	ip, [sp, #16]
102c8c28:	e58dc014 	str	ip, [sp, #20]
102c8c2c:	e58dc018 	str	ip, [sp, #24]
102c8c30:	e58dc01c 	str	ip, [sp, #28]
102c8c34:	8a000019 	bhi	102c8ca0 <RIL_BT_PairConfirm+0x98>
102c8c38:	e151000c 	cmp	r1, ip
102c8c3c:	e28d400c 	add	r4, sp, #12
102c8c40:	0a000010 	beq	102c8c88 <RIL_BT_PairConfirm+0x80>
102c8c44:	e59f105c 	ldr	r1, [pc, #92]	; 102c8ca8 <RIL_BT_PairConfirm+0xa0>
102c8c48:	e1a00004 	mov	r0, r4
102c8c4c:	e591c000 	ldr	ip, [r1]
102c8c50:	e59f1054 	ldr	r1, [pc, #84]	; 102c8cac <RIL_BT_PairConfirm+0xa4>
102c8c54:	e12fff3c 	blx	ip
102c8c58:	e59f3050 	ldr	r3, [pc, #80]	; 102c8cb0 <RIL_BT_PairConfirm+0xa8>
102c8c5c:	e1a00004 	mov	r0, r4
102c8c60:	e12fff33 	blx	r3
102c8c64:	e3a03000 	mov	r3, #0
102c8c68:	e1a02003 	mov	r2, r3
102c8c6c:	e58d3000 	str	r3, [sp]
102c8c70:	e59fc03c 	ldr	ip, [pc, #60]	; 102c8cb4 <RIL_BT_PairConfirm+0xac>
102c8c74:	e1a01000 	mov	r1, r0
102c8c78:	e1a00004 	mov	r0, r4
102c8c7c:	e12fff3c 	blx	ip
102c8c80:	e28dd020 	add	sp, sp, #32
102c8c84:	e8bd8010 	pop	{r4, pc}
102c8c88:	e59f3018 	ldr	r3, [pc, #24]	; 102c8ca8 <RIL_BT_PairConfirm+0xa0>
102c8c8c:	e1a00004 	mov	r0, r4
102c8c90:	e5933000 	ldr	r3, [r3]
102c8c94:	e59f101c 	ldr	r1, [pc, #28]	; 102c8cb8 <RIL_BT_PairConfirm+0xb0>
102c8c98:	e12fff33 	blx	r3
102c8c9c:	eaffffed 	b	102c8c58 <RIL_BT_PairConfirm+0x50>
102c8ca0:	e3e00003 	mvn	r0, #3
102c8ca4:	eafffff5 	b	102c8c80 <RIL_BT_PairConfirm+0x78>
102c8ca8:	f03d5b00 	.word	0xf03d5b00
102c8cac:	102d1204 	.word	0x102d1204
102c8cb0:	102cf648 	.word	0x102cf648
102c8cb4:	102cf204 	.word	0x102cf204
102c8cb8:	102d121c 	.word	0x102d121c

102c8cbc <OnURCHandler_BTPairCnf>:
102c8cbc:	e92d45f0 	push	{r4, r5, r6, r7, r8, sl, lr}
102c8cc0:	e3a05000 	mov	r5, #0
102c8cc4:	e24dd07c 	sub	sp, sp, #124	; 0x7c
102c8cc8:	e59f61e8 	ldr	r6, [pc, #488]	; 102c8eb8 <OnURCHandler_BTPairCnf+0x1fc>
102c8ccc:	e59f31e8 	ldr	r3, [pc, #488]	; 102c8ebc <OnURCHandler_BTPairCnf+0x200>
102c8cd0:	e1a04000 	mov	r4, r0
102c8cd4:	e1a01005 	mov	r1, r5
102c8cd8:	e28d002c 	add	r0, sp, #44	; 0x2c
102c8cdc:	e3a0204c 	mov	r2, #76	; 0x4c
102c8ce0:	e58d5000 	str	r5, [sp]
102c8ce4:	e12fff33 	blx	r3
102c8ce8:	e5963090 	ldr	r3, [r6, #144]	; 0x90
102c8cec:	e1530005 	cmp	r3, r5
102c8cf0:	0a000036 	beq	102c8dd0 <OnURCHandler_BTPairCnf+0x114>
102c8cf4:	e59f11c4 	ldr	r1, [pc, #452]	; 102c8ec0 <OnURCHandler_BTPairCnf+0x204>
102c8cf8:	e28d000c 	add	r0, sp, #12
102c8cfc:	e59f81c0 	ldr	r8, [pc, #448]	; 102c8ec4 <OnURCHandler_BTPairCnf+0x208>
102c8d00:	e12fff38 	blx	r8
102c8d04:	e59f71bc 	ldr	r7, [pc, #444]	; 102c8ec8 <OnURCHandler_BTPairCnf+0x20c>
102c8d08:	e1a00004 	mov	r0, r4
102c8d0c:	e28d100c 	add	r1, sp, #12
102c8d10:	e12fff37 	blx	r7
102c8d14:	e250a000 	subs	sl, r0, #0
102c8d18:	0a00002e 	beq	102c8dd8 <OnURCHandler_BTPairCnf+0x11c>
102c8d1c:	e59f71a8 	ldr	r7, [pc, #424]	; 102c8ecc <OnURCHandler_BTPairCnf+0x210>
102c8d20:	e1a00004 	mov	r0, r4
102c8d24:	e5973000 	ldr	r3, [r7]
102c8d28:	e59f11a0 	ldr	r1, [pc, #416]	; 102c8ed0 <OnURCHandler_BTPairCnf+0x214>
102c8d2c:	e1a0200d 	mov	r2, sp
102c8d30:	e12fff33 	blx	r3
102c8d34:	e59d3000 	ldr	r3, [sp]
102c8d38:	e1530005 	cmp	r3, r5
102c8d3c:	da00003a 	ble	102c8e2c <OnURCHandler_BTPairCnf+0x170>
102c8d40:	e28d2004 	add	r2, sp, #4
102c8d44:	e5973000 	ldr	r3, [r7]
102c8d48:	e59f1184 	ldr	r1, [pc, #388]	; 102c8ed4 <OnURCHandler_BTPairCnf+0x218>
102c8d4c:	e1a00004 	mov	r0, r4
102c8d50:	e12fff33 	blx	r3
102c8d54:	e28d2008 	add	r2, sp, #8
102c8d58:	e5973000 	ldr	r3, [r7]
102c8d5c:	e59f1174 	ldr	r1, [pc, #372]	; 102c8ed8 <OnURCHandler_BTPairCnf+0x21c>
102c8d60:	e1a00004 	mov	r0, r4
102c8d64:	e12fff33 	blx	r3
102c8d68:	e28d2030 	add	r2, sp, #48	; 0x30
102c8d6c:	e5973000 	ldr	r3, [r7]
102c8d70:	e59f1164 	ldr	r1, [pc, #356]	; 102c8edc <OnURCHandler_BTPairCnf+0x220>
102c8d74:	e1a00004 	mov	r0, r4
102c8d78:	e12fff33 	blx	r3
102c8d7c:	e28d2068 	add	r2, sp, #104	; 0x68
102c8d80:	e59f1158 	ldr	r1, [pc, #344]	; 102c8ee0 <OnURCHandler_BTPairCnf+0x224>
102c8d84:	e5973000 	ldr	r3, [r7]
102c8d88:	e1a00004 	mov	r0, r4
102c8d8c:	e12fff33 	blx	r3
102c8d90:	e59f314c 	ldr	r3, [pc, #332]	; 102c8ee4 <OnURCHandler_BTPairCnf+0x228>
102c8d94:	e28d0068 	add	r0, sp, #104	; 0x68
102c8d98:	e12fff33 	blx	r3
102c8d9c:	e59f3144 	ldr	r3, [pc, #324]	; 102c8ee8 <OnURCHandler_BTPairCnf+0x22c>
102c8da0:	e1a01000 	mov	r1, r0
102c8da4:	e28d0068 	add	r0, sp, #104	; 0x68
102c8da8:	e12fff33 	blx	r3
102c8dac:	e58d002c 	str	r0, [sp, #44]	; 0x2c
102c8db0:	e1a00005 	mov	r0, r5
102c8db4:	ebfffe90 	bl	102c87fc <RIL_BT_QueryState>
102c8db8:	e596c090 	ldr	ip, [r6, #144]	; 0x90
102c8dbc:	e3a00003 	mov	r0, #3
102c8dc0:	e3a01006 	mov	r1, #6
102c8dc4:	e28d202c 	add	r2, sp, #44	; 0x2c
102c8dc8:	e1a03005 	mov	r3, r5
102c8dcc:	e12fff3c 	blx	ip
102c8dd0:	e28dd07c 	add	sp, sp, #124	; 0x7c
102c8dd4:	e8bd85f0 	pop	{r4, r5, r6, r7, r8, sl, pc}
102c8dd8:	e59f110c 	ldr	r1, [pc, #268]	; 102c8eec <OnURCHandler_BTPairCnf+0x230>
102c8ddc:	e28d000c 	add	r0, sp, #12
102c8de0:	e12fff38 	blx	r8
102c8de4:	e1a00004 	mov	r0, r4
102c8de8:	e28d100c 	add	r1, sp, #12
102c8dec:	e12fff37 	blx	r7
102c8df0:	e3500000 	cmp	r0, #0
102c8df4:	0afffff5 	beq	102c8dd0 <OnURCHandler_BTPairCnf+0x114>
102c8df8:	e59f30cc 	ldr	r3, [pc, #204]	; 102c8ecc <OnURCHandler_BTPairCnf+0x210>
102c8dfc:	e1a0200d 	mov	r2, sp
102c8e00:	e59f10e8 	ldr	r1, [pc, #232]	; 102c8ef0 <OnURCHandler_BTPairCnf+0x234>
102c8e04:	e5933000 	ldr	r3, [r3]
102c8e08:	e1a00004 	mov	r0, r4
102c8e0c:	e12fff33 	blx	r3
102c8e10:	e1a0200a 	mov	r2, sl
102c8e14:	e596c090 	ldr	ip, [r6, #144]	; 0x90
102c8e18:	e3a00003 	mov	r0, #3
102c8e1c:	e59d1000 	ldr	r1, [sp]
102c8e20:	e1a0300a 	mov	r3, sl
102c8e24:	e12fff3c 	blx	ip
102c8e28:	eaffffe8 	b	102c8dd0 <OnURCHandler_BTPairCnf+0x114>
102c8e2c:	e28d2068 	add	r2, sp, #104	; 0x68
102c8e30:	e59f10bc 	ldr	r1, [pc, #188]	; 102c8ef4 <OnURCHandler_BTPairCnf+0x238>
102c8e34:	e5973000 	ldr	r3, [r7]
102c8e38:	e1a00004 	mov	r0, r4
102c8e3c:	e12fff33 	blx	r3
102c8e40:	e59f309c 	ldr	r3, [pc, #156]	; 102c8ee4 <OnURCHandler_BTPairCnf+0x228>
102c8e44:	e28d0068 	add	r0, sp, #104	; 0x68
102c8e48:	e12fff33 	blx	r3
102c8e4c:	e59f3094 	ldr	r3, [pc, #148]	; 102c8ee8 <OnURCHandler_BTPairCnf+0x22c>
102c8e50:	e1a01000 	mov	r1, r0
102c8e54:	e28d0068 	add	r0, sp, #104	; 0x68
102c8e58:	e12fff33 	blx	r3
102c8e5c:	e5962000 	ldr	r2, [r6]
102c8e60:	e5923000 	ldr	r3, [r2]
102c8e64:	e1500003 	cmp	r0, r3
102c8e68:	e58d002c 	str	r0, [sp, #44]	; 0x2c
102c8e6c:	0a000008 	beq	102c8e94 <OnURCHandler_BTPairCnf+0x1d8>
102c8e70:	e1a03006 	mov	r3, r6
102c8e74:	e286c074 	add	ip, r6, #116	; 0x74
102c8e78:	ea000001 	b	102c8e84 <OnURCHandler_BTPairCnf+0x1c8>
102c8e7c:	e153000c 	cmp	r3, ip
102c8e80:	0a000005 	beq	102c8e9c <OnURCHandler_BTPairCnf+0x1e0>
102c8e84:	e5b32004 	ldr	r2, [r3, #4]!
102c8e88:	e5921000 	ldr	r1, [r2]
102c8e8c:	e1500001 	cmp	r0, r1
102c8e90:	1afffff9 	bne	102c8e7c <OnURCHandler_BTPairCnf+0x1c0>
102c8e94:	e3e03000 	mvn	r3, #0
102c8e98:	e5823050 	str	r3, [r2, #80]	; 0x50
102c8e9c:	e3a02000 	mov	r2, #0
102c8ea0:	e596c090 	ldr	ip, [r6, #144]	; 0x90
102c8ea4:	e3a00003 	mov	r0, #3
102c8ea8:	e3a01007 	mov	r1, #7
102c8eac:	e1a03002 	mov	r3, r2
102c8eb0:	e12fff3c 	blx	ip
102c8eb4:	eaffffc5 	b	102c8dd0 <OnURCHandler_BTPairCnf+0x114>
102c8eb8:	f03d2058 	.word	0xf03d2058
102c8ebc:	102cf798 	.word	0x102cf798
102c8ec0:	102d0280 	.word	0x102d0280
102c8ec4:	102cf520 	.word	0x102cf520
102c8ec8:	102ccb6c 	.word	0x102ccb6c
102c8ecc:	f03d5b08 	.word	0xf03d5b08
102c8ed0:	102d101c 	.word	0x102d101c
102c8ed4:	102d1030 	.word	0x102d1030
102c8ed8:	102d1230 	.word	0x102d1230
102c8edc:	102d1044 	.word	0x102d1044
102c8ee0:	102d124c 	.word	0x102d124c
102c8ee4:	102cf648 	.word	0x102cf648
102c8ee8:	102ccfb8 	.word	0x102ccfb8
102c8eec:	102d0220 	.word	0x102d0220
102c8ef0:	102d1264 	.word	0x102d1264
102c8ef4:	102d11dc 	.word	0x102d11dc

102c8ef8 <RIL_BT_Unpair>:
102c8ef8:	e92d4030 	push	{r4, r5, lr}
102c8efc:	e59f5144 	ldr	r5, [pc, #324]	; 102c9048 <RIL_BT_Unpair+0x150>
102c8f00:	e24dd024 	sub	sp, sp, #36	; 0x24
102c8f04:	e5952000 	ldr	r2, [r5]
102c8f08:	e1a04000 	mov	r4, r0
102c8f0c:	e5923000 	ldr	r3, [r2]
102c8f10:	e1500003 	cmp	r0, r3
102c8f14:	0a000008 	beq	102c8f3c <RIL_BT_Unpair+0x44>
102c8f18:	e1a03005 	mov	r3, r5
102c8f1c:	e2850074 	add	r0, r5, #116	; 0x74
102c8f20:	ea000001 	b	102c8f2c <RIL_BT_Unpair+0x34>
102c8f24:	e1530000 	cmp	r3, r0
102c8f28:	0a000040 	beq	102c9030 <RIL_BT_Unpair+0x138>
102c8f2c:	e5b32004 	ldr	r2, [r3, #4]!
102c8f30:	e5921000 	ldr	r1, [r2]
102c8f34:	e1540001 	cmp	r4, r1
102c8f38:	1afffff9 	bne	102c8f24 <RIL_BT_Unpair+0x2c>
102c8f3c:	e5922050 	ldr	r2, [r2, #80]	; 0x50
102c8f40:	e2423001 	sub	r3, r2, #1
102c8f44:	e3530009 	cmp	r3, #9
102c8f48:	8a000038 	bhi	102c9030 <RIL_BT_Unpair+0x138>
102c8f4c:	e59f30f8 	ldr	r3, [pc, #248]	; 102c904c <RIL_BT_Unpair+0x154>
102c8f50:	e59f10f8 	ldr	r1, [pc, #248]	; 102c9050 <RIL_BT_Unpair+0x158>
102c8f54:	e5933000 	ldr	r3, [r3]
102c8f58:	e28d000c 	add	r0, sp, #12
102c8f5c:	e12fff33 	blx	r3
102c8f60:	e59f30ec 	ldr	r3, [pc, #236]	; 102c9054 <RIL_BT_Unpair+0x15c>
102c8f64:	e28d000c 	add	r0, sp, #12
102c8f68:	e12fff33 	blx	r3
102c8f6c:	e3a03000 	mov	r3, #0
102c8f70:	e1a02003 	mov	r2, r3
102c8f74:	e58d3000 	str	r3, [sp]
102c8f78:	e59fc0d8 	ldr	ip, [pc, #216]	; 102c9058 <RIL_BT_Unpair+0x160>
102c8f7c:	e1a01000 	mov	r1, r0
102c8f80:	e28d000c 	add	r0, sp, #12
102c8f84:	e12fff3c 	blx	ip
102c8f88:	e3500000 	cmp	r0, #0
102c8f8c:	1a000025 	bne	102c9028 <RIL_BT_Unpair+0x130>
102c8f90:	e5952000 	ldr	r2, [r5]
102c8f94:	e5923000 	ldr	r3, [r2]
102c8f98:	e1540003 	cmp	r4, r3
102c8f9c:	0a000025 	beq	102c9038 <RIL_BT_Unpair+0x140>
102c8fa0:	e59f30a0 	ldr	r3, [pc, #160]	; 102c9048 <RIL_BT_Unpair+0x150>
102c8fa4:	e2831074 	add	r1, r3, #116	; 0x74
102c8fa8:	e1a02003 	mov	r2, r3
102c8fac:	ea000001 	b	102c8fb8 <RIL_BT_Unpair+0xc0>
102c8fb0:	e1520001 	cmp	r2, r1
102c8fb4:	0a000005 	beq	102c8fd0 <RIL_BT_Unpair+0xd8>
102c8fb8:	e5b2c004 	ldr	ip, [r2, #4]!
102c8fbc:	e59c5000 	ldr	r5, [ip]
102c8fc0:	e1540005 	cmp	r4, r5
102c8fc4:	1afffff9 	bne	102c8fb0 <RIL_BT_Unpair+0xb8>
102c8fc8:	e3e02000 	mvn	r2, #0
102c8fcc:	e58c2050 	str	r2, [ip, #80]	; 0x50
102c8fd0:	e59f2070 	ldr	r2, [pc, #112]	; 102c9048 <RIL_BT_Unpair+0x150>
102c8fd4:	ea000001 	b	102c8fe0 <RIL_BT_Unpair+0xe8>
102c8fd8:	e1520001 	cmp	r2, r1
102c8fdc:	0a00000b 	beq	102c9010 <RIL_BT_Unpair+0x118>
102c8fe0:	e5b2c004 	ldr	ip, [r2, #4]!
102c8fe4:	e59c5000 	ldr	r5, [ip]
102c8fe8:	e1540005 	cmp	r4, r5
102c8fec:	1afffff9 	bne	102c8fd8 <RIL_BT_Unpair+0xe0>
102c8ff0:	e3e02000 	mvn	r2, #0
102c8ff4:	e58c2054 	str	r2, [ip, #84]	; 0x54
102c8ff8:	e5b32004 	ldr	r2, [r3, #4]!
102c8ffc:	e592c000 	ldr	ip, [r2]
102c9000:	e154000c 	cmp	r4, ip
102c9004:	0a000005 	beq	102c9020 <RIL_BT_Unpair+0x128>
102c9008:	e1530001 	cmp	r3, r1
102c900c:	0a000005 	beq	102c9028 <RIL_BT_Unpair+0x130>
102c9010:	e5b32004 	ldr	r2, [r3, #4]!
102c9014:	e592c000 	ldr	ip, [r2]
102c9018:	e154000c 	cmp	r4, ip
102c901c:	1afffff9 	bne	102c9008 <RIL_BT_Unpair+0x110>
102c9020:	e3e03000 	mvn	r3, #0
102c9024:	e5823058 	str	r3, [r2, #88]	; 0x58
102c9028:	e28dd024 	add	sp, sp, #36	; 0x24
102c902c:	e8bd8030 	pop	{r4, r5, pc}
102c9030:	e3e00003 	mvn	r0, #3
102c9034:	eafffffb 	b	102c9028 <RIL_BT_Unpair+0x130>
102c9038:	e3e03000 	mvn	r3, #0
102c903c:	e5823050 	str	r3, [r2, #80]	; 0x50
102c9040:	e5823054 	str	r3, [r2, #84]	; 0x54
102c9044:	eafffff5 	b	102c9020 <RIL_BT_Unpair+0x128>
102c9048:	f03d2058 	.word	0xf03d2058
102c904c:	f03d5b00 	.word	0xf03d5b00
102c9050:	102d1274 	.word	0x102d1274
102c9054:	102cf648 	.word	0x102cf648
102c9058:	102cf204 	.word	0x102cf204

102c905c <RIL_BT_GetSupportedProfile>:
102c905c:	e59f3114 	ldr	r3, [pc, #276]	; 102c9178 <RIL_BT_GetSupportedProfile+0x11c>
102c9060:	e92d41f0 	push	{r4, r5, r6, r7, r8, lr}
102c9064:	e593c000 	ldr	ip, [r3]
102c9068:	e24dd038 	sub	sp, sp, #56	; 0x38
102c906c:	e59c5000 	ldr	r5, [ip]
102c9070:	e3a04000 	mov	r4, #0
102c9074:	e1a06002 	mov	r6, r2
102c9078:	e1500005 	cmp	r0, r5
102c907c:	e3e02000 	mvn	r2, #0
102c9080:	e1a07001 	mov	r7, r1
102c9084:	e58d4020 	str	r4, [sp, #32]
102c9088:	e58d4024 	str	r4, [sp, #36]	; 0x24
102c908c:	e58d4028 	str	r4, [sp, #40]	; 0x28
102c9090:	e58d402c 	str	r4, [sp, #44]	; 0x2c
102c9094:	e58d4030 	str	r4, [sp, #48]	; 0x30
102c9098:	e58d4034 	str	r4, [sp, #52]	; 0x34
102c909c:	e58d201c 	str	r2, [sp, #28]
102c90a0:	0a000007 	beq	102c90c4 <RIL_BT_GetSupportedProfile+0x68>
102c90a4:	e2835074 	add	r5, r3, #116	; 0x74
102c90a8:	ea000001 	b	102c90b4 <RIL_BT_GetSupportedProfile+0x58>
102c90ac:	e1530005 	cmp	r3, r5
102c90b0:	0a00002e 	beq	102c9170 <RIL_BT_GetSupportedProfile+0x114>
102c90b4:	e5b3c004 	ldr	ip, [r3, #4]!
102c90b8:	e59c4000 	ldr	r4, [ip]
102c90bc:	e1500004 	cmp	r0, r4
102c90c0:	1afffff9 	bne	102c90ac <RIL_BT_GetSupportedProfile+0x50>
102c90c4:	e59c5050 	ldr	r5, [ip, #80]	; 0x50
102c90c8:	e2453001 	sub	r3, r5, #1
102c90cc:	e3530009 	cmp	r3, #9
102c90d0:	8a000026 	bhi	102c9170 <RIL_BT_GetSupportedProfile+0x114>
102c90d4:	e3570000 	cmp	r7, #0
102c90d8:	13560000 	cmpne	r6, #0
102c90dc:	13a04000 	movne	r4, #0
102c90e0:	03a04001 	moveq	r4, #1
102c90e4:	0a000021 	beq	102c9170 <RIL_BT_GetSupportedProfile+0x114>
102c90e8:	e1a08106 	lsl	r8, r6, #2
102c90ec:	e1a01004 	mov	r1, r4
102c90f0:	e1a02008 	mov	r2, r8
102c90f4:	e59f3080 	ldr	r3, [pc, #128]	; 102c917c <RIL_BT_GetSupportedProfile+0x120>
102c90f8:	e1a00007 	mov	r0, r7
102c90fc:	e12fff33 	blx	r3
102c9100:	e59f3078 	ldr	r3, [pc, #120]	; 102c9180 <RIL_BT_GetSupportedProfile+0x124>
102c9104:	e59f1078 	ldr	r1, [pc, #120]	; 102c9184 <RIL_BT_GetSupportedProfile+0x128>
102c9108:	e1a02005 	mov	r2, r5
102c910c:	e5933000 	ldr	r3, [r3]
102c9110:	e28d0008 	add	r0, sp, #8
102c9114:	e12fff33 	blx	r3
102c9118:	e59f3068 	ldr	r3, [pc, #104]	; 102c9188 <RIL_BT_GetSupportedProfile+0x12c>
102c911c:	e28d0008 	add	r0, sp, #8
102c9120:	e12fff33 	blx	r3
102c9124:	e58d4000 	str	r4, [sp]
102c9128:	e59f205c 	ldr	r2, [pc, #92]	; 102c918c <RIL_BT_GetSupportedProfile+0x130>
102c912c:	e28d301c 	add	r3, sp, #28
102c9130:	e59fc058 	ldr	ip, [pc, #88]	; 102c9190 <RIL_BT_GetSupportedProfile+0x134>
102c9134:	e1a01000 	mov	r1, r0
102c9138:	e28d0008 	add	r0, sp, #8
102c913c:	e12fff3c 	blx	ip
102c9140:	e2504000 	subs	r4, r0, #0
102c9144:	1a000006 	bne	102c9164 <RIL_BT_GetSupportedProfile+0x108>
102c9148:	e3560006 	cmp	r6, #6
102c914c:	e1a00007 	mov	r0, r7
102c9150:	e28d101c 	add	r1, sp, #28
102c9154:	91a02008 	movls	r2, r8
102c9158:	83a0201c 	movhi	r2, #28
102c915c:	e59f3030 	ldr	r3, [pc, #48]	; 102c9194 <RIL_BT_GetSupportedProfile+0x138>
102c9160:	e12fff33 	blx	r3
102c9164:	e1a00004 	mov	r0, r4
102c9168:	e28dd038 	add	sp, sp, #56	; 0x38
102c916c:	e8bd81f0 	pop	{r4, r5, r6, r7, r8, pc}
102c9170:	e3e04003 	mvn	r4, #3
102c9174:	eafffffa 	b	102c9164 <RIL_BT_GetSupportedProfile+0x108>
102c9178:	f03d2058 	.word	0xf03d2058
102c917c:	102cf798 	.word	0x102cf798
102c9180:	f03d5b00 	.word	0xf03d5b00
102c9184:	102d1284 	.word	0x102d1284
102c9188:	102cf648 	.word	0x102cf648
102c918c:	102c7824 	.word	0x102c7824
102c9190:	102cf204 	.word	0x102cf204
102c9194:	102cf820 	.word	0x102cf820

102c9198 <RIL_BT_ConnReq>:
102c9198:	e3510006 	cmp	r1, #6
102c919c:	e92d40f0 	push	{r4, r5, r6, r7, lr}
102c91a0:	e1a03001 	mov	r3, r1
102c91a4:	e24dd024 	sub	sp, sp, #36	; 0x24
102c91a8:	e1a07002 	mov	r7, r2
102c91ac:	8a000024 	bhi	102c9244 <RIL_BT_ConnReq+0xac>
102c91b0:	e3520002 	cmp	r2, #2
102c91b4:	8a000022 	bhi	102c9244 <RIL_BT_ConnReq+0xac>
102c91b8:	e59fc08c 	ldr	ip, [pc, #140]	; 102c924c <RIL_BT_ConnReq+0xb4>
102c91bc:	e59c4000 	ldr	r4, [ip]
102c91c0:	e5942000 	ldr	r2, [r4]
102c91c4:	e1500002 	cmp	r0, r2
102c91c8:	0a000007 	beq	102c91ec <RIL_BT_ConnReq+0x54>
102c91cc:	e28c6074 	add	r6, ip, #116	; 0x74
102c91d0:	ea000001 	b	102c91dc <RIL_BT_ConnReq+0x44>
102c91d4:	e15c0006 	cmp	ip, r6
102c91d8:	0a000019 	beq	102c9244 <RIL_BT_ConnReq+0xac>
102c91dc:	e5bc4004 	ldr	r4, [ip, #4]!
102c91e0:	e5945000 	ldr	r5, [r4]
102c91e4:	e1500005 	cmp	r0, r5
102c91e8:	1afffff9 	bne	102c91d4 <RIL_BT_ConnReq+0x3c>
102c91ec:	e5942050 	ldr	r2, [r4, #80]	; 0x50
102c91f0:	e2421001 	sub	r1, r2, #1
102c91f4:	e3510009 	cmp	r1, #9
102c91f8:	8a000011 	bhi	102c9244 <RIL_BT_ConnReq+0xac>
102c91fc:	e59f004c 	ldr	r0, [pc, #76]	; 102c9250 <RIL_BT_ConnReq+0xb8>
102c9200:	e59f104c 	ldr	r1, [pc, #76]	; 102c9254 <RIL_BT_ConnReq+0xbc>
102c9204:	e58d7000 	str	r7, [sp]
102c9208:	e590c000 	ldr	ip, [r0]
102c920c:	e28d000c 	add	r0, sp, #12
102c9210:	e12fff3c 	blx	ip
102c9214:	e59f303c 	ldr	r3, [pc, #60]	; 102c9258 <RIL_BT_ConnReq+0xc0>
102c9218:	e28d000c 	add	r0, sp, #12
102c921c:	e12fff33 	blx	r3
102c9220:	e3a03000 	mov	r3, #0
102c9224:	e1a02003 	mov	r2, r3
102c9228:	e58d3000 	str	r3, [sp]
102c922c:	e59fc028 	ldr	ip, [pc, #40]	; 102c925c <RIL_BT_ConnReq+0xc4>
102c9230:	e1a01000 	mov	r1, r0
102c9234:	e28d000c 	add	r0, sp, #12
102c9238:	e12fff3c 	blx	ip
102c923c:	e28dd024 	add	sp, sp, #36	; 0x24
102c9240:	e8bd80f0 	pop	{r4, r5, r6, r7, pc}
102c9244:	e3e00003 	mvn	r0, #3
102c9248:	eafffffb 	b	102c923c <RIL_BT_ConnReq+0xa4>
102c924c:	f03d2058 	.word	0xf03d2058
102c9250:	f03d5b00 	.word	0xf03d5b00
102c9254:	102d1294 	.word	0x102d1294
102c9258:	102cf648 	.word	0x102cf648
102c925c:	102cf204 	.word	0x102cf204

102c9260 <OnURCHandler_BTConn>:
102c9260:	e92d45f0 	push	{r4, r5, r6, r7, r8, sl, lr}
102c9264:	e3a04000 	mov	r4, #0
102c9268:	e24dd0a4 	sub	sp, sp, #164	; 0xa4
102c926c:	e59f6244 	ldr	r6, [pc, #580]	; 102c94b8 <OnURCHandler_BTConn+0x258>
102c9270:	e59f3244 	ldr	r3, [pc, #580]	; 102c94bc <OnURCHandler_BTConn+0x25c>
102c9274:	e1a05000 	mov	r5, r0
102c9278:	e1a01004 	mov	r1, r4
102c927c:	e28d0054 	add	r0, sp, #84	; 0x54
102c9280:	e3a0204c 	mov	r2, #76	; 0x4c
102c9284:	e58d4004 	str	r4, [sp, #4]
102c9288:	e58d402c 	str	r4, [sp, #44]	; 0x2c
102c928c:	e58d4030 	str	r4, [sp, #48]	; 0x30
102c9290:	e58d4034 	str	r4, [sp, #52]	; 0x34
102c9294:	e58d4038 	str	r4, [sp, #56]	; 0x38
102c9298:	e58d403c 	str	r4, [sp, #60]	; 0x3c
102c929c:	e58d4040 	str	r4, [sp, #64]	; 0x40
102c92a0:	e58d4044 	str	r4, [sp, #68]	; 0x44
102c92a4:	e58d4048 	str	r4, [sp, #72]	; 0x48
102c92a8:	e58d404c 	str	r4, [sp, #76]	; 0x4c
102c92ac:	e58d4050 	str	r4, [sp, #80]	; 0x50
102c92b0:	e12fff33 	blx	r3
102c92b4:	e5963090 	ldr	r3, [r6, #144]	; 0x90
102c92b8:	e1530004 	cmp	r3, r4
102c92bc:	0a000036 	beq	102c939c <OnURCHandler_BTConn+0x13c>
102c92c0:	e59f11f8 	ldr	r1, [pc, #504]	; 102c94c0 <OnURCHandler_BTConn+0x260>
102c92c4:	e28d000c 	add	r0, sp, #12
102c92c8:	e59f81f4 	ldr	r8, [pc, #500]	; 102c94c4 <OnURCHandler_BTConn+0x264>
102c92cc:	e12fff38 	blx	r8
102c92d0:	e59f71f0 	ldr	r7, [pc, #496]	; 102c94c8 <OnURCHandler_BTConn+0x268>
102c92d4:	e1a00005 	mov	r0, r5
102c92d8:	e28d100c 	add	r1, sp, #12
102c92dc:	e12fff37 	blx	r7
102c92e0:	e250a000 	subs	sl, r0, #0
102c92e4:	0a00002e 	beq	102c93a4 <OnURCHandler_BTConn+0x144>
102c92e8:	e59f71dc 	ldr	r7, [pc, #476]	; 102c94cc <OnURCHandler_BTConn+0x26c>
102c92ec:	e1a00005 	mov	r0, r5
102c92f0:	e5973000 	ldr	r3, [r7]
102c92f4:	e59f11d4 	ldr	r1, [pc, #468]	; 102c94d0 <OnURCHandler_BTConn+0x270>
102c92f8:	e28d2004 	add	r2, sp, #4
102c92fc:	e12fff33 	blx	r3
102c9300:	e59d3004 	ldr	r3, [sp, #4]
102c9304:	e1530004 	cmp	r3, r4
102c9308:	da00003a 	ble	102c93f8 <OnURCHandler_BTConn+0x198>
102c930c:	e28d2008 	add	r2, sp, #8
102c9310:	e5973000 	ldr	r3, [r7]
102c9314:	e59f11b8 	ldr	r1, [pc, #440]	; 102c94d4 <OnURCHandler_BTConn+0x274>
102c9318:	e1a00005 	mov	r0, r5
102c931c:	e12fff33 	blx	r3
102c9320:	e28d2058 	add	r2, sp, #88	; 0x58
102c9324:	e5973000 	ldr	r3, [r7]
102c9328:	e59f11a8 	ldr	r1, [pc, #424]	; 102c94d8 <OnURCHandler_BTConn+0x278>
102c932c:	e1a00005 	mov	r0, r5
102c9330:	e12fff33 	blx	r3
102c9334:	e28d2090 	add	r2, sp, #144	; 0x90
102c9338:	e5973000 	ldr	r3, [r7]
102c933c:	e59f1198 	ldr	r1, [pc, #408]	; 102c94dc <OnURCHandler_BTConn+0x27c>
102c9340:	e1a00005 	mov	r0, r5
102c9344:	e12fff33 	blx	r3
102c9348:	e28d202c 	add	r2, sp, #44	; 0x2c
102c934c:	e59f118c 	ldr	r1, [pc, #396]	; 102c94e0 <OnURCHandler_BTConn+0x280>
102c9350:	e5973000 	ldr	r3, [r7]
102c9354:	e1a00005 	mov	r0, r5
102c9358:	e12fff33 	blx	r3
102c935c:	e59f3180 	ldr	r3, [pc, #384]	; 102c94e4 <OnURCHandler_BTConn+0x284>
102c9360:	e28d0090 	add	r0, sp, #144	; 0x90
102c9364:	e12fff33 	blx	r3
102c9368:	e59f3178 	ldr	r3, [pc, #376]	; 102c94e8 <OnURCHandler_BTConn+0x288>
102c936c:	e1a01000 	mov	r1, r0
102c9370:	e28d0090 	add	r0, sp, #144	; 0x90
102c9374:	e12fff33 	blx	r3
102c9378:	e58d0054 	str	r0, [sp, #84]	; 0x54
102c937c:	e1a00004 	mov	r0, r4
102c9380:	ebfffd1d 	bl	102c87fc <RIL_BT_QueryState>
102c9384:	e3a00008 	mov	r0, #8
102c9388:	e596c090 	ldr	ip, [r6, #144]	; 0x90
102c938c:	e1a01000 	mov	r1, r0
102c9390:	e28d2054 	add	r2, sp, #84	; 0x54
102c9394:	e1a03004 	mov	r3, r4
102c9398:	e12fff3c 	blx	ip
102c939c:	e28dd0a4 	add	sp, sp, #164	; 0xa4
102c93a0:	e8bd85f0 	pop	{r4, r5, r6, r7, r8, sl, pc}
102c93a4:	e59f1140 	ldr	r1, [pc, #320]	; 102c94ec <OnURCHandler_BTConn+0x28c>
102c93a8:	e28d000c 	add	r0, sp, #12
102c93ac:	e12fff38 	blx	r8
102c93b0:	e1a00005 	mov	r0, r5
102c93b4:	e28d100c 	add	r1, sp, #12
102c93b8:	e12fff37 	blx	r7
102c93bc:	e3500000 	cmp	r0, #0
102c93c0:	0afffff5 	beq	102c939c <OnURCHandler_BTConn+0x13c>
102c93c4:	e59f3100 	ldr	r3, [pc, #256]	; 102c94cc <OnURCHandler_BTConn+0x26c>
102c93c8:	e59d2004 	ldr	r2, [sp, #4]
102c93cc:	e5933000 	ldr	r3, [r3]
102c93d0:	e1a00005 	mov	r0, r5
102c93d4:	e59f1114 	ldr	r1, [pc, #276]	; 102c94f0 <OnURCHandler_BTConn+0x290>
102c93d8:	e12fff33 	blx	r3
102c93dc:	e1a0200a 	mov	r2, sl
102c93e0:	e596c090 	ldr	ip, [r6, #144]	; 0x90
102c93e4:	e3a00008 	mov	r0, #8
102c93e8:	e59d1004 	ldr	r1, [sp, #4]
102c93ec:	e1a0300a 	mov	r3, sl
102c93f0:	e12fff3c 	blx	ip
102c93f4:	eaffffe8 	b	102c939c <OnURCHandler_BTConn+0x13c>
102c93f8:	e28d2090 	add	r2, sp, #144	; 0x90
102c93fc:	e59f10d8 	ldr	r1, [pc, #216]	; 102c94dc <OnURCHandler_BTConn+0x27c>
102c9400:	e5973000 	ldr	r3, [r7]
102c9404:	e1a00005 	mov	r0, r5
102c9408:	e12fff33 	blx	r3
102c940c:	e59f30d0 	ldr	r3, [pc, #208]	; 102c94e4 <OnURCHandler_BTConn+0x284>
102c9410:	e28d0090 	add	r0, sp, #144	; 0x90
102c9414:	e12fff33 	blx	r3
102c9418:	e59f30c8 	ldr	r3, [pc, #200]	; 102c94e8 <OnURCHandler_BTConn+0x288>
102c941c:	e1a01000 	mov	r1, r0
102c9420:	e28d0090 	add	r0, sp, #144	; 0x90
102c9424:	e12fff33 	blx	r3
102c9428:	e5962000 	ldr	r2, [r6]
102c942c:	e5923000 	ldr	r3, [r2]
102c9430:	e1500003 	cmp	r0, r3
102c9434:	e58d0054 	str	r0, [sp, #84]	; 0x54
102c9438:	0a00001b 	beq	102c94ac <OnURCHandler_BTConn+0x24c>
102c943c:	e1a03006 	mov	r3, r6
102c9440:	e286e074 	add	lr, r6, #116	; 0x74
102c9444:	e1a02006 	mov	r2, r6
102c9448:	ea000001 	b	102c9454 <OnURCHandler_BTConn+0x1f4>
102c944c:	e152000e 	cmp	r2, lr
102c9450:	0a000008 	beq	102c9478 <OnURCHandler_BTConn+0x218>
102c9454:	e5b21004 	ldr	r1, [r2, #4]!
102c9458:	e591c000 	ldr	ip, [r1]
102c945c:	e150000c 	cmp	r0, ip
102c9460:	1afffff9 	bne	102c944c <OnURCHandler_BTConn+0x1ec>
102c9464:	e3e02000 	mvn	r2, #0
102c9468:	e5812054 	str	r2, [r1, #84]	; 0x54
102c946c:	ea000001 	b	102c9478 <OnURCHandler_BTConn+0x218>
102c9470:	e153000e 	cmp	r3, lr
102c9474:	0a000005 	beq	102c9490 <OnURCHandler_BTConn+0x230>
102c9478:	e5b32004 	ldr	r2, [r3, #4]!
102c947c:	e5921000 	ldr	r1, [r2]
102c9480:	e1500001 	cmp	r0, r1
102c9484:	1afffff9 	bne	102c9470 <OnURCHandler_BTConn+0x210>
102c9488:	e3e03000 	mvn	r3, #0
102c948c:	e5823058 	str	r3, [r2, #88]	; 0x58
102c9490:	e3a02000 	mov	r2, #0
102c9494:	e596c090 	ldr	ip, [r6, #144]	; 0x90
102c9498:	e3a00008 	mov	r0, #8
102c949c:	e3a01009 	mov	r1, #9
102c94a0:	e1a03002 	mov	r3, r2
102c94a4:	e12fff3c 	blx	ip
102c94a8:	eaffffbb 	b	102c939c <OnURCHandler_BTConn+0x13c>
102c94ac:	e3e03000 	mvn	r3, #0
102c94b0:	e5823054 	str	r3, [r2, #84]	; 0x54
102c94b4:	eafffff3 	b	102c9488 <OnURCHandler_BTConn+0x228>
102c94b8:	f03d2058 	.word	0xf03d2058
102c94bc:	102cf798 	.word	0x102cf798
102c94c0:	102d0290 	.word	0x102d0290
102c94c4:	102cf520 	.word	0x102cf520
102c94c8:	102ccb6c 	.word	0x102ccb6c
102c94cc:	f03d5b08 	.word	0xf03d5b08
102c94d0:	102d101c 	.word	0x102d101c
102c94d4:	102d1030 	.word	0x102d1030
102c94d8:	102d1044 	.word	0x102d1044
102c94dc:	102d12a8 	.word	0x102d12a8
102c94e0:	102d12cc 	.word	0x102d12cc
102c94e4:	102cf648 	.word	0x102cf648
102c94e8:	102ccfb8 	.word	0x102ccfb8
102c94ec:	102d0220 	.word	0x102d0220
102c94f0:	102d0ff0 	.word	0x102d0ff0

102c94f4 <RIL_BT_SPP_DirectConn>:
102c94f4:	e3500000 	cmp	r0, #0
102c94f8:	e52de004 	push	{lr}		; (str lr, [sp, #-4]!)
102c94fc:	e1a03001 	mov	r3, r1
102c9500:	e24dd024 	sub	sp, sp, #36	; 0x24
102c9504:	e1a0c002 	mov	ip, r2
102c9508:	0a000014 	beq	102c9560 <RIL_BT_SPP_DirectConn+0x6c>
102c950c:	e3510002 	cmp	r1, #2
102c9510:	8a000012 	bhi	102c9560 <RIL_BT_SPP_DirectConn+0x6c>
102c9514:	e1a02000 	mov	r2, r0
102c9518:	e59f0048 	ldr	r0, [pc, #72]	; 102c9568 <RIL_BT_SPP_DirectConn+0x74>
102c951c:	e59f1048 	ldr	r1, [pc, #72]	; 102c956c <RIL_BT_SPP_DirectConn+0x78>
102c9520:	e58dc000 	str	ip, [sp]
102c9524:	e590c000 	ldr	ip, [r0]
102c9528:	e28d000c 	add	r0, sp, #12
102c952c:	e12fff3c 	blx	ip
102c9530:	e59f3038 	ldr	r3, [pc, #56]	; 102c9570 <RIL_BT_SPP_DirectConn+0x7c>
102c9534:	e28d000c 	add	r0, sp, #12
102c9538:	e12fff33 	blx	r3
102c953c:	e3a03000 	mov	r3, #0
102c9540:	e58d3000 	str	r3, [sp]
102c9544:	e59f2028 	ldr	r2, [pc, #40]	; 102c9574 <RIL_BT_SPP_DirectConn+0x80>
102c9548:	e59fc028 	ldr	ip, [pc, #40]	; 102c9578 <RIL_BT_SPP_DirectConn+0x84>
102c954c:	e1a01000 	mov	r1, r0
102c9550:	e28d000c 	add	r0, sp, #12
102c9554:	e12fff3c 	blx	ip
102c9558:	e28dd024 	add	sp, sp, #36	; 0x24
102c955c:	e8bd8000 	ldmfd	sp!, {pc}
102c9560:	e3e00003 	mvn	r0, #3
102c9564:	eafffffb 	b	102c9558 <RIL_BT_SPP_DirectConn+0x64>
102c9568:	f03d5b00 	.word	0xf03d5b00
102c956c:	102d12f8 	.word	0x102d12f8
102c9570:	102cf648 	.word	0x102cf648
102c9574:	102c7168 	.word	0x102c7168
102c9578:	102cf204 	.word	0x102cf204

102c957c <RIL_BT_ConnAccept>:
102c957c:	e3500001 	cmp	r0, #1
102c9580:	e92d4010 	push	{r4, lr}
102c9584:	e1a02001 	mov	r2, r1
102c9588:	e24dd020 	sub	sp, sp, #32
102c958c:	8a000015 	bhi	102c95e8 <RIL_BT_ConnAccept+0x6c>
102c9590:	e3510002 	cmp	r1, #2
102c9594:	8a000013 	bhi	102c95e8 <RIL_BT_ConnAccept+0x6c>
102c9598:	e59f3050 	ldr	r3, [pc, #80]	; 102c95f0 <RIL_BT_ConnAccept+0x74>
102c959c:	e3500001 	cmp	r0, #1
102c95a0:	e28d400c 	add	r4, sp, #12
102c95a4:	059f1048 	ldreq	r1, [pc, #72]	; 102c95f4 <RIL_BT_ConnAccept+0x78>
102c95a8:	159f1048 	ldrne	r1, [pc, #72]	; 102c95f8 <RIL_BT_ConnAccept+0x7c>
102c95ac:	e5933000 	ldr	r3, [r3]
102c95b0:	e1a00004 	mov	r0, r4
102c95b4:	e12fff33 	blx	r3
102c95b8:	e59f303c 	ldr	r3, [pc, #60]	; 102c95fc <RIL_BT_ConnAccept+0x80>
102c95bc:	e1a00004 	mov	r0, r4
102c95c0:	e12fff33 	blx	r3
102c95c4:	e3a03000 	mov	r3, #0
102c95c8:	e1a02003 	mov	r2, r3
102c95cc:	e58d3000 	str	r3, [sp]
102c95d0:	e59fc028 	ldr	ip, [pc, #40]	; 102c9600 <RIL_BT_ConnAccept+0x84>
102c95d4:	e1a01000 	mov	r1, r0
102c95d8:	e1a00004 	mov	r0, r4
102c95dc:	e12fff3c 	blx	ip
102c95e0:	e28dd020 	add	sp, sp, #32
102c95e4:	e8bd8010 	pop	{r4, pc}
102c95e8:	e3e00003 	mvn	r0, #3
102c95ec:	eafffffb 	b	102c95e0 <RIL_BT_ConnAccept+0x64>
102c95f0:	f03d5b00 	.word	0xf03d5b00
102c95f4:	102d1310 	.word	0x102d1310
102c95f8:	102d1320 	.word	0x102d1320
102c95fc:	102cf648 	.word	0x102cf648
102c9600:	102cf204 	.word	0x102cf204

102c9604 <OnURCHandler_BTConnCnf>:
102c9604:	e92d41f0 	push	{r4, r5, r6, r7, r8, lr}
102c9608:	e3a04000 	mov	r4, #0
102c960c:	e24dd0a0 	sub	sp, sp, #160	; 0xa0
102c9610:	e59f52fc 	ldr	r5, [pc, #764]	; 102c9914 <OnURCHandler_BTConnCnf+0x310>
102c9614:	e59f32fc 	ldr	r3, [pc, #764]	; 102c9918 <OnURCHandler_BTConnCnf+0x314>
102c9618:	e1a06000 	mov	r6, r0
102c961c:	e1a01004 	mov	r1, r4
102c9620:	e28d0054 	add	r0, sp, #84	; 0x54
102c9624:	e3a0204c 	mov	r2, #76	; 0x4c
102c9628:	e58d4004 	str	r4, [sp, #4]
102c962c:	e58d402c 	str	r4, [sp, #44]	; 0x2c
102c9630:	e58d4030 	str	r4, [sp, #48]	; 0x30
102c9634:	e58d4034 	str	r4, [sp, #52]	; 0x34
102c9638:	e58d4038 	str	r4, [sp, #56]	; 0x38
102c963c:	e58d403c 	str	r4, [sp, #60]	; 0x3c
102c9640:	e58d4040 	str	r4, [sp, #64]	; 0x40
102c9644:	e58d4044 	str	r4, [sp, #68]	; 0x44
102c9648:	e58d4048 	str	r4, [sp, #72]	; 0x48
102c964c:	e58d404c 	str	r4, [sp, #76]	; 0x4c
102c9650:	e58d4050 	str	r4, [sp, #80]	; 0x50
102c9654:	e12fff33 	blx	r3
102c9658:	e5953090 	ldr	r3, [r5, #144]	; 0x90
102c965c:	e1530004 	cmp	r3, r4
102c9660:	0a000036 	beq	102c9740 <OnURCHandler_BTConnCnf+0x13c>
102c9664:	e59f12b0 	ldr	r1, [pc, #688]	; 102c991c <OnURCHandler_BTConnCnf+0x318>
102c9668:	e28d000c 	add	r0, sp, #12
102c966c:	e59f82ac 	ldr	r8, [pc, #684]	; 102c9920 <OnURCHandler_BTConnCnf+0x31c>
102c9670:	e12fff38 	blx	r8
102c9674:	e59f72a8 	ldr	r7, [pc, #680]	; 102c9924 <OnURCHandler_BTConnCnf+0x320>
102c9678:	e1a00006 	mov	r0, r6
102c967c:	e28d100c 	add	r1, sp, #12
102c9680:	e12fff37 	blx	r7
102c9684:	e1500004 	cmp	r0, r4
102c9688:	0a00002e 	beq	102c9748 <OnURCHandler_BTConnCnf+0x144>
102c968c:	e59f7294 	ldr	r7, [pc, #660]	; 102c9928 <OnURCHandler_BTConnCnf+0x324>
102c9690:	e1a00006 	mov	r0, r6
102c9694:	e5973000 	ldr	r3, [r7]
102c9698:	e59f128c 	ldr	r1, [pc, #652]	; 102c992c <OnURCHandler_BTConnCnf+0x328>
102c969c:	e28d2004 	add	r2, sp, #4
102c96a0:	e12fff33 	blx	r3
102c96a4:	e59d3004 	ldr	r3, [sp, #4]
102c96a8:	e1530004 	cmp	r3, r4
102c96ac:	da000070 	ble	102c9874 <OnURCHandler_BTConnCnf+0x270>
102c96b0:	e28d2008 	add	r2, sp, #8
102c96b4:	e5973000 	ldr	r3, [r7]
102c96b8:	e59f1270 	ldr	r1, [pc, #624]	; 102c9930 <OnURCHandler_BTConnCnf+0x32c>
102c96bc:	e1a00006 	mov	r0, r6
102c96c0:	e12fff33 	blx	r3
102c96c4:	e28d2058 	add	r2, sp, #88	; 0x58
102c96c8:	e5973000 	ldr	r3, [r7]
102c96cc:	e59f1260 	ldr	r1, [pc, #608]	; 102c9934 <OnURCHandler_BTConnCnf+0x330>
102c96d0:	e1a00006 	mov	r0, r6
102c96d4:	e12fff33 	blx	r3
102c96d8:	e28d2090 	add	r2, sp, #144	; 0x90
102c96dc:	e5973000 	ldr	r3, [r7]
102c96e0:	e59f1250 	ldr	r1, [pc, #592]	; 102c9938 <OnURCHandler_BTConnCnf+0x334>
102c96e4:	e1a00006 	mov	r0, r6
102c96e8:	e12fff33 	blx	r3
102c96ec:	e28d202c 	add	r2, sp, #44	; 0x2c
102c96f0:	e59f1244 	ldr	r1, [pc, #580]	; 102c993c <OnURCHandler_BTConnCnf+0x338>
102c96f4:	e5973000 	ldr	r3, [r7]
102c96f8:	e1a00006 	mov	r0, r6
102c96fc:	e12fff33 	blx	r3
102c9700:	e59f3238 	ldr	r3, [pc, #568]	; 102c9940 <OnURCHandler_BTConnCnf+0x33c>
102c9704:	e28d0090 	add	r0, sp, #144	; 0x90
102c9708:	e12fff33 	blx	r3
102c970c:	e59f3230 	ldr	r3, [pc, #560]	; 102c9944 <OnURCHandler_BTConnCnf+0x340>
102c9710:	e1a01000 	mov	r1, r0
102c9714:	e28d0090 	add	r0, sp, #144	; 0x90
102c9718:	e12fff33 	blx	r3
102c971c:	e58d0054 	str	r0, [sp, #84]	; 0x54
102c9720:	e1a00004 	mov	r0, r4
102c9724:	ebfffc34 	bl	102c87fc <RIL_BT_QueryState>
102c9728:	e3a00008 	mov	r0, #8
102c972c:	e595c090 	ldr	ip, [r5, #144]	; 0x90
102c9730:	e1a01000 	mov	r1, r0
102c9734:	e28d2054 	add	r2, sp, #84	; 0x54
102c9738:	e1a03004 	mov	r3, r4
102c973c:	e12fff3c 	blx	ip
102c9740:	e28dd0a0 	add	sp, sp, #160	; 0xa0
102c9744:	e8bd81f0 	pop	{r4, r5, r6, r7, r8, pc}
102c9748:	e59f11f8 	ldr	r1, [pc, #504]	; 102c9948 <OnURCHandler_BTConnCnf+0x344>
102c974c:	e28d000c 	add	r0, sp, #12
102c9750:	e12fff38 	blx	r8
102c9754:	e1a00006 	mov	r0, r6
102c9758:	e28d100c 	add	r1, sp, #12
102c975c:	e12fff37 	blx	r7
102c9760:	e2504000 	subs	r4, r0, #0
102c9764:	0a00001e 	beq	102c97e4 <OnURCHandler_BTConnCnf+0x1e0>
102c9768:	e59f31b8 	ldr	r3, [pc, #440]	; 102c9928 <OnURCHandler_BTConnCnf+0x324>
102c976c:	e28d2090 	add	r2, sp, #144	; 0x90
102c9770:	e59f11d4 	ldr	r1, [pc, #468]	; 102c994c <OnURCHandler_BTConnCnf+0x348>
102c9774:	e5933000 	ldr	r3, [r3]
102c9778:	e1a00006 	mov	r0, r6
102c977c:	e12fff33 	blx	r3
102c9780:	e59f31b8 	ldr	r3, [pc, #440]	; 102c9940 <OnURCHandler_BTConnCnf+0x33c>
102c9784:	e28d0090 	add	r0, sp, #144	; 0x90
102c9788:	e12fff33 	blx	r3
102c978c:	e59f31b0 	ldr	r3, [pc, #432]	; 102c9944 <OnURCHandler_BTConnCnf+0x340>
102c9790:	e1a01000 	mov	r1, r0
102c9794:	e28d0090 	add	r0, sp, #144	; 0x90
102c9798:	e12fff33 	blx	r3
102c979c:	e5952000 	ldr	r2, [r5]
102c97a0:	e5923000 	ldr	r3, [r2]
102c97a4:	e1500003 	cmp	r0, r3
102c97a8:	e58d0054 	str	r0, [sp, #84]	; 0x54
102c97ac:	0a000055 	beq	102c9908 <OnURCHandler_BTConnCnf+0x304>
102c97b0:	e1a03005 	mov	r3, r5
102c97b4:	e285e074 	add	lr, r5, #116	; 0x74
102c97b8:	e1a02005 	mov	r2, r5
102c97bc:	ea000001 	b	102c97c8 <OnURCHandler_BTConnCnf+0x1c4>
102c97c0:	e152000e 	cmp	r2, lr
102c97c4:	0a00001d 	beq	102c9840 <OnURCHandler_BTConnCnf+0x23c>
102c97c8:	e5b21004 	ldr	r1, [r2, #4]!
102c97cc:	e591c000 	ldr	ip, [r1]
102c97d0:	e150000c 	cmp	r0, ip
102c97d4:	1afffff9 	bne	102c97c0 <OnURCHandler_BTConnCnf+0x1bc>
102c97d8:	e3e02000 	mvn	r2, #0
102c97dc:	e5812054 	str	r2, [r1, #84]	; 0x54
102c97e0:	ea000016 	b	102c9840 <OnURCHandler_BTConnCnf+0x23c>
102c97e4:	e59f1164 	ldr	r1, [pc, #356]	; 102c9950 <OnURCHandler_BTConnCnf+0x34c>
102c97e8:	e28d000c 	add	r0, sp, #12
102c97ec:	e12fff38 	blx	r8
102c97f0:	e1a00006 	mov	r0, r6
102c97f4:	e28d100c 	add	r1, sp, #12
102c97f8:	e12fff37 	blx	r7
102c97fc:	e3500000 	cmp	r0, #0
102c9800:	0affffce 	beq	102c9740 <OnURCHandler_BTConnCnf+0x13c>
102c9804:	e59f311c 	ldr	r3, [pc, #284]	; 102c9928 <OnURCHandler_BTConnCnf+0x324>
102c9808:	e59d2004 	ldr	r2, [sp, #4]
102c980c:	e5933000 	ldr	r3, [r3]
102c9810:	e1a00006 	mov	r0, r6
102c9814:	e59f1138 	ldr	r1, [pc, #312]	; 102c9954 <OnURCHandler_BTConnCnf+0x350>
102c9818:	e12fff33 	blx	r3
102c981c:	e1a02004 	mov	r2, r4
102c9820:	e595c090 	ldr	ip, [r5, #144]	; 0x90
102c9824:	e3a00008 	mov	r0, #8
102c9828:	e59d1004 	ldr	r1, [sp, #4]
102c982c:	e1a03004 	mov	r3, r4
102c9830:	e12fff3c 	blx	ip
102c9834:	eaffffc1 	b	102c9740 <OnURCHandler_BTConnCnf+0x13c>
102c9838:	e153000e 	cmp	r3, lr
102c983c:	0a000005 	beq	102c9858 <OnURCHandler_BTConnCnf+0x254>
102c9840:	e5b32004 	ldr	r2, [r3, #4]!
102c9844:	e5921000 	ldr	r1, [r2]
102c9848:	e1500001 	cmp	r0, r1
102c984c:	1afffff9 	bne	102c9838 <OnURCHandler_BTConnCnf+0x234>
102c9850:	e3e03000 	mvn	r3, #0
102c9854:	e5823058 	str	r3, [r2, #88]	; 0x58
102c9858:	e3a02000 	mov	r2, #0
102c985c:	e595c090 	ldr	ip, [r5, #144]	; 0x90
102c9860:	e3a00008 	mov	r0, #8
102c9864:	e3a01009 	mov	r1, #9
102c9868:	e1a03002 	mov	r3, r2
102c986c:	e12fff3c 	blx	ip
102c9870:	eaffffb2 	b	102c9740 <OnURCHandler_BTConnCnf+0x13c>
102c9874:	e28d2090 	add	r2, sp, #144	; 0x90
102c9878:	e59f10b8 	ldr	r1, [pc, #184]	; 102c9938 <OnURCHandler_BTConnCnf+0x334>
102c987c:	e5973000 	ldr	r3, [r7]
102c9880:	e1a00006 	mov	r0, r6
102c9884:	e12fff33 	blx	r3
102c9888:	e59f30b0 	ldr	r3, [pc, #176]	; 102c9940 <OnURCHandler_BTConnCnf+0x33c>
102c988c:	e28d0090 	add	r0, sp, #144	; 0x90
102c9890:	e12fff33 	blx	r3
102c9894:	e59f30a8 	ldr	r3, [pc, #168]	; 102c9944 <OnURCHandler_BTConnCnf+0x340>
102c9898:	e1a01000 	mov	r1, r0
102c989c:	e28d0090 	add	r0, sp, #144	; 0x90
102c98a0:	e12fff33 	blx	r3
102c98a4:	e5952000 	ldr	r2, [r5]
102c98a8:	e5923000 	ldr	r3, [r2]
102c98ac:	e1500003 	cmp	r0, r3
102c98b0:	e58d0054 	str	r0, [sp, #84]	; 0x54
102c98b4:	0a000013 	beq	102c9908 <OnURCHandler_BTConnCnf+0x304>
102c98b8:	e1a03005 	mov	r3, r5
102c98bc:	e285e074 	add	lr, r5, #116	; 0x74
102c98c0:	e1a02005 	mov	r2, r5
102c98c4:	ea000001 	b	102c98d0 <OnURCHandler_BTConnCnf+0x2cc>
102c98c8:	e152000e 	cmp	r2, lr
102c98cc:	0a000008 	beq	102c98f4 <OnURCHandler_BTConnCnf+0x2f0>
102c98d0:	e5b21004 	ldr	r1, [r2, #4]!
102c98d4:	e591c000 	ldr	ip, [r1]
102c98d8:	e150000c 	cmp	r0, ip
102c98dc:	1afffff9 	bne	102c98c8 <OnURCHandler_BTConnCnf+0x2c4>
102c98e0:	e3e02000 	mvn	r2, #0
102c98e4:	e5812054 	str	r2, [r1, #84]	; 0x54
102c98e8:	ea000001 	b	102c98f4 <OnURCHandler_BTConnCnf+0x2f0>
102c98ec:	e153000e 	cmp	r3, lr
102c98f0:	0affffd8 	beq	102c9858 <OnURCHandler_BTConnCnf+0x254>
102c98f4:	e5b32004 	ldr	r2, [r3, #4]!
102c98f8:	e5921000 	ldr	r1, [r2]
102c98fc:	e1500001 	cmp	r0, r1
102c9900:	1afffff9 	bne	102c98ec <OnURCHandler_BTConnCnf+0x2e8>
102c9904:	eaffffd1 	b	102c9850 <OnURCHandler_BTConnCnf+0x24c>
102c9908:	e3e03000 	mvn	r3, #0
102c990c:	e5823054 	str	r3, [r2, #84]	; 0x54
102c9910:	eaffffce 	b	102c9850 <OnURCHandler_BTConnCnf+0x24c>
102c9914:	f03d2058 	.word	0xf03d2058
102c9918:	102cf798 	.word	0x102cf798
102c991c:	102d02a0 	.word	0x102d02a0
102c9920:	102cf520 	.word	0x102cf520
102c9924:	102ccb6c 	.word	0x102ccb6c
102c9928:	f03d5b08 	.word	0xf03d5b08
102c992c:	102d10e4 	.word	0x102d10e4
102c9930:	102d1030 	.word	0x102d1030
102c9934:	102d1330 	.word	0x102d1330
102c9938:	102d12a8 	.word	0x102d12a8
102c993c:	102d12cc 	.word	0x102d12cc
102c9940:	102cf648 	.word	0x102cf648
102c9944:	102ccfb8 	.word	0x102ccfb8
102c9948:	102d02b0 	.word	0x102d02b0
102c994c:	102d1348 	.word	0x102d1348
102c9950:	102d0220 	.word	0x102d0220
102c9954:	102d0ff0 	.word	0x102d0ff0

102c9958 <RIL_BT_Disconnect>:
102c9958:	e59f3094 	ldr	r3, [pc, #148]	; 102c99f4 <RIL_BT_Disconnect+0x9c>
102c995c:	e52de004 	push	{lr}		; (str lr, [sp, #-4]!)
102c9960:	e5932000 	ldr	r2, [r3]
102c9964:	e24dd024 	sub	sp, sp, #36	; 0x24
102c9968:	e5921000 	ldr	r1, [r2]
102c996c:	e1500001 	cmp	r0, r1
102c9970:	0a000007 	beq	102c9994 <RIL_BT_Disconnect+0x3c>
102c9974:	e283c074 	add	ip, r3, #116	; 0x74
102c9978:	ea000001 	b	102c9984 <RIL_BT_Disconnect+0x2c>
102c997c:	e153000c 	cmp	r3, ip
102c9980:	0a000017 	beq	102c99e4 <RIL_BT_Disconnect+0x8c>
102c9984:	e5b32004 	ldr	r2, [r3, #4]!
102c9988:	e5921000 	ldr	r1, [r2]
102c998c:	e1500001 	cmp	r0, r1
102c9990:	1afffff9 	bne	102c997c <RIL_BT_Disconnect+0x24>
102c9994:	e5922054 	ldr	r2, [r2, #84]	; 0x54
102c9998:	e3720001 	cmn	r2, #1
102c999c:	0a000012 	beq	102c99ec <RIL_BT_Disconnect+0x94>
102c99a0:	e59f3050 	ldr	r3, [pc, #80]	; 102c99f8 <RIL_BT_Disconnect+0xa0>
102c99a4:	e59f1050 	ldr	r1, [pc, #80]	; 102c99fc <RIL_BT_Disconnect+0xa4>
102c99a8:	e5933000 	ldr	r3, [r3]
102c99ac:	e28d000c 	add	r0, sp, #12
102c99b0:	e12fff33 	blx	r3
102c99b4:	e59f3044 	ldr	r3, [pc, #68]	; 102c9a00 <RIL_BT_Disconnect+0xa8>
102c99b8:	e28d000c 	add	r0, sp, #12
102c99bc:	e12fff33 	blx	r3
102c99c0:	e3a03000 	mov	r3, #0
102c99c4:	e1a02003 	mov	r2, r3
102c99c8:	e58d3000 	str	r3, [sp]
102c99cc:	e59fc030 	ldr	ip, [pc, #48]	; 102c9a04 <RIL_BT_Disconnect+0xac>
102c99d0:	e1a01000 	mov	r1, r0
102c99d4:	e28d000c 	add	r0, sp, #12
102c99d8:	e12fff3c 	blx	ip
102c99dc:	e28dd024 	add	sp, sp, #36	; 0x24
102c99e0:	e8bd8000 	ldmfd	sp!, {pc}
102c99e4:	e3a02000 	mov	r2, #0
102c99e8:	eaffffec 	b	102c99a0 <RIL_BT_Disconnect+0x48>
102c99ec:	e3e00003 	mvn	r0, #3
102c99f0:	eafffff9 	b	102c99dc <RIL_BT_Disconnect+0x84>
102c99f4:	f03d2058 	.word	0xf03d2058
102c99f8:	f03d5b00 	.word	0xf03d5b00
102c99fc:	102d1360 	.word	0x102d1360
102c9a00:	102cf648 	.word	0x102cf648
102c9a04:	102cf204 	.word	0x102cf204

102c9a08 <OnURCHandler_BTDisconn>:
102c9a08:	e92d41f0 	push	{r4, r5, r6, r7, r8, lr}
102c9a0c:	e3a03000 	mov	r3, #0
102c9a10:	e24dd0a0 	sub	sp, sp, #160	; 0xa0
102c9a14:	e59f41dc 	ldr	r4, [pc, #476]	; 102c9bf8 <OnURCHandler_BTDisconn+0x1f0>
102c9a18:	e1a01003 	mov	r1, r3
102c9a1c:	e58d3008 	str	r3, [sp, #8]
102c9a20:	e58d302c 	str	r3, [sp, #44]	; 0x2c
102c9a24:	e58d3030 	str	r3, [sp, #48]	; 0x30
102c9a28:	e58d3034 	str	r3, [sp, #52]	; 0x34
102c9a2c:	e58d3038 	str	r3, [sp, #56]	; 0x38
102c9a30:	e58d303c 	str	r3, [sp, #60]	; 0x3c
102c9a34:	e58d3040 	str	r3, [sp, #64]	; 0x40
102c9a38:	e58d3044 	str	r3, [sp, #68]	; 0x44
102c9a3c:	e58d3048 	str	r3, [sp, #72]	; 0x48
102c9a40:	e58d304c 	str	r3, [sp, #76]	; 0x4c
102c9a44:	e58d3050 	str	r3, [sp, #80]	; 0x50
102c9a48:	e1a05000 	mov	r5, r0
102c9a4c:	e59f31a8 	ldr	r3, [pc, #424]	; 102c9bfc <OnURCHandler_BTDisconn+0x1f4>
102c9a50:	e28d0054 	add	r0, sp, #84	; 0x54
102c9a54:	e3a0204c 	mov	r2, #76	; 0x4c
102c9a58:	e12fff33 	blx	r3
102c9a5c:	e5943090 	ldr	r3, [r4, #144]	; 0x90
102c9a60:	e3530000 	cmp	r3, #0
102c9a64:	0a000049 	beq	102c9b90 <OnURCHandler_BTDisconn+0x188>
102c9a68:	e59f1190 	ldr	r1, [pc, #400]	; 102c9c00 <OnURCHandler_BTDisconn+0x1f8>
102c9a6c:	e28d000c 	add	r0, sp, #12
102c9a70:	e59f718c 	ldr	r7, [pc, #396]	; 102c9c04 <OnURCHandler_BTDisconn+0x1fc>
102c9a74:	e12fff37 	blx	r7
102c9a78:	e59f6188 	ldr	r6, [pc, #392]	; 102c9c08 <OnURCHandler_BTDisconn+0x200>
102c9a7c:	e1a00005 	mov	r0, r5
102c9a80:	e28d100c 	add	r1, sp, #12
102c9a84:	e12fff36 	blx	r6
102c9a88:	e2508000 	subs	r8, r0, #0
102c9a8c:	0a000041 	beq	102c9b98 <OnURCHandler_BTDisconn+0x190>
102c9a90:	e59f6174 	ldr	r6, [pc, #372]	; 102c9c0c <OnURCHandler_BTDisconn+0x204>
102c9a94:	e28d3004 	add	r3, sp, #4
102c9a98:	e596c000 	ldr	ip, [r6]
102c9a9c:	e59f116c 	ldr	r1, [pc, #364]	; 102c9c10 <OnURCHandler_BTDisconn+0x208>
102c9aa0:	e1a0200d 	mov	r2, sp
102c9aa4:	e1a00005 	mov	r0, r5
102c9aa8:	e12fff3c 	blx	ip
102c9aac:	e59f1160 	ldr	r1, [pc, #352]	; 102c9c14 <OnURCHandler_BTDisconn+0x20c>
102c9ab0:	e28d2058 	add	r2, sp, #88	; 0x58
102c9ab4:	e5963000 	ldr	r3, [r6]
102c9ab8:	e1a00005 	mov	r0, r5
102c9abc:	e12fff33 	blx	r3
102c9ac0:	e59f1150 	ldr	r1, [pc, #336]	; 102c9c18 <OnURCHandler_BTDisconn+0x210>
102c9ac4:	e28d2090 	add	r2, sp, #144	; 0x90
102c9ac8:	e5963000 	ldr	r3, [r6]
102c9acc:	e1a00005 	mov	r0, r5
102c9ad0:	e12fff33 	blx	r3
102c9ad4:	e28d202c 	add	r2, sp, #44	; 0x2c
102c9ad8:	e59f113c 	ldr	r1, [pc, #316]	; 102c9c1c <OnURCHandler_BTDisconn+0x214>
102c9adc:	e5963000 	ldr	r3, [r6]
102c9ae0:	e1a00005 	mov	r0, r5
102c9ae4:	e12fff33 	blx	r3
102c9ae8:	e59f3130 	ldr	r3, [pc, #304]	; 102c9c20 <OnURCHandler_BTDisconn+0x218>
102c9aec:	e28d0090 	add	r0, sp, #144	; 0x90
102c9af0:	e12fff33 	blx	r3
102c9af4:	e59f3128 	ldr	r3, [pc, #296]	; 102c9c24 <OnURCHandler_BTDisconn+0x21c>
102c9af8:	e1a01000 	mov	r1, r0
102c9afc:	e28d0090 	add	r0, sp, #144	; 0x90
102c9b00:	e12fff33 	blx	r3
102c9b04:	e5942000 	ldr	r2, [r4]
102c9b08:	e5923000 	ldr	r3, [r2]
102c9b0c:	e1500003 	cmp	r0, r3
102c9b10:	e58d0054 	str	r0, [sp, #84]	; 0x54
102c9b14:	0a000034 	beq	102c9bec <OnURCHandler_BTDisconn+0x1e4>
102c9b18:	e1a03004 	mov	r3, r4
102c9b1c:	e284e074 	add	lr, r4, #116	; 0x74
102c9b20:	e1a02004 	mov	r2, r4
102c9b24:	ea000001 	b	102c9b30 <OnURCHandler_BTDisconn+0x128>
102c9b28:	e152000e 	cmp	r2, lr
102c9b2c:	0a00000b 	beq	102c9b60 <OnURCHandler_BTDisconn+0x158>
102c9b30:	e5b21004 	ldr	r1, [r2, #4]!
102c9b34:	e591c000 	ldr	ip, [r1]
102c9b38:	e150000c 	cmp	r0, ip
102c9b3c:	1afffff9 	bne	102c9b28 <OnURCHandler_BTDisconn+0x120>
102c9b40:	e3e02000 	mvn	r2, #0
102c9b44:	e5812054 	str	r2, [r1, #84]	; 0x54
102c9b48:	e5b32004 	ldr	r2, [r3, #4]!
102c9b4c:	e5921000 	ldr	r1, [r2]
102c9b50:	e1500001 	cmp	r0, r1
102c9b54:	0a000005 	beq	102c9b70 <OnURCHandler_BTDisconn+0x168>
102c9b58:	e153000e 	cmp	r3, lr
102c9b5c:	0a000005 	beq	102c9b78 <OnURCHandler_BTDisconn+0x170>
102c9b60:	e5b32004 	ldr	r2, [r3, #4]!
102c9b64:	e5921000 	ldr	r1, [r2]
102c9b68:	e1500001 	cmp	r0, r1
102c9b6c:	1afffff9 	bne	102c9b58 <OnURCHandler_BTDisconn+0x150>
102c9b70:	e3e03000 	mvn	r3, #0
102c9b74:	e5823058 	str	r3, [r2, #88]	; 0x58
102c9b78:	e594c090 	ldr	ip, [r4, #144]	; 0x90
102c9b7c:	e3a00007 	mov	r0, #7
102c9b80:	e3a0100c 	mov	r1, #12
102c9b84:	e28d2054 	add	r2, sp, #84	; 0x54
102c9b88:	e3a03000 	mov	r3, #0
102c9b8c:	e12fff3c 	blx	ip
102c9b90:	e28dd0a0 	add	sp, sp, #160	; 0xa0
102c9b94:	e8bd81f0 	pop	{r4, r5, r6, r7, r8, pc}
102c9b98:	e59f1088 	ldr	r1, [pc, #136]	; 102c9c28 <OnURCHandler_BTDisconn+0x220>
102c9b9c:	e28d000c 	add	r0, sp, #12
102c9ba0:	e12fff37 	blx	r7
102c9ba4:	e1a00005 	mov	r0, r5
102c9ba8:	e28d100c 	add	r1, sp, #12
102c9bac:	e12fff36 	blx	r6
102c9bb0:	e3500000 	cmp	r0, #0
102c9bb4:	0afffff5 	beq	102c9b90 <OnURCHandler_BTDisconn+0x188>
102c9bb8:	e59f304c 	ldr	r3, [pc, #76]	; 102c9c0c <OnURCHandler_BTDisconn+0x204>
102c9bbc:	e28d2008 	add	r2, sp, #8
102c9bc0:	e5933000 	ldr	r3, [r3]
102c9bc4:	e1a00005 	mov	r0, r5
102c9bc8:	e59f105c 	ldr	r1, [pc, #92]	; 102c9c2c <OnURCHandler_BTDisconn+0x224>
102c9bcc:	e12fff33 	blx	r3
102c9bd0:	e594c090 	ldr	ip, [r4, #144]	; 0x90
102c9bd4:	e3a00007 	mov	r0, #7
102c9bd8:	e59d1008 	ldr	r1, [sp, #8]
102c9bdc:	e28d2054 	add	r2, sp, #84	; 0x54
102c9be0:	e1a03008 	mov	r3, r8
102c9be4:	e12fff3c 	blx	ip
102c9be8:	eaffffe8 	b	102c9b90 <OnURCHandler_BTDisconn+0x188>
102c9bec:	e3e03000 	mvn	r3, #0
102c9bf0:	e5823054 	str	r3, [r2, #84]	; 0x54
102c9bf4:	eaffffdd 	b	102c9b70 <OnURCHandler_BTDisconn+0x168>
102c9bf8:	f03d2058 	.word	0xf03d2058
102c9bfc:	102cf798 	.word	0x102cf798
102c9c00:	102d02c0 	.word	0x102d02c0
102c9c04:	102cf520 	.word	0x102cf520
102c9c08:	102ccb6c 	.word	0x102ccb6c
102c9c0c:	f03d5b08 	.word	0xf03d5b08
102c9c10:	102d1374 	.word	0x102d1374
102c9c14:	102d138c 	.word	0x102d138c
102c9c18:	102d12a8 	.word	0x102d12a8
102c9c1c:	102d12cc 	.word	0x102d12cc
102c9c20:	102cf648 	.word	0x102cf648
102c9c24:	102ccfb8 	.word	0x102ccfb8
102c9c28:	102d02d0 	.word	0x102d02d0
102c9c2c:	102d13ac 	.word	0x102d13ac

102c9c30 <RIL_BT_SPP_Send>:
102c9c30:	e92d47f0 	push	{r4, r5, r6, r7, r8, r9, sl, lr}
102c9c34:	e2519000 	subs	r9, r1, #0
102c9c38:	e24dd020 	sub	sp, sp, #32
102c9c3c:	e1a08002 	mov	r8, r2
102c9c40:	e1a0a003 	mov	sl, r3
102c9c44:	0a000027 	beq	102c9ce8 <RIL_BT_SPP_Send+0xb8>
102c9c48:	e59f70a0 	ldr	r7, [pc, #160]	; 102c9cf0 <RIL_BT_SPP_Send+0xc0>
102c9c4c:	e5974000 	ldr	r4, [r7]
102c9c50:	e5943000 	ldr	r3, [r4]
102c9c54:	e1500003 	cmp	r0, r3
102c9c58:	0a000008 	beq	102c9c80 <RIL_BT_SPP_Send+0x50>
102c9c5c:	e1a0c007 	mov	ip, r7
102c9c60:	e2876074 	add	r6, r7, #116	; 0x74
102c9c64:	ea000001 	b	102c9c70 <RIL_BT_SPP_Send+0x40>
102c9c68:	e15c0006 	cmp	ip, r6
102c9c6c:	0a00001b 	beq	102c9ce0 <RIL_BT_SPP_Send+0xb0>
102c9c70:	e5bc4004 	ldr	r4, [ip, #4]!
102c9c74:	e5945000 	ldr	r5, [r4]
102c9c78:	e1500005 	cmp	r0, r5
102c9c7c:	1afffff9 	bne	102c9c68 <RIL_BT_SPP_Send+0x38>
102c9c80:	e5942054 	ldr	r2, [r4, #84]	; 0x54
102c9c84:	e3720001 	cmn	r2, #1
102c9c88:	0a000016 	beq	102c9ce8 <RIL_BT_SPP_Send+0xb8>
102c9c8c:	e59f0060 	ldr	r0, [pc, #96]	; 102c9cf4 <RIL_BT_SPP_Send+0xc4>
102c9c90:	e59f1060 	ldr	r1, [pc, #96]	; 102c9cf8 <RIL_BT_SPP_Send+0xc8>
102c9c94:	e590c000 	ldr	ip, [r0]
102c9c98:	e1a03008 	mov	r3, r8
102c9c9c:	e28d000c 	add	r0, sp, #12
102c9ca0:	e5879088 	str	r9, [r7, #136]	; 0x88
102c9ca4:	e587808c 	str	r8, [r7, #140]	; 0x8c
102c9ca8:	e12fff3c 	blx	ip
102c9cac:	e59f3048 	ldr	r3, [pc, #72]	; 102c9cfc <RIL_BT_SPP_Send+0xcc>
102c9cb0:	e28d000c 	add	r0, sp, #12
102c9cb4:	e12fff33 	blx	r3
102c9cb8:	e3a03000 	mov	r3, #0
102c9cbc:	e58d3000 	str	r3, [sp]
102c9cc0:	e59f2038 	ldr	r2, [pc, #56]	; 102c9d00 <RIL_BT_SPP_Send+0xd0>
102c9cc4:	e1a0300a 	mov	r3, sl
102c9cc8:	e59fc034 	ldr	ip, [pc, #52]	; 102c9d04 <RIL_BT_SPP_Send+0xd4>
102c9ccc:	e1a01000 	mov	r1, r0
102c9cd0:	e28d000c 	add	r0, sp, #12
102c9cd4:	e12fff3c 	blx	ip
102c9cd8:	e28dd020 	add	sp, sp, #32
102c9cdc:	e8bd87f0 	pop	{r4, r5, r6, r7, r8, r9, sl, pc}
102c9ce0:	e3a02000 	mov	r2, #0
102c9ce4:	eaffffe8 	b	102c9c8c <RIL_BT_SPP_Send+0x5c>
102c9ce8:	e3e00003 	mvn	r0, #3
102c9cec:	eafffff9 	b	102c9cd8 <RIL_BT_SPP_Send+0xa8>
102c9cf0:	f03d2058 	.word	0xf03d2058
102c9cf4:	f03d5b00 	.word	0xf03d5b00
102c9cf8:	102d13bc 	.word	0x102d13bc
102c9cfc:	102cf648 	.word	0x102cf648
102c9d00:	102c7bf0 	.word	0x102c7bf0
102c9d04:	102cf204 	.word	0x102cf204

102c9d08 <RIL_BT_SPP_Read>:
102c9d08:	e92d47f0 	push	{r4, r5, r6, r7, r8, r9, sl, lr}
102c9d0c:	e2519000 	subs	r9, r1, #0
102c9d10:	e24dd020 	sub	sp, sp, #32
102c9d14:	e1a08002 	mov	r8, r2
102c9d18:	e1a0a003 	mov	sl, r3
102c9d1c:	0a000028 	beq	102c9dc4 <RIL_BT_SPP_Read+0xbc>
102c9d20:	e59f70a4 	ldr	r7, [pc, #164]	; 102c9dcc <RIL_BT_SPP_Read+0xc4>
102c9d24:	e5974000 	ldr	r4, [r7]
102c9d28:	e5943000 	ldr	r3, [r4]
102c9d2c:	e1500003 	cmp	r0, r3
102c9d30:	0a000008 	beq	102c9d58 <RIL_BT_SPP_Read+0x50>
102c9d34:	e1a0c007 	mov	ip, r7
102c9d38:	e2876074 	add	r6, r7, #116	; 0x74
102c9d3c:	ea000001 	b	102c9d48 <RIL_BT_SPP_Read+0x40>
102c9d40:	e15c0006 	cmp	ip, r6
102c9d44:	0a00001c 	beq	102c9dbc <RIL_BT_SPP_Read+0xb4>
102c9d48:	e5bc4004 	ldr	r4, [ip, #4]!
102c9d4c:	e5945000 	ldr	r5, [r4]
102c9d50:	e1500005 	cmp	r0, r5
102c9d54:	1afffff9 	bne	102c9d40 <RIL_BT_SPP_Read+0x38>
102c9d58:	e5942054 	ldr	r2, [r4, #84]	; 0x54
102c9d5c:	e3720001 	cmn	r2, #1
102c9d60:	0a000017 	beq	102c9dc4 <RIL_BT_SPP_Read+0xbc>
102c9d64:	e59f0064 	ldr	r0, [pc, #100]	; 102c9dd0 <RIL_BT_SPP_Read+0xc8>
102c9d68:	e3a04000 	mov	r4, #0
102c9d6c:	e590c000 	ldr	ip, [r0]
102c9d70:	e59f105c 	ldr	r1, [pc, #92]	; 102c9dd4 <RIL_BT_SPP_Read+0xcc>
102c9d74:	e1a03008 	mov	r3, r8
102c9d78:	e5874080 	str	r4, [r7, #128]	; 0x80
102c9d7c:	e28d000c 	add	r0, sp, #12
102c9d80:	e587907c 	str	r9, [r7, #124]	; 0x7c
102c9d84:	e5878094 	str	r8, [r7, #148]	; 0x94
102c9d88:	e12fff3c 	blx	ip
102c9d8c:	e59f3044 	ldr	r3, [pc, #68]	; 102c9dd8 <RIL_BT_SPP_Read+0xd0>
102c9d90:	e28d000c 	add	r0, sp, #12
102c9d94:	e12fff33 	blx	r3
102c9d98:	e58d4000 	str	r4, [sp]
102c9d9c:	e59f2038 	ldr	r2, [pc, #56]	; 102c9ddc <RIL_BT_SPP_Read+0xd4>
102c9da0:	e1a0300a 	mov	r3, sl
102c9da4:	e59fc034 	ldr	ip, [pc, #52]	; 102c9de0 <RIL_BT_SPP_Read+0xd8>
102c9da8:	e1a01000 	mov	r1, r0
102c9dac:	e28d000c 	add	r0, sp, #12
102c9db0:	e12fff3c 	blx	ip
102c9db4:	e28dd020 	add	sp, sp, #32
102c9db8:	e8bd87f0 	pop	{r4, r5, r6, r7, r8, r9, sl, pc}
102c9dbc:	e3a02000 	mov	r2, #0
102c9dc0:	eaffffe7 	b	102c9d64 <RIL_BT_SPP_Read+0x5c>
102c9dc4:	e3e00003 	mvn	r0, #3
102c9dc8:	eafffff9 	b	102c9db4 <RIL_BT_SPP_Read+0xac>
102c9dcc:	f03d2058 	.word	0xf03d2058
102c9dd0:	f03d5b00 	.word	0xf03d5b00
102c9dd4:	102d13d0 	.word	0x102d13d0
102c9dd8:	102cf648 	.word	0x102cf648
102c9ddc:	102c770c 	.word	0x102c770c
102c9de0:	102cf204 	.word	0x102cf204

102c9de4 <OnURCHandler_BTIndication>:
102c9de4:	e92d41f0 	push	{r4, r5, r6, r7, r8, lr}
102c9de8:	e3a04000 	mov	r4, #0
102c9dec:	e24dd0a8 	sub	sp, sp, #168	; 0xa8
102c9df0:	e1a01004 	mov	r1, r4
102c9df4:	e3a0204c 	mov	r2, #76	; 0x4c
102c9df8:	e59f5368 	ldr	r5, [pc, #872]	; 102ca168 <OnURCHandler_BTIndication+0x384>
102c9dfc:	e1a06000 	mov	r6, r0
102c9e00:	e59f7364 	ldr	r7, [pc, #868]	; 102ca16c <OnURCHandler_BTIndication+0x388>
102c9e04:	e28d005c 	add	r0, sp, #92	; 0x5c
102c9e08:	e58d4008 	str	r4, [sp, #8]
102c9e0c:	e1cd40bc 	strh	r4, [sp, #12]
102c9e10:	e5cd400e 	strb	r4, [sp, #14]
102c9e14:	e58d403c 	str	r4, [sp, #60]	; 0x3c
102c9e18:	e58d4040 	str	r4, [sp, #64]	; 0x40
102c9e1c:	e58d4044 	str	r4, [sp, #68]	; 0x44
102c9e20:	e58d4048 	str	r4, [sp, #72]	; 0x48
102c9e24:	e58d404c 	str	r4, [sp, #76]	; 0x4c
102c9e28:	e58d4050 	str	r4, [sp, #80]	; 0x50
102c9e2c:	e58d4054 	str	r4, [sp, #84]	; 0x54
102c9e30:	e1cd45b8 	strh	r4, [sp, #88]	; 0x58
102c9e34:	e12fff35 	blx	r5
102c9e38:	e28d0010 	add	r0, sp, #16
102c9e3c:	e1a01004 	mov	r1, r4
102c9e40:	e3a0200a 	mov	r2, #10
102c9e44:	e12fff35 	blx	r5
102c9e48:	e5973090 	ldr	r3, [r7, #144]	; 0x90
102c9e4c:	e1530004 	cmp	r3, r4
102c9e50:	0a000009 	beq	102c9e7c <OnURCHandler_BTIndication+0x98>
102c9e54:	e59f1314 	ldr	r1, [pc, #788]	; 102ca170 <OnURCHandler_BTIndication+0x38c>
102c9e58:	e59f3314 	ldr	r3, [pc, #788]	; 102ca174 <OnURCHandler_BTIndication+0x390>
102c9e5c:	e28d001c 	add	r0, sp, #28
102c9e60:	e12fff33 	blx	r3
102c9e64:	e1a00006 	mov	r0, r6
102c9e68:	e28d101c 	add	r1, sp, #28
102c9e6c:	e59f3304 	ldr	r3, [pc, #772]	; 102ca178 <OnURCHandler_BTIndication+0x394>
102c9e70:	e12fff33 	blx	r3
102c9e74:	e1500004 	cmp	r0, r4
102c9e78:	1a000001 	bne	102c9e84 <OnURCHandler_BTIndication+0xa0>
102c9e7c:	e28dd0a8 	add	sp, sp, #168	; 0xa8
102c9e80:	e8bd81f0 	pop	{r4, r5, r6, r7, r8, pc}
102c9e84:	e59f42f0 	ldr	r4, [pc, #752]	; 102ca17c <OnURCHandler_BTIndication+0x398>
102c9e88:	e59f12f0 	ldr	r1, [pc, #752]	; 102ca180 <OnURCHandler_BTIndication+0x39c>
102c9e8c:	e28d2010 	add	r2, sp, #16
102c9e90:	e5943000 	ldr	r3, [r4]
102c9e94:	e1a00006 	mov	r0, r6
102c9e98:	e12fff33 	blx	r3
102c9e9c:	e59f52e0 	ldr	r5, [pc, #736]	; 102ca184 <OnURCHandler_BTIndication+0x3a0>
102c9ea0:	e28d0010 	add	r0, sp, #16
102c9ea4:	e59f12dc 	ldr	r1, [pc, #732]	; 102ca188 <OnURCHandler_BTIndication+0x3a4>
102c9ea8:	e12fff35 	blx	r5
102c9eac:	e2508000 	subs	r8, r0, #0
102c9eb0:	1a000021 	bne	102c9f3c <OnURCHandler_BTIndication+0x158>
102c9eb4:	e28d203c 	add	r2, sp, #60	; 0x3c
102c9eb8:	e5943000 	ldr	r3, [r4]
102c9ebc:	e59f12c8 	ldr	r1, [pc, #712]	; 102ca18c <OnURCHandler_BTIndication+0x3a8>
102c9ec0:	e1a00006 	mov	r0, r6
102c9ec4:	e12fff33 	blx	r3
102c9ec8:	e59f52c0 	ldr	r5, [pc, #704]	; 102ca190 <OnURCHandler_BTIndication+0x3ac>
102c9ecc:	e28d003c 	add	r0, sp, #60	; 0x3c
102c9ed0:	e12fff35 	blx	r5
102c9ed4:	e28d2098 	add	r2, sp, #152	; 0x98
102c9ed8:	e5943000 	ldr	r3, [r4]
102c9edc:	e350000c 	cmp	r0, #12
102c9ee0:	e1a00006 	mov	r0, r6
102c9ee4:	0a00008a 	beq	102ca114 <OnURCHandler_BTIndication+0x330>
102c9ee8:	e59f12a4 	ldr	r1, [pc, #676]	; 102ca194 <OnURCHandler_BTIndication+0x3b0>
102c9eec:	e12fff33 	blx	r3
102c9ef0:	e28d2008 	add	r2, sp, #8
102c9ef4:	e5943000 	ldr	r3, [r4]
102c9ef8:	e59f1298 	ldr	r1, [pc, #664]	; 102ca198 <OnURCHandler_BTIndication+0x3b4>
102c9efc:	e1a00006 	mov	r0, r6
102c9f00:	e12fff33 	blx	r3
102c9f04:	e28d0098 	add	r0, sp, #152	; 0x98
102c9f08:	e12fff35 	blx	r5
102c9f0c:	e59f3288 	ldr	r3, [pc, #648]	; 102ca19c <OnURCHandler_BTIndication+0x3b8>
102c9f10:	e1a01000 	mov	r1, r0
102c9f14:	e28d0098 	add	r0, sp, #152	; 0x98
102c9f18:	e12fff33 	blx	r3
102c9f1c:	e597c090 	ldr	ip, [r7, #144]	; 0x90
102c9f20:	e28d205c 	add	r2, sp, #92	; 0x5c
102c9f24:	e28d3008 	add	r3, sp, #8
102c9f28:	e58d005c 	str	r0, [sp, #92]	; 0x5c
102c9f2c:	e3a00005 	mov	r0, #5
102c9f30:	e1a01000 	mov	r1, r0
102c9f34:	e12fff3c 	blx	ip
102c9f38:	eaffffcf 	b	102c9e7c <OnURCHandler_BTIndication+0x98>
102c9f3c:	e28d0010 	add	r0, sp, #16
102c9f40:	e59f1258 	ldr	r1, [pc, #600]	; 102ca1a0 <OnURCHandler_BTIndication+0x3bc>
102c9f44:	e12fff35 	blx	r5
102c9f48:	e2508000 	subs	r8, r0, #0
102c9f4c:	1a000018 	bne	102c9fb4 <OnURCHandler_BTIndication+0x1d0>
102c9f50:	e28d2060 	add	r2, sp, #96	; 0x60
102c9f54:	e5943000 	ldr	r3, [r4]
102c9f58:	e1a00006 	mov	r0, r6
102c9f5c:	e59f1240 	ldr	r1, [pc, #576]	; 102ca1a4 <OnURCHandler_BTIndication+0x3c0>
102c9f60:	e12fff33 	blx	r3
102c9f64:	e28d2098 	add	r2, sp, #152	; 0x98
102c9f68:	e5943000 	ldr	r3, [r4]
102c9f6c:	e59f1220 	ldr	r1, [pc, #544]	; 102ca194 <OnURCHandler_BTIndication+0x3b0>
102c9f70:	e1a00006 	mov	r0, r6
102c9f74:	e12fff33 	blx	r3
102c9f78:	e28d0098 	add	r0, sp, #152	; 0x98
102c9f7c:	e59f320c 	ldr	r3, [pc, #524]	; 102ca190 <OnURCHandler_BTIndication+0x3ac>
102c9f80:	e12fff33 	blx	r3
102c9f84:	e59f3210 	ldr	r3, [pc, #528]	; 102ca19c <OnURCHandler_BTIndication+0x3b8>
102c9f88:	e1a01000 	mov	r1, r0
102c9f8c:	e28d0098 	add	r0, sp, #152	; 0x98
102c9f90:	e12fff33 	blx	r3
102c9f94:	e597c090 	ldr	ip, [r7, #144]	; 0x90
102c9f98:	e3a0100a 	mov	r1, #10
102c9f9c:	e28d205c 	add	r2, sp, #92	; 0x5c
102c9fa0:	e1a03008 	mov	r3, r8
102c9fa4:	e58d005c 	str	r0, [sp, #92]	; 0x5c
102c9fa8:	e3a00006 	mov	r0, #6
102c9fac:	e12fff3c 	blx	ip
102c9fb0:	eaffffb1 	b	102c9e7c <OnURCHandler_BTIndication+0x98>
102c9fb4:	e28d0010 	add	r0, sp, #16
102c9fb8:	e59f11e8 	ldr	r1, [pc, #488]	; 102ca1a8 <OnURCHandler_BTIndication+0x3c4>
102c9fbc:	e12fff35 	blx	r5
102c9fc0:	e3500000 	cmp	r0, #0
102c9fc4:	0a000020 	beq	102ca04c <OnURCHandler_BTIndication+0x268>
102c9fc8:	e28d0010 	add	r0, sp, #16
102c9fcc:	e59f11d8 	ldr	r1, [pc, #472]	; 102ca1ac <OnURCHandler_BTIndication+0x3c8>
102c9fd0:	e12fff35 	blx	r5
102c9fd4:	e3500000 	cmp	r0, #0
102c9fd8:	1affffa7 	bne	102c9e7c <OnURCHandler_BTIndication+0x98>
102c9fdc:	e5943000 	ldr	r3, [r4]
102c9fe0:	e28d2004 	add	r2, sp, #4
102c9fe4:	e1a00006 	mov	r0, r6
102c9fe8:	e59f11c0 	ldr	r1, [pc, #448]	; 102ca1b0 <OnURCHandler_BTIndication+0x3cc>
102c9fec:	e12fff33 	blx	r3
102c9ff0:	e5972000 	ldr	r2, [r7]
102c9ff4:	e59d0004 	ldr	r0, [sp, #4]
102c9ff8:	e5923054 	ldr	r3, [r2, #84]	; 0x54
102c9ffc:	e1500003 	cmp	r0, r3
102ca000:	0a000008 	beq	102ca028 <OnURCHandler_BTIndication+0x244>
102ca004:	e1a03007 	mov	r3, r7
102ca008:	e287c074 	add	ip, r7, #116	; 0x74
102ca00c:	ea000001 	b	102ca018 <OnURCHandler_BTIndication+0x234>
102ca010:	e153000c 	cmp	r3, ip
102ca014:	0a00004e 	beq	102ca154 <OnURCHandler_BTIndication+0x370>
102ca018:	e5b32004 	ldr	r2, [r3, #4]!
102ca01c:	e5921054 	ldr	r1, [r2, #84]	; 0x54
102ca020:	e1500001 	cmp	r0, r1
102ca024:	1afffff9 	bne	102ca010 <OnURCHandler_BTIndication+0x22c>
102ca028:	e5923000 	ldr	r3, [r2]
102ca02c:	e3a00004 	mov	r0, #4
102ca030:	e58d305c 	str	r3, [sp, #92]	; 0x5c
102ca034:	e597c090 	ldr	ip, [r7, #144]	; 0x90
102ca038:	e3a0100d 	mov	r1, #13
102ca03c:	e08d2000 	add	r2, sp, r0
102ca040:	e28d305c 	add	r3, sp, #92	; 0x5c
102ca044:	e12fff3c 	blx	ip
102ca048:	eaffff8b 	b	102c9e7c <OnURCHandler_BTIndication+0x98>
102ca04c:	e59f1160 	ldr	r1, [pc, #352]	; 102ca1b4 <OnURCHandler_BTIndication+0x3d0>
102ca050:	e28d2098 	add	r2, sp, #152	; 0x98
102ca054:	e5943000 	ldr	r3, [r4]
102ca058:	e1a00006 	mov	r0, r6
102ca05c:	e12fff33 	blx	r3
102ca060:	e28d2060 	add	r2, sp, #96	; 0x60
102ca064:	e59f114c 	ldr	r1, [pc, #332]	; 102ca1b8 <OnURCHandler_BTIndication+0x3d4>
102ca068:	e5943000 	ldr	r3, [r4]
102ca06c:	e1a00006 	mov	r0, r6
102ca070:	e12fff33 	blx	r3
102ca074:	e59f3114 	ldr	r3, [pc, #276]	; 102ca190 <OnURCHandler_BTIndication+0x3ac>
102ca078:	e28d0098 	add	r0, sp, #152	; 0x98
102ca07c:	e12fff33 	blx	r3
102ca080:	e59f3114 	ldr	r3, [pc, #276]	; 102ca19c <OnURCHandler_BTIndication+0x3b8>
102ca084:	e1a01000 	mov	r1, r0
102ca088:	e28d0098 	add	r0, sp, #152	; 0x98
102ca08c:	e12fff33 	blx	r3
102ca090:	e5972000 	ldr	r2, [r7]
102ca094:	e5923000 	ldr	r3, [r2]
102ca098:	e1500003 	cmp	r0, r3
102ca09c:	e58d005c 	str	r0, [sp, #92]	; 0x5c
102ca0a0:	0a00002d 	beq	102ca15c <OnURCHandler_BTIndication+0x378>
102ca0a4:	e1a03007 	mov	r3, r7
102ca0a8:	e287e074 	add	lr, r7, #116	; 0x74
102ca0ac:	e1a02007 	mov	r2, r7
102ca0b0:	ea000001 	b	102ca0bc <OnURCHandler_BTIndication+0x2d8>
102ca0b4:	e152000e 	cmp	r2, lr
102ca0b8:	0a000008 	beq	102ca0e0 <OnURCHandler_BTIndication+0x2fc>
102ca0bc:	e5b21004 	ldr	r1, [r2, #4]!
102ca0c0:	e591c000 	ldr	ip, [r1]
102ca0c4:	e150000c 	cmp	r0, ip
102ca0c8:	1afffff9 	bne	102ca0b4 <OnURCHandler_BTIndication+0x2d0>
102ca0cc:	e3e02000 	mvn	r2, #0
102ca0d0:	e5812054 	str	r2, [r1, #84]	; 0x54
102ca0d4:	ea000001 	b	102ca0e0 <OnURCHandler_BTIndication+0x2fc>
102ca0d8:	e153000e 	cmp	r3, lr
102ca0dc:	0a000005 	beq	102ca0f8 <OnURCHandler_BTIndication+0x314>
102ca0e0:	e5b32004 	ldr	r2, [r3, #4]!
102ca0e4:	e5921000 	ldr	r1, [r2]
102ca0e8:	e1500001 	cmp	r0, r1
102ca0ec:	1afffff9 	bne	102ca0d8 <OnURCHandler_BTIndication+0x2f4>
102ca0f0:	e3e03000 	mvn	r3, #0
102ca0f4:	e5823058 	str	r3, [r2, #88]	; 0x58
102ca0f8:	e597c090 	ldr	ip, [r7, #144]	; 0x90
102ca0fc:	e3a00007 	mov	r0, #7
102ca100:	e3a0100b 	mov	r1, #11
102ca104:	e28d205c 	add	r2, sp, #92	; 0x5c
102ca108:	e3a03000 	mov	r3, #0
102ca10c:	e12fff3c 	blx	ip
102ca110:	eaffff59 	b	102c9e7c <OnURCHandler_BTIndication+0x98>
102ca114:	e59f1070 	ldr	r1, [pc, #112]	; 102ca18c <OnURCHandler_BTIndication+0x3a8>
102ca118:	e12fff33 	blx	r3
102ca11c:	e28d0098 	add	r0, sp, #152	; 0x98
102ca120:	e12fff35 	blx	r5
102ca124:	e59f3070 	ldr	r3, [pc, #112]	; 102ca19c <OnURCHandler_BTIndication+0x3b8>
102ca128:	e1a01000 	mov	r1, r0
102ca12c:	e28d0098 	add	r0, sp, #152	; 0x98
102ca130:	e12fff33 	blx	r3
102ca134:	e597c090 	ldr	ip, [r7, #144]	; 0x90
102ca138:	e3a01004 	mov	r1, #4
102ca13c:	e28d205c 	add	r2, sp, #92	; 0x5c
102ca140:	e1a03008 	mov	r3, r8
102ca144:	e58d005c 	str	r0, [sp, #92]	; 0x5c
102ca148:	e3a00005 	mov	r0, #5
102ca14c:	e12fff3c 	blx	ip
102ca150:	eaffff49 	b	102c9e7c <OnURCHandler_BTIndication+0x98>
102ca154:	e3a03000 	mov	r3, #0
102ca158:	eaffffb3 	b	102ca02c <OnURCHandler_BTIndication+0x248>
102ca15c:	e3e03000 	mvn	r3, #0
102ca160:	e5823054 	str	r3, [r2, #84]	; 0x54
102ca164:	eaffffe1 	b	102ca0f0 <OnURCHandler_BTIndication+0x30c>
102ca168:	102cf798 	.word	0x102cf798
102ca16c:	f03d2058 	.word	0xf03d2058
102ca170:	102d02e0 	.word	0x102d02e0
102ca174:	102cf520 	.word	0x102cf520
102ca178:	102ccb6c 	.word	0x102ccb6c
102ca17c:	f03d5b08 	.word	0xf03d5b08
102ca180:	102d1044 	.word	0x102d1044
102ca184:	102cf6c0 	.word	0x102cf6c0
102ca188:	102d13e4 	.word	0x102d13e4
102ca18c:	102d1180 	.word	0x102d1180
102ca190:	102cf648 	.word	0x102cf648
102ca194:	102d13ec 	.word	0x102d13ec
102ca198:	102d140c 	.word	0x102d140c
102ca19c:	102ccfb8 	.word	0x102ccfb8
102ca1a0:	102d142c 	.word	0x102d142c
102ca1a4:	102d1434 	.word	0x102d1434
102ca1a8:	102d144c 	.word	0x102d144c
102ca1ac:	102d1498 	.word	0x102d1498
102ca1b0:	102d14a0 	.word	0x102d14a0
102ca1b4:	102d1454 	.word	0x102d1454
102ca1b8:	102d1478 	.word	0x102d1478

102ca1bc <Ql_RIL_RcvDataFrmCore>:
102ca1bc:	e92d4008 	push	{r3, lr}
102ca1c0:	e59f3010 	ldr	r3, [pc, #16]	; 102ca1d8 <Ql_RIL_RcvDataFrmCore+0x1c>
102ca1c4:	e5933000 	ldr	r3, [r3]
102ca1c8:	e3530000 	cmp	r3, #0
102ca1cc:	08bd8008 	popeq	{r3, pc}
102ca1d0:	e12fff33 	blx	r3
102ca1d4:	e8bd8008 	pop	{r3, pc}
102ca1d8:	f03d20f0 	.word	0xf03d20f0

102ca1dc <ATResponse_Handler>:
102ca1dc:	e92d4070 	push	{r4, r5, r6, lr}
102ca1e0:	e59f30c4 	ldr	r3, [pc, #196]	; 102ca2ac <ATResponse_Handler+0xd0>
102ca1e4:	e1a05001 	mov	r5, r1
102ca1e8:	e59f10c0 	ldr	r1, [pc, #192]	; 102ca2b0 <ATResponse_Handler+0xd4>
102ca1ec:	e1a04000 	mov	r4, r0
102ca1f0:	e12fff33 	blx	r3
102ca1f4:	e3500000 	cmp	r0, #0
102ca1f8:	0a00000b 	beq	102ca22c <ATResponse_Handler+0x50>
102ca1fc:	e59f30b0 	ldr	r3, [pc, #176]	; 102ca2b4 <ATResponse_Handler+0xd8>
102ca200:	e5932000 	ldr	r2, [r3]
102ca204:	e3520000 	cmp	r2, #0
102ca208:	0a000007 	beq	102ca22c <ATResponse_Handler+0x50>
102ca20c:	e5933004 	ldr	r3, [r3, #4]
102ca210:	e3530000 	cmp	r3, #0
102ca214:	0a000004 	beq	102ca22c <ATResponse_Handler+0x50>
102ca218:	e59f1098 	ldr	r1, [pc, #152]	; 102ca2b8 <ATResponse_Handler+0xdc>
102ca21c:	e1a00004 	mov	r0, r4
102ca220:	e591c000 	ldr	ip, [r1]
102ca224:	e59f1090 	ldr	r1, [pc, #144]	; 102ca2bc <ATResponse_Handler+0xe0>
102ca228:	e12fff3c 	blx	ip
102ca22c:	e1a00004 	mov	r0, r4
102ca230:	e1a01005 	mov	r1, r5
102ca234:	e59f2084 	ldr	r2, [pc, #132]	; 102ca2c0 <ATResponse_Handler+0xe4>
102ca238:	e59f6084 	ldr	r6, [pc, #132]	; 102ca2c4 <ATResponse_Handler+0xe8>
102ca23c:	e12fff36 	blx	r6
102ca240:	e3500000 	cmp	r0, #0
102ca244:	0a000001 	beq	102ca250 <ATResponse_Handler+0x74>
102ca248:	e3a00000 	mov	r0, #0
102ca24c:	e8bd8070 	pop	{r4, r5, r6, pc}
102ca250:	e1a00004 	mov	r0, r4
102ca254:	e1a01005 	mov	r1, r5
102ca258:	e59f2068 	ldr	r2, [pc, #104]	; 102ca2c8 <ATResponse_Handler+0xec>
102ca25c:	e12fff36 	blx	r6
102ca260:	e3500000 	cmp	r0, #0
102ca264:	1a00000e 	bne	102ca2a4 <ATResponse_Handler+0xc8>
102ca268:	e1a00004 	mov	r0, r4
102ca26c:	e1a01005 	mov	r1, r5
102ca270:	e59f2054 	ldr	r2, [pc, #84]	; 102ca2cc <ATResponse_Handler+0xf0>
102ca274:	e59f6054 	ldr	r6, [pc, #84]	; 102ca2d0 <ATResponse_Handler+0xf4>
102ca278:	e12fff36 	blx	r6
102ca27c:	e3500000 	cmp	r0, #0
102ca280:	1a000007 	bne	102ca2a4 <ATResponse_Handler+0xc8>
102ca284:	e1a00004 	mov	r0, r4
102ca288:	e1a01005 	mov	r1, r5
102ca28c:	e59f2040 	ldr	r2, [pc, #64]	; 102ca2d4 <ATResponse_Handler+0xf8>
102ca290:	e12fff36 	blx	r6
102ca294:	e3500000 	cmp	r0, #0
102ca298:	1a000001 	bne	102ca2a4 <ATResponse_Handler+0xc8>
102ca29c:	e3a00001 	mov	r0, #1
102ca2a0:	e8bd8070 	pop	{r4, r5, r6, pc}
102ca2a4:	e3e00000 	mvn	r0, #0
102ca2a8:	e8bd8070 	pop	{r4, r5, r6, pc}
102ca2ac:	102cf8a8 	.word	0x102cf8a8
102ca2b0:	102d1524 	.word	0x102d1524
102ca2b4:	f03d20f4 	.word	0xf03d20f4
102ca2b8:	f03d5b08 	.word	0xf03d5b08
102ca2bc:	102d1530 	.word	0x102d1530
102ca2c0:	102d17a8 	.word	0x102d17a8
102ca2c4:	102ccd38 	.word	0x102ccd38
102ca2c8:	102d0fdc 	.word	0x102d0fdc
102ca2cc:	102d1544 	.word	0x102d1544
102ca2d0:	102cccac 	.word	0x102cccac
102ca2d4:	102d1000 	.word	0x102d1000

102ca2d8 <RIL_ToneDet_Open>:
102ca2d8:	e59f3064 	ldr	r3, [pc, #100]	; 102ca344 <RIL_ToneDet_Open+0x6c>
102ca2dc:	e52de004 	push	{lr}		; (str lr, [sp, #-4]!)
102ca2e0:	e24dd0d4 	sub	sp, sp, #212	; 0xd4
102ca2e4:	e3a020c8 	mov	r2, #200	; 0xc8
102ca2e8:	e5830008 	str	r0, [r3, #8]
102ca2ec:	e3a01000 	mov	r1, #0
102ca2f0:	e28d0008 	add	r0, sp, #8
102ca2f4:	e59f304c 	ldr	r3, [pc, #76]	; 102ca348 <RIL_ToneDet_Open+0x70>
102ca2f8:	e12fff33 	blx	r3
102ca2fc:	e59f3048 	ldr	r3, [pc, #72]	; 102ca34c <RIL_ToneDet_Open+0x74>
102ca300:	e59f1048 	ldr	r1, [pc, #72]	; 102ca350 <RIL_ToneDet_Open+0x78>
102ca304:	e5933000 	ldr	r3, [r3]
102ca308:	e28d0008 	add	r0, sp, #8
102ca30c:	e12fff33 	blx	r3
102ca310:	e28d0008 	add	r0, sp, #8
102ca314:	e59f3038 	ldr	r3, [pc, #56]	; 102ca354 <RIL_ToneDet_Open+0x7c>
102ca318:	e12fff33 	blx	r3
102ca31c:	e3a02000 	mov	r2, #0
102ca320:	e3a03f4b 	mov	r3, #300	; 0x12c
102ca324:	e58d3000 	str	r3, [sp]
102ca328:	e59fc028 	ldr	ip, [pc, #40]	; 102ca358 <RIL_ToneDet_Open+0x80>
102ca32c:	e1a03002 	mov	r3, r2
102ca330:	e1a01000 	mov	r1, r0
102ca334:	e28d0008 	add	r0, sp, #8
102ca338:	e12fff3c 	blx	ip
102ca33c:	e28dd0d4 	add	sp, sp, #212	; 0xd4
102ca340:	e8bd8000 	ldmfd	sp!, {pc}
102ca344:	f03d20f4 	.word	0xf03d20f4
102ca348:	102cf798 	.word	0x102cf798
102ca34c:	f03d5b00 	.word	0xf03d5b00
102ca350:	102d1550 	.word	0x102d1550
102ca354:	102cf648 	.word	0x102cf648
102ca358:	102cf204 	.word	0x102cf204

102ca35c <RIL_ToneDet_Close>:
102ca35c:	e52de004 	push	{lr}		; (str lr, [sp, #-4]!)
102ca360:	e24dd0d4 	sub	sp, sp, #212	; 0xd4
102ca364:	e3a020c8 	mov	r2, #200	; 0xc8
102ca368:	e3a01000 	mov	r1, #0
102ca36c:	e28d0008 	add	r0, sp, #8
102ca370:	e59f3048 	ldr	r3, [pc, #72]	; 102ca3c0 <RIL_ToneDet_Close+0x64>
102ca374:	e12fff33 	blx	r3
102ca378:	e59f3044 	ldr	r3, [pc, #68]	; 102ca3c4 <RIL_ToneDet_Close+0x68>
102ca37c:	e59f1044 	ldr	r1, [pc, #68]	; 102ca3c8 <RIL_ToneDet_Close+0x6c>
102ca380:	e5933000 	ldr	r3, [r3]
102ca384:	e28d0008 	add	r0, sp, #8
102ca388:	e12fff33 	blx	r3
102ca38c:	e28d0008 	add	r0, sp, #8
102ca390:	e59f3034 	ldr	r3, [pc, #52]	; 102ca3cc <RIL_ToneDet_Close+0x70>
102ca394:	e12fff33 	blx	r3
102ca398:	e3a02000 	mov	r2, #0
102ca39c:	e3a03f4b 	mov	r3, #300	; 0x12c
102ca3a0:	e58d3000 	str	r3, [sp]
102ca3a4:	e59fc024 	ldr	ip, [pc, #36]	; 102ca3d0 <RIL_ToneDet_Close+0x74>
102ca3a8:	e1a03002 	mov	r3, r2
102ca3ac:	e1a01000 	mov	r1, r0
102ca3b0:	e28d0008 	add	r0, sp, #8
102ca3b4:	e12fff3c 	blx	ip
102ca3b8:	e28dd0d4 	add	sp, sp, #212	; 0xd4
102ca3bc:	e8bd8000 	ldmfd	sp!, {pc}
102ca3c0:	102cf798 	.word	0x102cf798
102ca3c4:	f03d5b00 	.word	0xf03d5b00
102ca3c8:	102d1560 	.word	0x102d1560
102ca3cc:	102cf648 	.word	0x102cf648
102ca3d0:	102cf204 	.word	0x102cf204

102ca3d4 <RIL_ToneDet_Set>:
102ca3d4:	e92d40f0 	push	{r4, r5, r6, r7, lr}
102ca3d8:	e1a04000 	mov	r4, r0
102ca3dc:	e2400002 	sub	r0, r0, #2
102ca3e0:	e3500002 	cmp	r0, #2
102ca3e4:	e24dd0d4 	sub	sp, sp, #212	; 0xd4
102ca3e8:	e1a07001 	mov	r7, r1
102ca3ec:	e1a06002 	mov	r6, r2
102ca3f0:	e1a05003 	mov	r5, r3
102ca3f4:	8a00001a 	bhi	102ca464 <RIL_ToneDet_Set+0x90>
102ca3f8:	e3a01000 	mov	r1, #0
102ca3fc:	e3a020c8 	mov	r2, #200	; 0xc8
102ca400:	e59f3064 	ldr	r3, [pc, #100]	; 102ca46c <RIL_ToneDet_Set+0x98>
102ca404:	e28d0008 	add	r0, sp, #8
102ca408:	e12fff33 	blx	r3
102ca40c:	e59f005c 	ldr	r0, [pc, #92]	; 102ca470 <RIL_ToneDet_Set+0x9c>
102ca410:	e59f105c 	ldr	r1, [pc, #92]	; 102ca474 <RIL_ToneDet_Set+0xa0>
102ca414:	e1a02004 	mov	r2, r4
102ca418:	e1a03007 	mov	r3, r7
102ca41c:	e58d6000 	str	r6, [sp]
102ca420:	e58d5004 	str	r5, [sp, #4]
102ca424:	e590c000 	ldr	ip, [r0]
102ca428:	e28d0008 	add	r0, sp, #8
102ca42c:	e12fff3c 	blx	ip
102ca430:	e59f3040 	ldr	r3, [pc, #64]	; 102ca478 <RIL_ToneDet_Set+0xa4>
102ca434:	e28d0008 	add	r0, sp, #8
102ca438:	e12fff33 	blx	r3
102ca43c:	e3a03f4b 	mov	r3, #300	; 0x12c
102ca440:	e3a02000 	mov	r2, #0
102ca444:	e58d3000 	str	r3, [sp]
102ca448:	e59fc02c 	ldr	ip, [pc, #44]	; 102ca47c <RIL_ToneDet_Set+0xa8>
102ca44c:	e1a03002 	mov	r3, r2
102ca450:	e1a01000 	mov	r1, r0
102ca454:	e28d0008 	add	r0, sp, #8
102ca458:	e12fff3c 	blx	ip
102ca45c:	e28dd0d4 	add	sp, sp, #212	; 0xd4
102ca460:	e8bd80f0 	pop	{r4, r5, r6, r7, pc}
102ca464:	e3e00003 	mvn	r0, #3
102ca468:	eafffffb 	b	102ca45c <RIL_ToneDet_Set+0x88>
102ca46c:	102cf798 	.word	0x102cf798
102ca470:	f03d5b00 	.word	0xf03d5b00
102ca474:	102d1570 	.word	0x102d1570
102ca478:	102cf648 	.word	0x102cf648
102ca47c:	102cf204 	.word	0x102cf204

102ca480 <RIL_ToneDet_Get>:
102ca480:	e2403001 	sub	r3, r0, #1
102ca484:	e3530004 	cmp	r3, #4
102ca488:	e92d4070 	push	{r4, r5, r6, lr}
102ca48c:	e1a0c002 	mov	ip, r2
102ca490:	e24dd0d0 	sub	sp, sp, #208	; 0xd0
102ca494:	e1a05000 	mov	r5, r0
102ca498:	e1a04001 	mov	r4, r1
102ca49c:	8a00001e 	bhi	102ca51c <RIL_ToneDet_Get+0x9c>
102ca4a0:	e3510000 	cmp	r1, #0
102ca4a4:	13520000 	cmpne	r2, #0
102ca4a8:	13a06000 	movne	r6, #0
102ca4ac:	03a06001 	moveq	r6, #1
102ca4b0:	0a000019 	beq	102ca51c <RIL_ToneDet_Get+0x9c>
102ca4b4:	e59f3068 	ldr	r3, [pc, #104]	; 102ca524 <RIL_ToneDet_Get+0xa4>
102ca4b8:	e1a01006 	mov	r1, r6
102ca4bc:	e8831010 	stm	r3, {r4, ip}
102ca4c0:	e3a020c8 	mov	r2, #200	; 0xc8
102ca4c4:	e59f305c 	ldr	r3, [pc, #92]	; 102ca528 <RIL_ToneDet_Get+0xa8>
102ca4c8:	e28d0008 	add	r0, sp, #8
102ca4cc:	e12fff33 	blx	r3
102ca4d0:	e59f3054 	ldr	r3, [pc, #84]	; 102ca52c <RIL_ToneDet_Get+0xac>
102ca4d4:	e59f1054 	ldr	r1, [pc, #84]	; 102ca530 <RIL_ToneDet_Get+0xb0>
102ca4d8:	e1a02005 	mov	r2, r5
102ca4dc:	e5933000 	ldr	r3, [r3]
102ca4e0:	e28d0008 	add	r0, sp, #8
102ca4e4:	e12fff33 	blx	r3
102ca4e8:	e59f3044 	ldr	r3, [pc, #68]	; 102ca534 <RIL_ToneDet_Get+0xb4>
102ca4ec:	e28d0008 	add	r0, sp, #8
102ca4f0:	e12fff33 	blx	r3
102ca4f4:	e3a03f4b 	mov	r3, #300	; 0x12c
102ca4f8:	e58d3000 	str	r3, [sp]
102ca4fc:	e59f2034 	ldr	r2, [pc, #52]	; 102ca538 <RIL_ToneDet_Get+0xb8>
102ca500:	e1a03006 	mov	r3, r6
102ca504:	e59fc030 	ldr	ip, [pc, #48]	; 102ca53c <RIL_ToneDet_Get+0xbc>
102ca508:	e1a01000 	mov	r1, r0
102ca50c:	e28d0008 	add	r0, sp, #8
102ca510:	e12fff3c 	blx	ip
102ca514:	e28dd0d0 	add	sp, sp, #208	; 0xd0
102ca518:	e8bd8070 	pop	{r4, r5, r6, pc}
102ca51c:	e3e00003 	mvn	r0, #3
102ca520:	eafffffb 	b	102ca514 <RIL_ToneDet_Get+0x94>
102ca524:	f03d20f4 	.word	0xf03d20f4
102ca528:	102cf798 	.word	0x102cf798
102ca52c:	f03d5b00 	.word	0xf03d5b00
102ca530:	102d158c 	.word	0x102d158c
102ca534:	102cf648 	.word	0x102cf648
102ca538:	102ca1dc 	.word	0x102ca1dc
102ca53c:	102cf204 	.word	0x102cf204

102ca540 <OnURCHandler_QToneDet>:
102ca540:	e92d45f0 	push	{r4, r5, r6, r7, r8, sl, lr}
102ca544:	e59f40c4 	ldr	r4, [pc, #196]	; 102ca610 <OnURCHandler_QToneDet+0xd0>
102ca548:	e24dd024 	sub	sp, sp, #36	; 0x24
102ca54c:	e5943008 	ldr	r3, [r4, #8]
102ca550:	e1a05000 	mov	r5, r0
102ca554:	e3530000 	cmp	r3, #0
102ca558:	0a000009 	beq	102ca584 <OnURCHandler_QToneDet+0x44>
102ca55c:	e59f10b0 	ldr	r1, [pc, #176]	; 102ca614 <OnURCHandler_QToneDet+0xd4>
102ca560:	e59f30b0 	ldr	r3, [pc, #176]	; 102ca618 <OnURCHandler_QToneDet+0xd8>
102ca564:	e1a0000d 	mov	r0, sp
102ca568:	e12fff33 	blx	r3
102ca56c:	e1a00005 	mov	r0, r5
102ca570:	e1a0100d 	mov	r1, sp
102ca574:	e59f30a0 	ldr	r3, [pc, #160]	; 102ca61c <OnURCHandler_QToneDet+0xdc>
102ca578:	e12fff33 	blx	r3
102ca57c:	e3500000 	cmp	r0, #0
102ca580:	1a000001 	bne	102ca58c <OnURCHandler_QToneDet+0x4c>
102ca584:	e28dd024 	add	sp, sp, #36	; 0x24
102ca588:	e8bd85f0 	pop	{r4, r5, r6, r7, r8, sl, pc}
102ca58c:	e59fa08c 	ldr	sl, [pc, #140]	; 102ca620 <OnURCHandler_QToneDet+0xe0>
102ca590:	e1a0200d 	mov	r2, sp
102ca594:	e59a3000 	ldr	r3, [sl]
102ca598:	e59f1084 	ldr	r1, [pc, #132]	; 102ca624 <OnURCHandler_QToneDet+0xe4>
102ca59c:	e1a00005 	mov	r0, r5
102ca5a0:	e12fff33 	blx	r3
102ca5a4:	e59f807c 	ldr	r8, [pc, #124]	; 102ca628 <OnURCHandler_QToneDet+0xe8>
102ca5a8:	e1a0000d 	mov	r0, sp
102ca5ac:	e12fff38 	blx	r8
102ca5b0:	e59f7074 	ldr	r7, [pc, #116]	; 102ca62c <OnURCHandler_QToneDet+0xec>
102ca5b4:	e12fff37 	blx	r7
102ca5b8:	e2403030 	sub	r3, r0, #48	; 0x30
102ca5bc:	e3530016 	cmp	r3, #22
102ca5c0:	e1a06000 	mov	r6, r0
102ca5c4:	8affffee 	bhi	102ca584 <OnURCHandler_QToneDet+0x44>
102ca5c8:	e2403045 	sub	r3, r0, #69	; 0x45
102ca5cc:	e3530001 	cmp	r3, #1
102ca5d0:	83e01000 	mvnhi	r1, #0
102ca5d4:	9a000003 	bls	102ca5e8 <OnURCHandler_QToneDet+0xa8>
102ca5d8:	e5943008 	ldr	r3, [r4, #8]
102ca5dc:	e1a00006 	mov	r0, r6
102ca5e0:	e12fff33 	blx	r3
102ca5e4:	eaffffe6 	b	102ca584 <OnURCHandler_QToneDet+0x44>
102ca5e8:	e1a0200d 	mov	r2, sp
102ca5ec:	e59a3000 	ldr	r3, [sl]
102ca5f0:	e59f1038 	ldr	r1, [pc, #56]	; 102ca630 <OnURCHandler_QToneDet+0xf0>
102ca5f4:	e1a00005 	mov	r0, r5
102ca5f8:	e12fff33 	blx	r3
102ca5fc:	e1a0000d 	mov	r0, sp
102ca600:	e12fff38 	blx	r8
102ca604:	e12fff37 	blx	r7
102ca608:	e1a01000 	mov	r1, r0
102ca60c:	eafffff1 	b	102ca5d8 <OnURCHandler_QToneDet+0x98>
102ca610:	f03d20f4 	.word	0xf03d20f4
102ca614:	102d02ec 	.word	0x102d02ec
102ca618:	102cf520 	.word	0x102cf520
102ca61c:	102ccb6c 	.word	0x102ccb6c
102ca620:	f03d5b08 	.word	0xf03d5b08
102ca624:	102d15a0 	.word	0x102d15a0
102ca628:	102cf488 	.word	0x102cf488
102ca62c:	102ce64c 	.word	0x102ce64c
102ca630:	102d15b0 	.word	0x102d15b0

102ca634 <RIL_WDTMF_Send>:
102ca634:	e3500007 	cmp	r0, #7
102ca638:	93510007 	cmpls	r1, #7
102ca63c:	e92d40f0 	push	{r4, r5, r6, r7, lr}
102ca640:	e1a05000 	mov	r5, r0
102ca644:	e24dd0d4 	sub	sp, sp, #212	; 0xd4
102ca648:	e1a04001 	mov	r4, r1
102ca64c:	93a06000 	movls	r6, #0
102ca650:	83a06001 	movhi	r6, #1
102ca654:	e1a07002 	mov	r7, r2
102ca658:	8a00001c 	bhi	102ca6d0 <RIL_WDTMF_Send+0x9c>
102ca65c:	e3520000 	cmp	r2, #0
102ca660:	0a00001a 	beq	102ca6d0 <RIL_WDTMF_Send+0x9c>
102ca664:	e59fc06c 	ldr	ip, [pc, #108]	; 102ca6d8 <RIL_WDTMF_Send+0xa4>
102ca668:	e1a01006 	mov	r1, r6
102ca66c:	e58c300c 	str	r3, [ip, #12]
102ca670:	e3a020c8 	mov	r2, #200	; 0xc8
102ca674:	e59f3060 	ldr	r3, [pc, #96]	; 102ca6dc <RIL_WDTMF_Send+0xa8>
102ca678:	e28d0008 	add	r0, sp, #8
102ca67c:	e12fff33 	blx	r3
102ca680:	e59f0058 	ldr	r0, [pc, #88]	; 102ca6e0 <RIL_WDTMF_Send+0xac>
102ca684:	e59f1058 	ldr	r1, [pc, #88]	; 102ca6e4 <RIL_WDTMF_Send+0xb0>
102ca688:	e1a02005 	mov	r2, r5
102ca68c:	e1a03004 	mov	r3, r4
102ca690:	e58d7000 	str	r7, [sp]
102ca694:	e590c000 	ldr	ip, [r0]
102ca698:	e28d0008 	add	r0, sp, #8
102ca69c:	e12fff3c 	blx	ip
102ca6a0:	e59f3040 	ldr	r3, [pc, #64]	; 102ca6e8 <RIL_WDTMF_Send+0xb4>
102ca6a4:	e28d0008 	add	r0, sp, #8
102ca6a8:	e12fff33 	blx	r3
102ca6ac:	e1a02006 	mov	r2, r6
102ca6b0:	e58d6000 	str	r6, [sp]
102ca6b4:	e1a03006 	mov	r3, r6
102ca6b8:	e59fc02c 	ldr	ip, [pc, #44]	; 102ca6ec <RIL_WDTMF_Send+0xb8>
102ca6bc:	e1a01000 	mov	r1, r0
102ca6c0:	e28d0008 	add	r0, sp, #8
102ca6c4:	e12fff3c 	blx	ip
102ca6c8:	e28dd0d4 	add	sp, sp, #212	; 0xd4
102ca6cc:	e8bd80f0 	pop	{r4, r5, r6, r7, pc}
102ca6d0:	e3e00003 	mvn	r0, #3
102ca6d4:	eafffffb 	b	102ca6c8 <RIL_WDTMF_Send+0x94>
102ca6d8:	f03d20f4 	.word	0xf03d20f4
102ca6dc:	102cf798 	.word	0x102cf798
102ca6e0:	f03d5b00 	.word	0xf03d5b00
102ca6e4:	102d15c0 	.word	0x102d15c0
102ca6e8:	102cf648 	.word	0x102cf648
102ca6ec:	102cf204 	.word	0x102cf204

102ca6f0 <OnURCHandler_QWDTMF>:
102ca6f0:	e92d4030 	push	{r4, r5, lr}
102ca6f4:	e59f4078 	ldr	r4, [pc, #120]	; 102ca774 <OnURCHandler_QWDTMF+0x84>
102ca6f8:	e24dd024 	sub	sp, sp, #36	; 0x24
102ca6fc:	e594300c 	ldr	r3, [r4, #12]
102ca700:	e1a05000 	mov	r5, r0
102ca704:	e3530000 	cmp	r3, #0
102ca708:	0a000009 	beq	102ca734 <OnURCHandler_QWDTMF+0x44>
102ca70c:	e59f1064 	ldr	r1, [pc, #100]	; 102ca778 <OnURCHandler_QWDTMF+0x88>
102ca710:	e59f3064 	ldr	r3, [pc, #100]	; 102ca77c <OnURCHandler_QWDTMF+0x8c>
102ca714:	e1a0000d 	mov	r0, sp
102ca718:	e12fff33 	blx	r3
102ca71c:	e1a00005 	mov	r0, r5
102ca720:	e1a0100d 	mov	r1, sp
102ca724:	e59f3054 	ldr	r3, [pc, #84]	; 102ca780 <OnURCHandler_QWDTMF+0x90>
102ca728:	e12fff33 	blx	r3
102ca72c:	e3500000 	cmp	r0, #0
102ca730:	1a000001 	bne	102ca73c <OnURCHandler_QWDTMF+0x4c>
102ca734:	e28dd024 	add	sp, sp, #36	; 0x24
102ca738:	e8bd8030 	pop	{r4, r5, pc}
102ca73c:	e59f3040 	ldr	r3, [pc, #64]	; 102ca784 <OnURCHandler_QWDTMF+0x94>
102ca740:	e1a0200d 	mov	r2, sp
102ca744:	e59f103c 	ldr	r1, [pc, #60]	; 102ca788 <OnURCHandler_QWDTMF+0x98>
102ca748:	e5933000 	ldr	r3, [r3]
102ca74c:	e1a00005 	mov	r0, r5
102ca750:	e12fff33 	blx	r3
102ca754:	e1a0000d 	mov	r0, sp
102ca758:	e59f302c 	ldr	r3, [pc, #44]	; 102ca78c <OnURCHandler_QWDTMF+0x9c>
102ca75c:	e12fff33 	blx	r3
102ca760:	e59f3028 	ldr	r3, [pc, #40]	; 102ca790 <OnURCHandler_QWDTMF+0xa0>
102ca764:	e12fff33 	blx	r3
102ca768:	e594300c 	ldr	r3, [r4, #12]
102ca76c:	e12fff33 	blx	r3
102ca770:	eaffffef 	b	102ca734 <OnURCHandler_QWDTMF+0x44>
102ca774:	f03d20f4 	.word	0xf03d20f4
102ca778:	102d02fc 	.word	0x102d02fc
102ca77c:	102cf520 	.word	0x102cf520
102ca780:	102ccb6c 	.word	0x102ccb6c
102ca784:	f03d5b08 	.word	0xf03d5b08
102ca788:	102d15d8 	.word	0x102d15d8
102ca78c:	102cf488 	.word	0x102cf488
102ca790:	102ce64c 	.word	0x102ce64c

102ca794 <ATRsp_QHTTP_Handler>:
102ca794:	e92d41f0 	push	{r4, r5, r6, r7, r8, lr}
102ca798:	e1a08002 	mov	r8, r2
102ca79c:	e59f50f4 	ldr	r5, [pc, #244]	; 102ca898 <ATRsp_QHTTP_Handler+0x104>
102ca7a0:	e59f20f4 	ldr	r2, [pc, #244]	; 102ca89c <ATRsp_QHTTP_Handler+0x108>
102ca7a4:	e1a06000 	mov	r6, r0
102ca7a8:	e1a07001 	mov	r7, r1
102ca7ac:	e12fff35 	blx	r5
102ca7b0:	e2504000 	subs	r4, r0, #0
102ca7b4:	0a000013 	beq	102ca808 <ATRsp_QHTTP_Handler+0x74>
102ca7b8:	e59f30e0 	ldr	r3, [pc, #224]	; 102ca8a0 <ATRsp_QHTTP_Handler+0x10c>
102ca7bc:	e5d34000 	ldrb	r4, [r3]
102ca7c0:	e3540001 	cmp	r4, #1
102ca7c4:	0a000009 	beq	102ca7f0 <ATRsp_QHTTP_Handler+0x5c>
102ca7c8:	e3540003 	cmp	r4, #3
102ca7cc:	0a000001 	beq	102ca7d8 <ATRsp_QHTTP_Handler+0x44>
102ca7d0:	e3a00001 	mov	r0, #1
102ca7d4:	e8bd81f0 	pop	{r4, r5, r6, r7, r8, pc}
102ca7d8:	e1d311b0 	ldrh	r1, [r3, #16]
102ca7dc:	e593000c 	ldr	r0, [r3, #12]
102ca7e0:	e59f30bc 	ldr	r3, [pc, #188]	; 102ca8a4 <ATRsp_QHTTP_Handler+0x110>
102ca7e4:	e12fff33 	blx	r3
102ca7e8:	e3a00001 	mov	r0, #1
102ca7ec:	e8bd81f0 	pop	{r4, r5, r6, r7, r8, pc}
102ca7f0:	e1d310b8 	ldrh	r1, [r3, #8]
102ca7f4:	e5930004 	ldr	r0, [r3, #4]
102ca7f8:	e59f30a4 	ldr	r3, [pc, #164]	; 102ca8a4 <ATRsp_QHTTP_Handler+0x110>
102ca7fc:	e12fff33 	blx	r3
102ca800:	e1a00004 	mov	r0, r4
102ca804:	e8bd81f0 	pop	{r4, r5, r6, r7, r8, pc}
102ca808:	e1a00006 	mov	r0, r6
102ca80c:	e1a01007 	mov	r1, r7
102ca810:	e59f2090 	ldr	r2, [pc, #144]	; 102ca8a8 <ATRsp_QHTTP_Handler+0x114>
102ca814:	e12fff35 	blx	r5
102ca818:	e3500000 	cmp	r0, #0
102ca81c:	0a000001 	beq	102ca828 <ATRsp_QHTTP_Handler+0x94>
102ca820:	e1a00004 	mov	r0, r4
102ca824:	e8bd81f0 	pop	{r4, r5, r6, r7, r8, pc}
102ca828:	e1a00006 	mov	r0, r6
102ca82c:	e1a01007 	mov	r1, r7
102ca830:	e59f2074 	ldr	r2, [pc, #116]	; 102ca8ac <ATRsp_QHTTP_Handler+0x118>
102ca834:	e12fff35 	blx	r5
102ca838:	e3500000 	cmp	r0, #0
102ca83c:	0a000004 	beq	102ca854 <ATRsp_QHTTP_Handler+0xc0>
102ca840:	e3580000 	cmp	r8, #0
102ca844:	0a000011 	beq	102ca890 <ATRsp_QHTTP_Handler+0xfc>
102ca848:	e3e00000 	mvn	r0, #0
102ca84c:	e5880000 	str	r0, [r8]
102ca850:	e8bd81f0 	pop	{r4, r5, r6, r7, r8, pc}
102ca854:	e1a00006 	mov	r0, r6
102ca858:	e1a01007 	mov	r1, r7
102ca85c:	e59f204c 	ldr	r2, [pc, #76]	; 102ca8b0 <ATRsp_QHTTP_Handler+0x11c>
102ca860:	e59f304c 	ldr	r3, [pc, #76]	; 102ca8b4 <ATRsp_QHTTP_Handler+0x120>
102ca864:	e12fff33 	blx	r3
102ca868:	e3500000 	cmp	r0, #0
102ca86c:	0affffd7 	beq	102ca7d0 <ATRsp_QHTTP_Handler+0x3c>
102ca870:	e3580000 	cmp	r8, #0
102ca874:	0a000005 	beq	102ca890 <ATRsp_QHTTP_Handler+0xfc>
102ca878:	e59f3038 	ldr	r3, [pc, #56]	; 102ca8b8 <ATRsp_QHTTP_Handler+0x124>
102ca87c:	e1a00006 	mov	r0, r6
102ca880:	e5933000 	ldr	r3, [r3]
102ca884:	e59f1030 	ldr	r1, [pc, #48]	; 102ca8bc <ATRsp_QHTTP_Handler+0x128>
102ca888:	e1a02008 	mov	r2, r8
102ca88c:	e12fff33 	blx	r3
102ca890:	e3e00000 	mvn	r0, #0
102ca894:	e8bd81f0 	pop	{r4, r5, r6, r7, r8, pc}
102ca898:	102ccd38 	.word	0x102ccd38
102ca89c:	102d15e8 	.word	0x102d15e8
102ca8a0:	f03d2104 	.word	0xf03d2104
102ca8a4:	102cf464 	.word	0x102cf464
102ca8a8:	102d17a8 	.word	0x102d17a8
102ca8ac:	102d0fdc 	.word	0x102d0fdc
102ca8b0:	102d0fe4 	.word	0x102d0fe4
102ca8b4:	102cccac 	.word	0x102cccac
102ca8b8:	f03d5b08 	.word	0xf03d5b08
102ca8bc:	102d15f0 	.word	0x102d15f0

102ca8c0 <RIL_HTTP_SetServerURL>:
102ca8c0:	e92d4010 	push	{r4, lr}
102ca8c4:	e3e03000 	mvn	r3, #0
102ca8c8:	e24dd030 	sub	sp, sp, #48	; 0x30
102ca8cc:	e3500000 	cmp	r0, #0
102ca8d0:	e1a04001 	mov	r4, r1
102ca8d4:	e58d300c 	str	r3, [sp, #12]
102ca8d8:	0a00001e 	beq	102ca958 <RIL_HTTP_SetServerURL+0x98>
102ca8dc:	e59fc07c 	ldr	ip, [pc, #124]	; 102ca960 <RIL_HTTP_SetServerURL+0xa0>
102ca8e0:	e1a02004 	mov	r2, r4
102ca8e4:	e58c0004 	str	r0, [ip, #4]
102ca8e8:	e59f0074 	ldr	r0, [pc, #116]	; 102ca964 <RIL_HTTP_SetServerURL+0xa4>
102ca8ec:	e1cc40b8 	strh	r4, [ip, #8]
102ca8f0:	e3a0e001 	mov	lr, #1
102ca8f4:	e59f106c 	ldr	r1, [pc, #108]	; 102ca968 <RIL_HTTP_SetServerURL+0xa8>
102ca8f8:	e3a03078 	mov	r3, #120	; 0x78
102ca8fc:	e5904000 	ldr	r4, [r0]
102ca900:	e28d0010 	add	r0, sp, #16
102ca904:	e5cce000 	strb	lr, [ip]
102ca908:	e12fff34 	blx	r4
102ca90c:	e59f3058 	ldr	r3, [pc, #88]	; 102ca96c <RIL_HTTP_SetServerURL+0xac>
102ca910:	e28d0010 	add	r0, sp, #16
102ca914:	e12fff33 	blx	r3
102ca918:	e3a03000 	mov	r3, #0
102ca91c:	e58d3000 	str	r3, [sp]
102ca920:	e59f2048 	ldr	r2, [pc, #72]	; 102ca970 <RIL_HTTP_SetServerURL+0xb0>
102ca924:	e28d300c 	add	r3, sp, #12
102ca928:	e59fc044 	ldr	ip, [pc, #68]	; 102ca974 <RIL_HTTP_SetServerURL+0xb4>
102ca92c:	e1a01000 	mov	r1, r0
102ca930:	e28d0010 	add	r0, sp, #16
102ca934:	e12fff3c 	blx	ip
102ca938:	e2503000 	subs	r3, r0, #0
102ca93c:	01a00003 	moveq	r0, r3
102ca940:	0a000002 	beq	102ca950 <RIL_HTTP_SetServerURL+0x90>
102ca944:	e59d000c 	ldr	r0, [sp, #12]
102ca948:	e3700001 	cmn	r0, #1
102ca94c:	01a00003 	moveq	r0, r3
102ca950:	e28dd030 	add	sp, sp, #48	; 0x30
102ca954:	e8bd8010 	pop	{r4, pc}
102ca958:	e3e00003 	mvn	r0, #3
102ca95c:	eafffffb 	b	102ca950 <RIL_HTTP_SetServerURL+0x90>
102ca960:	f03d2104 	.word	0xf03d2104
102ca964:	f03d5b00 	.word	0xf03d5b00
102ca968:	102d0308 	.word	0x102d0308
102ca96c:	102cf648 	.word	0x102cf648
102ca970:	102ca794 	.word	0x102ca794
102ca974:	102cf204 	.word	0x102cf204

102ca978 <RIL_HTTP_RequestToGet>:
102ca978:	e52de004 	push	{lr}		; (str lr, [sp, #-4]!)
102ca97c:	e3e03000 	mvn	r3, #0
102ca980:	e24dd034 	sub	sp, sp, #52	; 0x34
102ca984:	e58d300c 	str	r3, [sp, #12]
102ca988:	e59f3068 	ldr	r3, [pc, #104]	; 102ca9f8 <RIL_HTTP_RequestToGet+0x80>
102ca98c:	e59fc068 	ldr	ip, [pc, #104]	; 102ca9fc <RIL_HTTP_RequestToGet+0x84>
102ca990:	e1a02000 	mov	r2, r0
102ca994:	e3a0e002 	mov	lr, #2
102ca998:	e59f1060 	ldr	r1, [pc, #96]	; 102caa00 <RIL_HTTP_RequestToGet+0x88>
102ca99c:	e5933000 	ldr	r3, [r3]
102ca9a0:	e28d0010 	add	r0, sp, #16
102ca9a4:	e5cce000 	strb	lr, [ip]
102ca9a8:	e12fff33 	blx	r3
102ca9ac:	e59f3050 	ldr	r3, [pc, #80]	; 102caa04 <RIL_HTTP_RequestToGet+0x8c>
102ca9b0:	e28d0010 	add	r0, sp, #16
102ca9b4:	e12fff33 	blx	r3
102ca9b8:	e3a03000 	mov	r3, #0
102ca9bc:	e58d3000 	str	r3, [sp]
102ca9c0:	e59f2040 	ldr	r2, [pc, #64]	; 102caa08 <RIL_HTTP_RequestToGet+0x90>
102ca9c4:	e28d300c 	add	r3, sp, #12
102ca9c8:	e59fc03c 	ldr	ip, [pc, #60]	; 102caa0c <RIL_HTTP_RequestToGet+0x94>
102ca9cc:	e1a01000 	mov	r1, r0
102ca9d0:	e28d0010 	add	r0, sp, #16
102ca9d4:	e12fff3c 	blx	ip
102ca9d8:	e2503000 	subs	r3, r0, #0
102ca9dc:	01a00003 	moveq	r0, r3
102ca9e0:	0a000002 	beq	102ca9f0 <RIL_HTTP_RequestToGet+0x78>
102ca9e4:	e59d000c 	ldr	r0, [sp, #12]
102ca9e8:	e3700001 	cmn	r0, #1
102ca9ec:	01a00003 	moveq	r0, r3
102ca9f0:	e28dd034 	add	sp, sp, #52	; 0x34
102ca9f4:	e8bd8000 	ldmfd	sp!, {pc}
102ca9f8:	f03d5b00 	.word	0xf03d5b00
102ca9fc:	f03d2104 	.word	0xf03d2104
102caa00:	102d031c 	.word	0x102d031c
102caa04:	102cf648 	.word	0x102cf648
102caa08:	102ca794 	.word	0x102ca794
102caa0c:	102cf204 	.word	0x102cf204

102caa10 <RIL_HTTP_RequestToPost>:
102caa10:	e52de004 	push	{lr}		; (str lr, [sp, #-4]!)
102caa14:	e3e03000 	mvn	r3, #0
102caa18:	e24dd034 	sub	sp, sp, #52	; 0x34
102caa1c:	e3500000 	cmp	r0, #0
102caa20:	e1a0c001 	mov	ip, r1
102caa24:	e58d300c 	str	r3, [sp, #12]
102caa28:	0a00001d 	beq	102caaa4 <RIL_HTTP_RequestToPost+0x94>
102caa2c:	e59f3078 	ldr	r3, [pc, #120]	; 102caaac <RIL_HTTP_RequestToPost+0x9c>
102caa30:	e1a0200c 	mov	r2, ip
102caa34:	e583000c 	str	r0, [r3, #12]
102caa38:	e59f0070 	ldr	r0, [pc, #112]	; 102caab0 <RIL_HTTP_RequestToPost+0xa0>
102caa3c:	e3a0e003 	mov	lr, #3
102caa40:	e59f106c 	ldr	r1, [pc, #108]	; 102caab4 <RIL_HTTP_RequestToPost+0xa4>
102caa44:	e1c3c1b0 	strh	ip, [r3, #16]
102caa48:	e590c000 	ldr	ip, [r0]
102caa4c:	e28d0010 	add	r0, sp, #16
102caa50:	e5c3e000 	strb	lr, [r3]
102caa54:	e12fff3c 	blx	ip
102caa58:	e59f3058 	ldr	r3, [pc, #88]	; 102caab8 <RIL_HTTP_RequestToPost+0xa8>
102caa5c:	e28d0010 	add	r0, sp, #16
102caa60:	e12fff33 	blx	r3
102caa64:	e3a03000 	mov	r3, #0
102caa68:	e58d3000 	str	r3, [sp]
102caa6c:	e59f2048 	ldr	r2, [pc, #72]	; 102caabc <RIL_HTTP_RequestToPost+0xac>
102caa70:	e28d300c 	add	r3, sp, #12
102caa74:	e59fc044 	ldr	ip, [pc, #68]	; 102caac0 <RIL_HTTP_RequestToPost+0xb0>
102caa78:	e1a01000 	mov	r1, r0
102caa7c:	e28d0010 	add	r0, sp, #16
102caa80:	e12fff3c 	blx	ip
102caa84:	e2503000 	subs	r3, r0, #0
102caa88:	01a00003 	moveq	r0, r3
102caa8c:	0a000002 	beq	102caa9c <RIL_HTTP_RequestToPost+0x8c>
102caa90:	e59d000c 	ldr	r0, [sp, #12]
102caa94:	e3700001 	cmn	r0, #1
102caa98:	01a00003 	moveq	r0, r3
102caa9c:	e28dd034 	add	sp, sp, #52	; 0x34
102caaa0:	e8bd8000 	ldmfd	sp!, {pc}
102caaa4:	e3e00003 	mvn	r0, #3
102caaa8:	eafffffb 	b	102caa9c <RIL_HTTP_RequestToPost+0x8c>
102caaac:	f03d2104 	.word	0xf03d2104
102caab0:	f03d5b00 	.word	0xf03d5b00
102caab4:	102d032c 	.word	0x102d032c
102caab8:	102cf648 	.word	0x102cf648
102caabc:	102ca794 	.word	0x102ca794
102caac0:	102cf204 	.word	0x102cf204

102caac4 <RIL_HTTP_ReadResponse>:
102caac4:	e52de004 	push	{lr}		; (str lr, [sp, #-4]!)
102caac8:	e3e03000 	mvn	r3, #0
102caacc:	e24dd034 	sub	sp, sp, #52	; 0x34
102caad0:	e251c000 	subs	ip, r1, #0
102caad4:	e58d300c 	str	r3, [sp, #12]
102caad8:	0a00001d 	beq	102cab54 <RIL_HTTP_ReadResponse+0x90>
102caadc:	e59f3078 	ldr	r3, [pc, #120]	; 102cab5c <RIL_HTTP_ReadResponse+0x98>
102caae0:	e1a02000 	mov	r2, r0
102caae4:	e583c000 	str	ip, [r3]
102caae8:	e59f3070 	ldr	r3, [pc, #112]	; 102cab60 <RIL_HTTP_ReadResponse+0x9c>
102caaec:	e59fc070 	ldr	ip, [pc, #112]	; 102cab64 <RIL_HTTP_ReadResponse+0xa0>
102caaf0:	e3a0e004 	mov	lr, #4
102caaf4:	e59f106c 	ldr	r1, [pc, #108]	; 102cab68 <RIL_HTTP_ReadResponse+0xa4>
102caaf8:	e5933000 	ldr	r3, [r3]
102caafc:	e28d0010 	add	r0, sp, #16
102cab00:	e5cce000 	strb	lr, [ip]
102cab04:	e12fff33 	blx	r3
102cab08:	e59f305c 	ldr	r3, [pc, #92]	; 102cab6c <RIL_HTTP_ReadResponse+0xa8>
102cab0c:	e28d0010 	add	r0, sp, #16
102cab10:	e12fff33 	blx	r3
102cab14:	e3a03000 	mov	r3, #0
102cab18:	e58d3000 	str	r3, [sp]
102cab1c:	e59f204c 	ldr	r2, [pc, #76]	; 102cab70 <RIL_HTTP_ReadResponse+0xac>
102cab20:	e28d300c 	add	r3, sp, #12
102cab24:	e59fc048 	ldr	ip, [pc, #72]	; 102cab74 <RIL_HTTP_ReadResponse+0xb0>
102cab28:	e1a01000 	mov	r1, r0
102cab2c:	e28d0010 	add	r0, sp, #16
102cab30:	e12fff3c 	blx	ip
102cab34:	e2503000 	subs	r3, r0, #0
102cab38:	01a00003 	moveq	r0, r3
102cab3c:	0a000002 	beq	102cab4c <RIL_HTTP_ReadResponse+0x88>
102cab40:	e59d000c 	ldr	r0, [sp, #12]
102cab44:	e3700001 	cmn	r0, #1
102cab48:	01a00003 	moveq	r0, r3
102cab4c:	e28dd034 	add	sp, sp, #52	; 0x34
102cab50:	e8bd8000 	ldmfd	sp!, {pc}
102cab54:	e3e00003 	mvn	r0, #3
102cab58:	eafffffb 	b	102cab4c <RIL_HTTP_ReadResponse+0x88>
102cab5c:	f03d20f0 	.word	0xf03d20f0
102cab60:	f03d5b00 	.word	0xf03d5b00
102cab64:	f03d2104 	.word	0xf03d2104
102cab68:	102d0348 	.word	0x102d0348
102cab6c:	102cf648 	.word	0x102cf648
102cab70:	102ca794 	.word	0x102ca794
102cab74:	102cf204 	.word	0x102cf204

102cab78 <RIL_HTTP_DownloadFile>:
102cab78:	e59fc08c 	ldr	ip, [pc, #140]	; 102cac0c <RIL_HTTP_DownloadFile+0x94>
102cab7c:	e92d40f0 	push	{r4, r5, r6, r7, lr}
102cab80:	e3a03005 	mov	r3, #5
102cab84:	e24dd00c 	sub	sp, sp, #12
102cab88:	e59f5080 	ldr	r5, [pc, #128]	; 102cac10 <RIL_HTTP_DownloadFile+0x98>
102cab8c:	e1a06001 	mov	r6, r1
102cab90:	e58c2014 	str	r2, [ip, #20]
102cab94:	e5cc3000 	strb	r3, [ip]
102cab98:	e1a07000 	mov	r7, r0
102cab9c:	e12fff35 	blx	r5
102caba0:	e59f306c 	ldr	r3, [pc, #108]	; 102cac14 <RIL_HTTP_DownloadFile+0x9c>
102caba4:	e2800014 	add	r0, r0, #20
102caba8:	e12fff33 	blx	r3
102cabac:	e59fc064 	ldr	ip, [pc, #100]	; 102cac18 <RIL_HTTP_DownloadFile+0xa0>
102cabb0:	e1a02007 	mov	r2, r7
102cabb4:	e1a03006 	mov	r3, r6
102cabb8:	e59f105c 	ldr	r1, [pc, #92]	; 102cac1c <RIL_HTTP_DownloadFile+0xa4>
102cabbc:	e59cc000 	ldr	ip, [ip]
102cabc0:	e1a04000 	mov	r4, r0
102cabc4:	e12fff3c 	blx	ip
102cabc8:	e1a00004 	mov	r0, r4
102cabcc:	e12fff35 	blx	r5
102cabd0:	e3a0c000 	mov	ip, #0
102cabd4:	e1a0200c 	mov	r2, ip
102cabd8:	e1a0300c 	mov	r3, ip
102cabdc:	e58dc000 	str	ip, [sp]
102cabe0:	e59fc038 	ldr	ip, [pc, #56]	; 102cac20 <RIL_HTTP_DownloadFile+0xa8>
102cabe4:	e1a01000 	mov	r1, r0
102cabe8:	e1a00004 	mov	r0, r4
102cabec:	e12fff3c 	blx	ip
102cabf0:	e59f302c 	ldr	r3, [pc, #44]	; 102cac24 <RIL_HTTP_DownloadFile+0xac>
102cabf4:	e1a05000 	mov	r5, r0
102cabf8:	e1a00004 	mov	r0, r4
102cabfc:	e12fff33 	blx	r3
102cac00:	e1a00005 	mov	r0, r5
102cac04:	e28dd00c 	add	sp, sp, #12
102cac08:	e8bd80f0 	pop	{r4, r5, r6, r7, pc}
102cac0c:	f03d2104 	.word	0xf03d2104
102cac10:	102cf648 	.word	0x102cf648
102cac14:	102ce808 	.word	0x102ce808
102cac18:	f03d5b00 	.word	0xf03d5b00
102cac1c:	102d035c 	.word	0x102d035c
102cac20:	102cf204 	.word	0x102cf204
102cac24:	102ce880 	.word	0x102ce880

102cac28 <RIL_GetInitCmdCnt>:
102cac28:	e3a00006 	mov	r0, #6
102cac2c:	e12fff1e 	bx	lr

102cac30 <RIL_GetLimitedCmdCnt>:
102cac30:	e3a00002 	mov	r0, #2
102cac34:	e12fff1e 	bx	lr

102cac38 <RIL_GetLocation>:
102cac38:	e59f3060 	ldr	r3, [pc, #96]	; 102caca0 <RIL_GetLocation+0x68>
102cac3c:	e52de004 	push	{lr}		; (str lr, [sp, #-4]!)
102cac40:	e24dd0d4 	sub	sp, sp, #212	; 0xd4
102cac44:	e3a020c8 	mov	r2, #200	; 0xc8
102cac48:	e5830000 	str	r0, [r3]
102cac4c:	e3a01000 	mov	r1, #0
102cac50:	e28d0008 	add	r0, sp, #8
102cac54:	e59f3048 	ldr	r3, [pc, #72]	; 102caca4 <RIL_GetLocation+0x6c>
102cac58:	e12fff33 	blx	r3
102cac5c:	e59f3044 	ldr	r3, [pc, #68]	; 102caca8 <RIL_GetLocation+0x70>
102cac60:	e59f1044 	ldr	r1, [pc, #68]	; 102cacac <RIL_GetLocation+0x74>
102cac64:	e5933000 	ldr	r3, [r3]
102cac68:	e28d0008 	add	r0, sp, #8
102cac6c:	e12fff33 	blx	r3
102cac70:	e28d0008 	add	r0, sp, #8
102cac74:	e59f3034 	ldr	r3, [pc, #52]	; 102cacb0 <RIL_GetLocation+0x78>
102cac78:	e12fff33 	blx	r3
102cac7c:	e3a03000 	mov	r3, #0
102cac80:	e1a02003 	mov	r2, r3
102cac84:	e58d3000 	str	r3, [sp]
102cac88:	e59fc024 	ldr	ip, [pc, #36]	; 102cacb4 <RIL_GetLocation+0x7c>
102cac8c:	e1a01000 	mov	r1, r0
102cac90:	e28d0008 	add	r0, sp, #8
102cac94:	e12fff3c 	blx	ip
102cac98:	e28dd0d4 	add	sp, sp, #212	; 0xd4
102cac9c:	e8bd8000 	ldmfd	sp!, {pc}
102caca0:	f03d211c 	.word	0xf03d211c
102caca4:	102cf798 	.word	0x102cf798
102caca8:	f03d5b00 	.word	0xf03d5b00
102cacac:	102d1668 	.word	0x102d1668
102cacb0:	102cf648 	.word	0x102cf648
102cacb4:	102cf204 	.word	0x102cf204

102cacb8 <RIL_GetLocationByCell>:
102cacb8:	e59f30cc 	ldr	r3, [pc, #204]	; 102cad8c <RIL_GetLocationByCell+0xd4>
102cacbc:	e92d45f0 	push	{r4, r5, r6, r7, r8, sl, lr}
102cacc0:	e59f80c8 	ldr	r8, [pc, #200]	; 102cad90 <RIL_GetLocationByCell+0xd8>
102cacc4:	e24dd0dc 	sub	sp, sp, #220	; 0xdc
102cacc8:	e1a05000 	mov	r5, r0
102caccc:	e3a020c8 	mov	r2, #200	; 0xc8
102cacd0:	e5831000 	str	r1, [r3]
102cacd4:	e59fa0b8 	ldr	sl, [pc, #184]	; 102cad94 <RIL_GetLocationByCell+0xdc>
102cacd8:	e3a01000 	mov	r1, #0
102cacdc:	e28d0010 	add	r0, sp, #16
102cace0:	e12fff3a 	blx	sl
102cace4:	e5983000 	ldr	r3, [r8]
102cace8:	e59f10a8 	ldr	r1, [pc, #168]	; 102cad98 <RIL_GetLocationByCell+0xe0>
102cacec:	e28d0010 	add	r0, sp, #16
102cacf0:	e12fff33 	blx	r3
102cacf4:	e59f70a0 	ldr	r7, [pc, #160]	; 102cad9c <RIL_GetLocationByCell+0xe4>
102cacf8:	e28d0010 	add	r0, sp, #16
102cacfc:	e12fff37 	blx	r7
102cad00:	e3a04000 	mov	r4, #0
102cad04:	e1a03004 	mov	r3, r4
102cad08:	e1a02004 	mov	r2, r4
102cad0c:	e58d4000 	str	r4, [sp]
102cad10:	e59f6088 	ldr	r6, [pc, #136]	; 102cada0 <RIL_GetLocationByCell+0xe8>
102cad14:	e1a01000 	mov	r1, r0
102cad18:	e28d0010 	add	r0, sp, #16
102cad1c:	e12fff36 	blx	r6
102cad20:	e1a01004 	mov	r1, r4
102cad24:	e28d0010 	add	r0, sp, #16
102cad28:	e3a020c8 	mov	r2, #200	; 0xc8
102cad2c:	e12fff3a 	blx	sl
102cad30:	e1d5e0b0 	ldrh	lr, [r5]
102cad34:	e1d5a0b2 	ldrh	sl, [r5, #2]
102cad38:	e1d5c0fc 	ldrsh	ip, [r5, #12]
102cad3c:	e1d500be 	ldrh	r0, [r5, #14]
102cad40:	e5952008 	ldr	r2, [r5, #8]
102cad44:	e5953004 	ldr	r3, [r5, #4]
102cad48:	e59f1054 	ldr	r1, [pc, #84]	; 102cada4 <RIL_GetLocationByCell+0xec>
102cad4c:	e88d4400 	stm	sp, {sl, lr}
102cad50:	e58dc008 	str	ip, [sp, #8]
102cad54:	e58d000c 	str	r0, [sp, #12]
102cad58:	e598c000 	ldr	ip, [r8]
102cad5c:	e28d0010 	add	r0, sp, #16
102cad60:	e12fff3c 	blx	ip
102cad64:	e28d0010 	add	r0, sp, #16
102cad68:	e12fff37 	blx	r7
102cad6c:	e1a02004 	mov	r2, r4
102cad70:	e58d4000 	str	r4, [sp]
102cad74:	e1a03004 	mov	r3, r4
102cad78:	e1a01000 	mov	r1, r0
102cad7c:	e28d0010 	add	r0, sp, #16
102cad80:	e12fff36 	blx	r6
102cad84:	e28dd0dc 	add	sp, sp, #220	; 0xdc
102cad88:	e8bd85f0 	pop	{r4, r5, r6, r7, r8, sl, pc}
102cad8c:	f03d211c 	.word	0xf03d211c
102cad90:	f03d5b00 	.word	0xf03d5b00
102cad94:	102cf798 	.word	0x102cf798
102cad98:	102d1678 	.word	0x102d1678
102cad9c:	102cf648 	.word	0x102cf648
102cada0:	102cf204 	.word	0x102cf204
102cada4:	102d1690 	.word	0x102d1690

102cada8 <OnURCHandler_QCELLLocation>:
102cada8:	e92d41f0 	push	{r4, r5, r6, r7, r8, lr}
102cadac:	e59f50a8 	ldr	r5, [pc, #168]	; 102cae5c <OnURCHandler_QCELLLocation+0xb4>
102cadb0:	e24dd028 	sub	sp, sp, #40	; 0x28
102cadb4:	e5953000 	ldr	r3, [r5]
102cadb8:	e1a04000 	mov	r4, r0
102cadbc:	e3530000 	cmp	r3, #0
102cadc0:	0a000009 	beq	102cadec <OnURCHandler_QCELLLocation+0x44>
102cadc4:	e59f1094 	ldr	r1, [pc, #148]	; 102cae60 <OnURCHandler_QCELLLocation+0xb8>
102cadc8:	e59f3094 	ldr	r3, [pc, #148]	; 102cae64 <OnURCHandler_QCELLLocation+0xbc>
102cadcc:	e28d0008 	add	r0, sp, #8
102cadd0:	e12fff33 	blx	r3
102cadd4:	e1a00004 	mov	r0, r4
102cadd8:	e28d1008 	add	r1, sp, #8
102caddc:	e59f3084 	ldr	r3, [pc, #132]	; 102cae68 <OnURCHandler_QCELLLocation+0xc0>
102cade0:	e12fff33 	blx	r3
102cade4:	e3500000 	cmp	r0, #0
102cade8:	1a000001 	bne	102cadf4 <OnURCHandler_QCELLLocation+0x4c>
102cadec:	e28dd028 	add	sp, sp, #40	; 0x28
102cadf0:	e8bd81f0 	pop	{r4, r5, r6, r7, r8, pc}
102cadf4:	e59f8070 	ldr	r8, [pc, #112]	; 102cae6c <OnURCHandler_QCELLLocation+0xc4>
102cadf8:	e28d2008 	add	r2, sp, #8
102cadfc:	e5983000 	ldr	r3, [r8]
102cae00:	e59f1068 	ldr	r1, [pc, #104]	; 102cae70 <OnURCHandler_QCELLLocation+0xc8>
102cae04:	e1a00004 	mov	r0, r4
102cae08:	e12fff33 	blx	r3
102cae0c:	e59f7060 	ldr	r7, [pc, #96]	; 102cae74 <OnURCHandler_QCELLLocation+0xcc>
102cae10:	e28d0008 	add	r0, sp, #8
102cae14:	e12fff37 	blx	r7
102cae18:	e59f6058 	ldr	r6, [pc, #88]	; 102cae78 <OnURCHandler_QCELLLocation+0xd0>
102cae1c:	e12fff36 	blx	r6
102cae20:	e5983000 	ldr	r3, [r8]
102cae24:	e28d2008 	add	r2, sp, #8
102cae28:	e59f104c 	ldr	r1, [pc, #76]	; 102cae7c <OnURCHandler_QCELLLocation+0xd4>
102cae2c:	e58d0000 	str	r0, [sp]
102cae30:	e1a00004 	mov	r0, r4
102cae34:	e12fff33 	blx	r3
102cae38:	e28d0008 	add	r0, sp, #8
102cae3c:	e12fff37 	blx	r7
102cae40:	e12fff36 	blx	r6
102cae44:	e5953000 	ldr	r3, [r5]
102cae48:	e1a0100d 	mov	r1, sp
102cae4c:	e58d0004 	str	r0, [sp, #4]
102cae50:	e3a00000 	mov	r0, #0
102cae54:	e12fff33 	blx	r3
102cae58:	eaffffe3 	b	102cadec <OnURCHandler_QCELLLocation+0x44>
102cae5c:	f03d211c 	.word	0xf03d211c
102cae60:	102d0370 	.word	0x102d0370
102cae64:	102cf520 	.word	0x102cf520
102cae68:	102ccb6c 	.word	0x102ccb6c
102cae6c:	f03d5b08 	.word	0xf03d5b08
102cae70:	102d15a0 	.word	0x102d15a0
102cae74:	102cf488 	.word	0x102cf488
102cae78:	102ce6a8 	.word	0x102ce6a8
102cae7c:	102d15b0 	.word	0x102d15b0

102cae80 <ATRsp_COPS_Handler>:
102cae80:	e92d41f0 	push	{r4, r5, r6, r7, r8, lr}
102cae84:	e1a06002 	mov	r6, r2
102cae88:	e59f50e8 	ldr	r5, [pc, #232]	; 102caf78 <ATRsp_COPS_Handler+0xf8>
102cae8c:	e59f20e8 	ldr	r2, [pc, #232]	; 102caf7c <ATRsp_COPS_Handler+0xfc>
102cae90:	e1a08000 	mov	r8, r0
102cae94:	e1a07001 	mov	r7, r1
102cae98:	e12fff35 	blx	r5
102cae9c:	e2504000 	subs	r4, r0, #0
102caea0:	0a00001b 	beq	102caf14 <ATRsp_COPS_Handler+0x94>
102caea4:	e59f30d4 	ldr	r3, [pc, #212]	; 102caf80 <ATRsp_COPS_Handler+0x100>
102caea8:	e59f00d4 	ldr	r0, [pc, #212]	; 102caf84 <ATRsp_COPS_Handler+0x104>
102caeac:	e12fff33 	blx	r3
102caeb0:	e59f50d0 	ldr	r5, [pc, #208]	; 102caf88 <ATRsp_COPS_Handler+0x108>
102caeb4:	e59f10d0 	ldr	r1, [pc, #208]	; 102caf8c <ATRsp_COPS_Handler+0x10c>
102caeb8:	e0844000 	add	r4, r4, r0
102caebc:	e1a00004 	mov	r0, r4
102caec0:	e12fff35 	blx	r5
102caec4:	e3540000 	cmp	r4, #0
102caec8:	0a00000e 	beq	102caf08 <ATRsp_COPS_Handler+0x88>
102caecc:	e2807001 	add	r7, r0, #1
102caed0:	e1a00007 	mov	r0, r7
102caed4:	e59f10b0 	ldr	r1, [pc, #176]	; 102caf8c <ATRsp_COPS_Handler+0x10c>
102caed8:	e12fff35 	blx	r5
102caedc:	e3500000 	cmp	r0, #0
102caee0:	08bd81f0 	popeq	{r4, r5, r6, r7, r8, pc}
102caee4:	e0675000 	rsb	r5, r7, r0
102caee8:	e1a01007 	mov	r1, r7
102caeec:	e1a00006 	mov	r0, r6
102caef0:	e1a02005 	mov	r2, r5
102caef4:	e59f3094 	ldr	r3, [pc, #148]	; 102caf90 <ATRsp_COPS_Handler+0x110>
102caef8:	e12fff33 	blx	r3
102caefc:	e3a00000 	mov	r0, #0
102caf00:	e7c60005 	strb	r0, [r6, r5]
102caf04:	e8bd81f0 	pop	{r4, r5, r6, r7, r8, pc}
102caf08:	e5c64000 	strb	r4, [r6]
102caf0c:	e1a00004 	mov	r0, r4
102caf10:	e8bd81f0 	pop	{r4, r5, r6, r7, r8, pc}
102caf14:	e1a00008 	mov	r0, r8
102caf18:	e1a01007 	mov	r1, r7
102caf1c:	e59f2070 	ldr	r2, [pc, #112]	; 102caf94 <ATRsp_COPS_Handler+0x114>
102caf20:	e59f6070 	ldr	r6, [pc, #112]	; 102caf98 <ATRsp_COPS_Handler+0x118>
102caf24:	e12fff36 	blx	r6
102caf28:	e3500000 	cmp	r0, #0
102caf2c:	0a000001 	beq	102caf38 <ATRsp_COPS_Handler+0xb8>
102caf30:	e1a00004 	mov	r0, r4
102caf34:	e8bd81f0 	pop	{r4, r5, r6, r7, r8, pc}
102caf38:	e1a00008 	mov	r0, r8
102caf3c:	e1a01007 	mov	r1, r7
102caf40:	e59f2054 	ldr	r2, [pc, #84]	; 102caf9c <ATRsp_COPS_Handler+0x11c>
102caf44:	e12fff36 	blx	r6
102caf48:	e3500000 	cmp	r0, #0
102caf4c:	1a000007 	bne	102caf70 <ATRsp_COPS_Handler+0xf0>
102caf50:	e1a00008 	mov	r0, r8
102caf54:	e1a01007 	mov	r1, r7
102caf58:	e59f2040 	ldr	r2, [pc, #64]	; 102cafa0 <ATRsp_COPS_Handler+0x120>
102caf5c:	e12fff35 	blx	r5
102caf60:	e3500000 	cmp	r0, #0
102caf64:	1a000001 	bne	102caf70 <ATRsp_COPS_Handler+0xf0>
102caf68:	e3a00001 	mov	r0, #1
102caf6c:	e8bd81f0 	pop	{r4, r5, r6, r7, r8, pc}
102caf70:	e3e00000 	mvn	r0, #0
102caf74:	e8bd81f0 	pop	{r4, r5, r6, r7, r8, pc}
102caf78:	102cccac 	.word	0x102cccac
102caf7c:	102d16b4 	.word	0x102d16b4
102caf80:	102cf648 	.word	0x102cf648
102caf84:	102d16bc 	.word	0x102d16bc
102caf88:	102cf8a8 	.word	0x102cf8a8
102caf8c:	102d1218 	.word	0x102d1218
102caf90:	102cf820 	.word	0x102cf820
102caf94:	102d17a8 	.word	0x102d17a8
102caf98:	102ccd38 	.word	0x102ccd38
102caf9c:	102d0fdc 	.word	0x102d0fdc
102cafa0:	102d0fe4 	.word	0x102d0fe4

102cafa4 <ATRsp_QIDEACT_Hdlr>:
102cafa4:	e92d4070 	push	{r4, r5, r6, lr}
102cafa8:	e59f203c 	ldr	r2, [pc, #60]	; 102cafec <ATRsp_QIDEACT_Hdlr+0x48>
102cafac:	e59f403c 	ldr	r4, [pc, #60]	; 102caff0 <ATRsp_QIDEACT_Hdlr+0x4c>
102cafb0:	e1a06000 	mov	r6, r0
102cafb4:	e1a05001 	mov	r5, r1
102cafb8:	e12fff34 	blx	r4
102cafbc:	e3500000 	cmp	r0, #0
102cafc0:	0a000001 	beq	102cafcc <ATRsp_QIDEACT_Hdlr+0x28>
102cafc4:	e3a00000 	mov	r0, #0
102cafc8:	e8bd8070 	pop	{r4, r5, r6, pc}
102cafcc:	e1a00006 	mov	r0, r6
102cafd0:	e1a01005 	mov	r1, r5
102cafd4:	e59f2018 	ldr	r2, [pc, #24]	; 102caff4 <ATRsp_QIDEACT_Hdlr+0x50>
102cafd8:	e12fff34 	blx	r4
102cafdc:	e3500000 	cmp	r0, #0
102cafe0:	03a00001 	moveq	r0, #1
102cafe4:	13e00000 	mvnne	r0, #0
102cafe8:	e8bd8070 	pop	{r4, r5, r6, pc}
102cafec:	102d16c4 	.word	0x102d16c4
102caff0:	102ccd38 	.word	0x102ccd38
102caff4:	102d0fdc 	.word	0x102d0fdc

102caff8 <ATResponse_CSQ_Handler>:
102caff8:	e92d41f0 	push	{r4, r5, r6, r7, r8, lr}
102caffc:	e1a05002 	mov	r5, r2
102cb000:	e59f4098 	ldr	r4, [pc, #152]	; 102cb0a0 <ATResponse_CSQ_Handler+0xa8>
102cb004:	e59f2098 	ldr	r2, [pc, #152]	; 102cb0a4 <ATResponse_CSQ_Handler+0xac>
102cb008:	e1a07000 	mov	r7, r0
102cb00c:	e1a06001 	mov	r6, r1
102cb010:	e12fff34 	blx	r4
102cb014:	e2508000 	subs	r8, r0, #0
102cb018:	0a000007 	beq	102cb03c <ATResponse_CSQ_Handler+0x44>
102cb01c:	e59f3084 	ldr	r3, [pc, #132]	; 102cb0a8 <ATResponse_CSQ_Handler+0xb0>
102cb020:	e1a02005 	mov	r2, r5
102cb024:	e593c000 	ldr	ip, [r3]
102cb028:	e59f107c 	ldr	r1, [pc, #124]	; 102cb0ac <ATResponse_CSQ_Handler+0xb4>
102cb02c:	e2853004 	add	r3, r5, #4
102cb030:	e12fff3c 	blx	ip
102cb034:	e3a00001 	mov	r0, #1
102cb038:	e8bd81f0 	pop	{r4, r5, r6, r7, r8, pc}
102cb03c:	e1a00007 	mov	r0, r7
102cb040:	e1a01006 	mov	r1, r6
102cb044:	e59f2064 	ldr	r2, [pc, #100]	; 102cb0b0 <ATResponse_CSQ_Handler+0xb8>
102cb048:	e59f5064 	ldr	r5, [pc, #100]	; 102cb0b4 <ATResponse_CSQ_Handler+0xbc>
102cb04c:	e12fff35 	blx	r5
102cb050:	e3500000 	cmp	r0, #0
102cb054:	0a000001 	beq	102cb060 <ATResponse_CSQ_Handler+0x68>
102cb058:	e1a00008 	mov	r0, r8
102cb05c:	e8bd81f0 	pop	{r4, r5, r6, r7, r8, pc}
102cb060:	e1a00007 	mov	r0, r7
102cb064:	e1a01006 	mov	r1, r6
102cb068:	e59f2048 	ldr	r2, [pc, #72]	; 102cb0b8 <ATResponse_CSQ_Handler+0xc0>
102cb06c:	e12fff35 	blx	r5
102cb070:	e3500000 	cmp	r0, #0
102cb074:	1a000007 	bne	102cb098 <ATResponse_CSQ_Handler+0xa0>
102cb078:	e1a00007 	mov	r0, r7
102cb07c:	e1a01006 	mov	r1, r6
102cb080:	e59f2034 	ldr	r2, [pc, #52]	; 102cb0bc <ATResponse_CSQ_Handler+0xc4>
102cb084:	e12fff34 	blx	r4
102cb088:	e3500000 	cmp	r0, #0
102cb08c:	03a00001 	moveq	r0, #1
102cb090:	13e00000 	mvnne	r0, #0
102cb094:	e8bd81f0 	pop	{r4, r5, r6, r7, r8, pc}
102cb098:	e3e00000 	mvn	r0, #0
102cb09c:	e8bd81f0 	pop	{r4, r5, r6, r7, r8, pc}
102cb0a0:	102cccac 	.word	0x102cccac
102cb0a4:	102d16d0 	.word	0x102d16d0
102cb0a8:	f03d5b08 	.word	0xf03d5b08
102cb0ac:	102d16d8 	.word	0x102d16d8
102cb0b0:	102d17a8 	.word	0x102d17a8
102cb0b4:	102ccd38 	.word	0x102ccd38
102cb0b8:	102d0fdc 	.word	0x102d0fdc
102cb0bc:	102d0fe4 	.word	0x102d0fe4

102cb0c0 <ATResponse_CGREG_Handler>:
102cb0c0:	e92d41f0 	push	{r4, r5, r6, r7, r8, lr}
102cb0c4:	e1a05002 	mov	r5, r2
102cb0c8:	e24dd008 	sub	sp, sp, #8
102cb0cc:	e59f409c 	ldr	r4, [pc, #156]	; 102cb170 <ATResponse_CGREG_Handler+0xb0>
102cb0d0:	e59f209c 	ldr	r2, [pc, #156]	; 102cb174 <ATResponse_CGREG_Handler+0xb4>
102cb0d4:	e1a07000 	mov	r7, r0
102cb0d8:	e1a06001 	mov	r6, r1
102cb0dc:	e12fff34 	blx	r4
102cb0e0:	e2508000 	subs	r8, r0, #0
102cb0e4:	0a00000a 	beq	102cb114 <ATResponse_CGREG_Handler+0x54>
102cb0e8:	e28d2008 	add	r2, sp, #8
102cb0ec:	e3a03000 	mov	r3, #0
102cb0f0:	e5223004 	str	r3, [r2, #-4]!
102cb0f4:	e59f307c 	ldr	r3, [pc, #124]	; 102cb178 <ATResponse_CGREG_Handler+0xb8>
102cb0f8:	e59f107c 	ldr	r1, [pc, #124]	; 102cb17c <ATResponse_CGREG_Handler+0xbc>
102cb0fc:	e5934000 	ldr	r4, [r3]
102cb100:	e1a03005 	mov	r3, r5
102cb104:	e12fff34 	blx	r4
102cb108:	e3a00001 	mov	r0, #1
102cb10c:	e28dd008 	add	sp, sp, #8
102cb110:	e8bd81f0 	pop	{r4, r5, r6, r7, r8, pc}
102cb114:	e1a00007 	mov	r0, r7
102cb118:	e1a01006 	mov	r1, r6
102cb11c:	e59f205c 	ldr	r2, [pc, #92]	; 102cb180 <ATResponse_CGREG_Handler+0xc0>
102cb120:	e59f505c 	ldr	r5, [pc, #92]	; 102cb184 <ATResponse_CGREG_Handler+0xc4>
102cb124:	e12fff35 	blx	r5
102cb128:	e3500000 	cmp	r0, #0
102cb12c:	11a00008 	movne	r0, r8
102cb130:	1afffff5 	bne	102cb10c <ATResponse_CGREG_Handler+0x4c>
102cb134:	e1a00007 	mov	r0, r7
102cb138:	e1a01006 	mov	r1, r6
102cb13c:	e59f2044 	ldr	r2, [pc, #68]	; 102cb188 <ATResponse_CGREG_Handler+0xc8>
102cb140:	e12fff35 	blx	r5
102cb144:	e3500000 	cmp	r0, #0
102cb148:	13e00000 	mvnne	r0, #0
102cb14c:	1affffee 	bne	102cb10c <ATResponse_CGREG_Handler+0x4c>
102cb150:	e1a00007 	mov	r0, r7
102cb154:	e1a01006 	mov	r1, r6
102cb158:	e59f202c 	ldr	r2, [pc, #44]	; 102cb18c <ATResponse_CGREG_Handler+0xcc>
102cb15c:	e12fff34 	blx	r4
102cb160:	e3500000 	cmp	r0, #0
102cb164:	03a00001 	moveq	r0, #1
102cb168:	13e00000 	mvnne	r0, #0
102cb16c:	eaffffe6 	b	102cb10c <ATResponse_CGREG_Handler+0x4c>
102cb170:	102cccac 	.word	0x102cccac
102cb174:	102d16ec 	.word	0x102d16ec
102cb178:	f03d5b08 	.word	0xf03d5b08
102cb17c:	102d16d8 	.word	0x102d16d8
102cb180:	102d17a8 	.word	0x102d17a8
102cb184:	102ccd38 	.word	0x102ccd38
102cb188:	102d0fdc 	.word	0x102d0fdc
102cb18c:	102d0fe4 	.word	0x102d0fe4

102cb190 <ATResponse_CREG_Handler>:
102cb190:	e92d41f0 	push	{r4, r5, r6, r7, r8, lr}
102cb194:	e1a05002 	mov	r5, r2
102cb198:	e24dd008 	sub	sp, sp, #8
102cb19c:	e59f409c 	ldr	r4, [pc, #156]	; 102cb240 <ATResponse_CREG_Handler+0xb0>
102cb1a0:	e59f209c 	ldr	r2, [pc, #156]	; 102cb244 <ATResponse_CREG_Handler+0xb4>
102cb1a4:	e1a07000 	mov	r7, r0
102cb1a8:	e1a06001 	mov	r6, r1
102cb1ac:	e12fff34 	blx	r4
102cb1b0:	e2508000 	subs	r8, r0, #0
102cb1b4:	0a00000a 	beq	102cb1e4 <ATResponse_CREG_Handler+0x54>
102cb1b8:	e28d2008 	add	r2, sp, #8
102cb1bc:	e3a03000 	mov	r3, #0
102cb1c0:	e5223004 	str	r3, [r2, #-4]!
102cb1c4:	e59f307c 	ldr	r3, [pc, #124]	; 102cb248 <ATResponse_CREG_Handler+0xb8>
102cb1c8:	e59f107c 	ldr	r1, [pc, #124]	; 102cb24c <ATResponse_CREG_Handler+0xbc>
102cb1cc:	e5934000 	ldr	r4, [r3]
102cb1d0:	e1a03005 	mov	r3, r5
102cb1d4:	e12fff34 	blx	r4
102cb1d8:	e3a00001 	mov	r0, #1
102cb1dc:	e28dd008 	add	sp, sp, #8
102cb1e0:	e8bd81f0 	pop	{r4, r5, r6, r7, r8, pc}
102cb1e4:	e1a00007 	mov	r0, r7
102cb1e8:	e1a01006 	mov	r1, r6
102cb1ec:	e59f205c 	ldr	r2, [pc, #92]	; 102cb250 <ATResponse_CREG_Handler+0xc0>
102cb1f0:	e59f505c 	ldr	r5, [pc, #92]	; 102cb254 <ATResponse_CREG_Handler+0xc4>
102cb1f4:	e12fff35 	blx	r5
102cb1f8:	e3500000 	cmp	r0, #0
102cb1fc:	11a00008 	movne	r0, r8
102cb200:	1afffff5 	bne	102cb1dc <ATResponse_CREG_Handler+0x4c>
102cb204:	e1a00007 	mov	r0, r7
102cb208:	e1a01006 	mov	r1, r6
102cb20c:	e59f2044 	ldr	r2, [pc, #68]	; 102cb258 <ATResponse_CREG_Handler+0xc8>
102cb210:	e12fff35 	blx	r5
102cb214:	e3500000 	cmp	r0, #0
102cb218:	13e00000 	mvnne	r0, #0
102cb21c:	1affffee 	bne	102cb1dc <ATResponse_CREG_Handler+0x4c>
102cb220:	e1a00007 	mov	r0, r7
102cb224:	e1a01006 	mov	r1, r6
102cb228:	e59f202c 	ldr	r2, [pc, #44]	; 102cb25c <ATResponse_CREG_Handler+0xcc>
102cb22c:	e12fff34 	blx	r4
102cb230:	e3500000 	cmp	r0, #0
102cb234:	03a00001 	moveq	r0, #1
102cb238:	13e00000 	mvnne	r0, #0
102cb23c:	eaffffe6 	b	102cb1dc <ATResponse_CREG_Handler+0x4c>
102cb240:	102cccac 	.word	0x102cccac
102cb244:	102d16f4 	.word	0x102d16f4
102cb248:	f03d5b08 	.word	0xf03d5b08
102cb24c:	102d16d8 	.word	0x102d16d8
102cb250:	102d17a8 	.word	0x102d17a8
102cb254:	102ccd38 	.word	0x102ccd38
102cb258:	102d0fdc 	.word	0x102d0fdc
102cb25c:	102d0fe4 	.word	0x102d0fe4

102cb260 <RIL_NW_GetGSMState>:
102cb260:	e59f305c 	ldr	r3, [pc, #92]	; 102cb2c4 <RIL_NW_GetGSMState+0x64>
102cb264:	e92d4030 	push	{r4, r5, lr}
102cb268:	e1a05000 	mov	r5, r0
102cb26c:	e8930007 	ldm	r3, {r0, r1, r2}
102cb270:	e24dd01c 	sub	sp, sp, #28
102cb274:	e28d300c 	add	r3, sp, #12
102cb278:	e8a30003 	stmia	r3!, {r0, r1}
102cb27c:	e3a04000 	mov	r4, #0
102cb280:	e1c320b0 	strh	r2, [r3]
102cb284:	e28d000c 	add	r0, sp, #12
102cb288:	e59f3038 	ldr	r3, [pc, #56]	; 102cb2c8 <RIL_NW_GetGSMState+0x68>
102cb28c:	e58d4008 	str	r4, [sp, #8]
102cb290:	e12fff33 	blx	r3
102cb294:	e28d3008 	add	r3, sp, #8
102cb298:	e58d4000 	str	r4, [sp]
102cb29c:	e59f2028 	ldr	r2, [pc, #40]	; 102cb2cc <RIL_NW_GetGSMState+0x6c>
102cb2a0:	e59fc028 	ldr	ip, [pc, #40]	; 102cb2d0 <RIL_NW_GetGSMState+0x70>
102cb2a4:	e1a01000 	mov	r1, r0
102cb2a8:	e28d000c 	add	r0, sp, #12
102cb2ac:	e12fff3c 	blx	ip
102cb2b0:	e3500000 	cmp	r0, #0
102cb2b4:	059d3008 	ldreq	r3, [sp, #8]
102cb2b8:	05853000 	streq	r3, [r5]
102cb2bc:	e28dd01c 	add	sp, sp, #28
102cb2c0:	e8bd8030 	pop	{r4, r5, pc}
102cb2c4:	102d0380 	.word	0x102d0380
102cb2c8:	102cf648 	.word	0x102cf648
102cb2cc:	102cb190 	.word	0x102cb190
102cb2d0:	102cf204 	.word	0x102cf204

102cb2d4 <RIL_NW_GetGPRSState>:
102cb2d4:	e59f3064 	ldr	r3, [pc, #100]	; 102cb340 <RIL_NW_GetGPRSState+0x6c>
102cb2d8:	e92d4030 	push	{r4, r5, lr}
102cb2dc:	e1a05000 	mov	r5, r0
102cb2e0:	e8930007 	ldm	r3, {r0, r1, r2}
102cb2e4:	e24dd01c 	sub	sp, sp, #28
102cb2e8:	e28d300c 	add	r3, sp, #12
102cb2ec:	e8a30003 	stmia	r3!, {r0, r1}
102cb2f0:	e1a01822 	lsr	r1, r2, #16
102cb2f4:	e0c320b2 	strh	r2, [r3], #2
102cb2f8:	e3a04000 	mov	r4, #0
102cb2fc:	e5c31000 	strb	r1, [r3]
102cb300:	e28d000c 	add	r0, sp, #12
102cb304:	e59f3038 	ldr	r3, [pc, #56]	; 102cb344 <RIL_NW_GetGPRSState+0x70>
102cb308:	e58d4008 	str	r4, [sp, #8]
102cb30c:	e12fff33 	blx	r3
102cb310:	e28d3008 	add	r3, sp, #8
102cb314:	e58d4000 	str	r4, [sp]
102cb318:	e59f2028 	ldr	r2, [pc, #40]	; 102cb348 <RIL_NW_GetGPRSState+0x74>
102cb31c:	e59fc028 	ldr	ip, [pc, #40]	; 102cb34c <RIL_NW_GetGPRSState+0x78>
102cb320:	e1a01000 	mov	r1, r0
102cb324:	e28d000c 	add	r0, sp, #12
102cb328:	e12fff3c 	blx	ip
102cb32c:	e3500000 	cmp	r0, #0
102cb330:	059d3008 	ldreq	r3, [sp, #8]
102cb334:	05853000 	streq	r3, [r5]
102cb338:	e28dd01c 	add	sp, sp, #28
102cb33c:	e8bd8030 	pop	{r4, r5, pc}
102cb340:	102d038c 	.word	0x102d038c
102cb344:	102cf648 	.word	0x102cf648
102cb348:	102cb0c0 	.word	0x102cb0c0
102cb34c:	102cf204 	.word	0x102cf204

102cb350 <RIL_NW_GetSignalQuality>:
102cb350:	e59f3074 	ldr	r3, [pc, #116]	; 102cb3cc <RIL_NW_GetSignalQuality+0x7c>
102cb354:	e92d4070 	push	{r4, r5, r6, lr}
102cb358:	e1a06000 	mov	r6, r0
102cb35c:	e24dd018 	sub	sp, sp, #24
102cb360:	e1a05001 	mov	r5, r1
102cb364:	e8930003 	ldm	r3, {r0, r1}
102cb368:	e28d4008 	add	r4, sp, #8
102cb36c:	e8840003 	stm	r4, {r0, r1}
102cb370:	e3a02008 	mov	r2, #8
102cb374:	e3a01000 	mov	r1, #0
102cb378:	e28d0010 	add	r0, sp, #16
102cb37c:	e59f304c 	ldr	r3, [pc, #76]	; 102cb3d0 <RIL_NW_GetSignalQuality+0x80>
102cb380:	e12fff33 	blx	r3
102cb384:	e1a00004 	mov	r0, r4
102cb388:	e59f3044 	ldr	r3, [pc, #68]	; 102cb3d4 <RIL_NW_GetSignalQuality+0x84>
102cb38c:	e12fff33 	blx	r3
102cb390:	e3a03000 	mov	r3, #0
102cb394:	e58d3000 	str	r3, [sp]
102cb398:	e59f2038 	ldr	r2, [pc, #56]	; 102cb3d8 <RIL_NW_GetSignalQuality+0x88>
102cb39c:	e28d3010 	add	r3, sp, #16
102cb3a0:	e59fc034 	ldr	ip, [pc, #52]	; 102cb3dc <RIL_NW_GetSignalQuality+0x8c>
102cb3a4:	e1a01000 	mov	r1, r0
102cb3a8:	e1a00004 	mov	r0, r4
102cb3ac:	e12fff3c 	blx	ip
102cb3b0:	e3500000 	cmp	r0, #0
102cb3b4:	059d3010 	ldreq	r3, [sp, #16]
102cb3b8:	05863000 	streq	r3, [r6]
102cb3bc:	059d3014 	ldreq	r3, [sp, #20]
102cb3c0:	05853000 	streq	r3, [r5]
102cb3c4:	e28dd018 	add	sp, sp, #24
102cb3c8:	e8bd8070 	pop	{r4, r5, r6, pc}
102cb3cc:	102d0398 	.word	0x102d0398
102cb3d0:	102cf798 	.word	0x102cf798
102cb3d4:	102cf648 	.word	0x102cf648
102cb3d8:	102caff8 	.word	0x102caff8
102cb3dc:	102cf204 	.word	0x102cf204

102cb3e0 <RIL_NW_SetGPRSContext>:
102cb3e0:	e92d4010 	push	{r4, lr}
102cb3e4:	e24dd020 	sub	sp, sp, #32
102cb3e8:	e1a04000 	mov	r4, r0
102cb3ec:	e3a01000 	mov	r1, #0
102cb3f0:	e3a02014 	mov	r2, #20
102cb3f4:	e28d000c 	add	r0, sp, #12
102cb3f8:	e59f3048 	ldr	r3, [pc, #72]	; 102cb448 <RIL_NW_SetGPRSContext+0x68>
102cb3fc:	e12fff33 	blx	r3
102cb400:	e59f3044 	ldr	r3, [pc, #68]	; 102cb44c <RIL_NW_SetGPRSContext+0x6c>
102cb404:	e1a02004 	mov	r2, r4
102cb408:	e59f1040 	ldr	r1, [pc, #64]	; 102cb450 <RIL_NW_SetGPRSContext+0x70>
102cb40c:	e5933000 	ldr	r3, [r3]
102cb410:	e28d000c 	add	r0, sp, #12
102cb414:	e12fff33 	blx	r3
102cb418:	e28d000c 	add	r0, sp, #12
102cb41c:	e59f3030 	ldr	r3, [pc, #48]	; 102cb454 <RIL_NW_SetGPRSContext+0x74>
102cb420:	e12fff33 	blx	r3
102cb424:	e3a03000 	mov	r3, #0
102cb428:	e1a02003 	mov	r2, r3
102cb42c:	e58d3000 	str	r3, [sp]
102cb430:	e59fc020 	ldr	ip, [pc, #32]	; 102cb458 <RIL_NW_SetGPRSContext+0x78>
102cb434:	e1a01000 	mov	r1, r0
102cb438:	e28d000c 	add	r0, sp, #12
102cb43c:	e12fff3c 	blx	ip
102cb440:	e28dd020 	add	sp, sp, #32
102cb444:	e8bd8010 	pop	{r4, pc}
102cb448:	102cf798 	.word	0x102cf798
102cb44c:	f03d5b00 	.word	0xf03d5b00
102cb450:	102d16fc 	.word	0x102d16fc
102cb454:	102cf648 	.word	0x102cf648
102cb458:	102cf204 	.word	0x102cf204

102cb45c <RIL_NW_SetAPN>:
102cb45c:	e92d40f0 	push	{r4, r5, r6, r7, lr}
102cb460:	e24dd0d4 	sub	sp, sp, #212	; 0xd4
102cb464:	e1a04001 	mov	r4, r1
102cb468:	e1a05002 	mov	r5, r2
102cb46c:	e1a06000 	mov	r6, r0
102cb470:	e3a01000 	mov	r1, #0
102cb474:	e28d0008 	add	r0, sp, #8
102cb478:	e3a020c8 	mov	r2, #200	; 0xc8
102cb47c:	e59fc0d0 	ldr	ip, [pc, #208]	; 102cb554 <RIL_NW_SetAPN+0xf8>
102cb480:	e1a07003 	mov	r7, r3
102cb484:	e12fff3c 	blx	ip
102cb488:	e2943000 	adds	r3, r4, #0
102cb48c:	13a03001 	movne	r3, #1
102cb490:	e3550000 	cmp	r5, #0
102cb494:	13540000 	cmpne	r4, #0
102cb498:	0a00000b 	beq	102cb4cc <RIL_NW_SetAPN+0x70>
102cb49c:	e3570000 	cmp	r7, #0
102cb4a0:	e58d5000 	str	r5, [sp]
102cb4a4:	0a00001d 	beq	102cb520 <RIL_NW_SetAPN+0xc4>
102cb4a8:	e59f30a8 	ldr	r3, [pc, #168]	; 102cb558 <RIL_NW_SetAPN+0xfc>
102cb4ac:	e58d7004 	str	r7, [sp, #4]
102cb4b0:	e28d0008 	add	r0, sp, #8
102cb4b4:	e593c000 	ldr	ip, [r3]
102cb4b8:	e59f109c 	ldr	r1, [pc, #156]	; 102cb55c <RIL_NW_SetAPN+0x100>
102cb4bc:	e1a02006 	mov	r2, r6
102cb4c0:	e1a03004 	mov	r3, r4
102cb4c4:	e12fff3c 	blx	ip
102cb4c8:	ea000008 	b	102cb4f0 <RIL_NW_SetAPN+0x94>
102cb4cc:	e3530000 	cmp	r3, #0
102cb4d0:	e28d0008 	add	r0, sp, #8
102cb4d4:	e59f307c 	ldr	r3, [pc, #124]	; 102cb558 <RIL_NW_SetAPN+0xfc>
102cb4d8:	0a000018 	beq	102cb540 <RIL_NW_SetAPN+0xe4>
102cb4dc:	e593c000 	ldr	ip, [r3]
102cb4e0:	e59f1074 	ldr	r1, [pc, #116]	; 102cb55c <RIL_NW_SetAPN+0x100>
102cb4e4:	e1a02006 	mov	r2, r6
102cb4e8:	e1a03004 	mov	r3, r4
102cb4ec:	e12fff3c 	blx	ip
102cb4f0:	e28d0008 	add	r0, sp, #8
102cb4f4:	e59f3064 	ldr	r3, [pc, #100]	; 102cb560 <RIL_NW_SetAPN+0x104>
102cb4f8:	e12fff33 	blx	r3
102cb4fc:	e3a03000 	mov	r3, #0
102cb500:	e1a02003 	mov	r2, r3
102cb504:	e58d3000 	str	r3, [sp]
102cb508:	e59fc054 	ldr	ip, [pc, #84]	; 102cb564 <RIL_NW_SetAPN+0x108>
102cb50c:	e1a01000 	mov	r1, r0
102cb510:	e28d0008 	add	r0, sp, #8
102cb514:	e12fff3c 	blx	ip
102cb518:	e28dd0d4 	add	sp, sp, #212	; 0xd4
102cb51c:	e8bd80f0 	pop	{r4, r5, r6, r7, pc}
102cb520:	e59f3030 	ldr	r3, [pc, #48]	; 102cb558 <RIL_NW_SetAPN+0xfc>
102cb524:	e28d0008 	add	r0, sp, #8
102cb528:	e593c000 	ldr	ip, [r3]
102cb52c:	e59f1028 	ldr	r1, [pc, #40]	; 102cb55c <RIL_NW_SetAPN+0x100>
102cb530:	e1a02006 	mov	r2, r6
102cb534:	e1a03004 	mov	r3, r4
102cb538:	e12fff3c 	blx	ip
102cb53c:	eaffffeb 	b	102cb4f0 <RIL_NW_SetAPN+0x94>
102cb540:	e5933000 	ldr	r3, [r3]
102cb544:	e59f101c 	ldr	r1, [pc, #28]	; 102cb568 <RIL_NW_SetAPN+0x10c>
102cb548:	e1a02006 	mov	r2, r6
102cb54c:	e12fff33 	blx	r3
102cb550:	eaffffe6 	b	102cb4f0 <RIL_NW_SetAPN+0x94>
102cb554:	102cf798 	.word	0x102cf798
102cb558:	f03d5b00 	.word	0xf03d5b00
102cb55c:	102d170c 	.word	0x102d170c
102cb560:	102cf648 	.word	0x102cf648
102cb564:	102cf204 	.word	0x102cf204
102cb568:	102d1720 	.word	0x102d1720

102cb56c <RIL_NW_GetIpStatusByName>:
102cb56c:	e92d4070 	push	{r4, r5, r6, lr}
102cb570:	e1a02001 	mov	r2, r1
102cb574:	e1a05001 	mov	r5, r1
102cb578:	e59f4150 	ldr	r4, [pc, #336]	; 102cb6d0 <RIL_NW_GetIpStatusByName+0x164>
102cb57c:	e59f1150 	ldr	r1, [pc, #336]	; 102cb6d4 <RIL_NW_GetIpStatusByName+0x168>
102cb580:	e1a06000 	mov	r6, r0
102cb584:	e12fff34 	blx	r4
102cb588:	e3500000 	cmp	r0, #0
102cb58c:	1a000001 	bne	102cb598 <RIL_NW_GetIpStatusByName+0x2c>
102cb590:	e3a00000 	mov	r0, #0
102cb594:	e8bd8070 	pop	{r4, r5, r6, pc}
102cb598:	e1a00006 	mov	r0, r6
102cb59c:	e59f1134 	ldr	r1, [pc, #308]	; 102cb6d8 <RIL_NW_GetIpStatusByName+0x16c>
102cb5a0:	e1a02005 	mov	r2, r5
102cb5a4:	e12fff34 	blx	r4
102cb5a8:	e3500000 	cmp	r0, #0
102cb5ac:	1a000001 	bne	102cb5b8 <RIL_NW_GetIpStatusByName+0x4c>
102cb5b0:	e3a00001 	mov	r0, #1
102cb5b4:	e8bd8070 	pop	{r4, r5, r6, pc}
102cb5b8:	e1a00006 	mov	r0, r6
102cb5bc:	e59f1118 	ldr	r1, [pc, #280]	; 102cb6dc <RIL_NW_GetIpStatusByName+0x170>
102cb5c0:	e1a02005 	mov	r2, r5
102cb5c4:	e12fff34 	blx	r4
102cb5c8:	e3500000 	cmp	r0, #0
102cb5cc:	1a000001 	bne	102cb5d8 <RIL_NW_GetIpStatusByName+0x6c>
102cb5d0:	e3a00002 	mov	r0, #2
102cb5d4:	e8bd8070 	pop	{r4, r5, r6, pc}
102cb5d8:	e1a00006 	mov	r0, r6
102cb5dc:	e59f10fc 	ldr	r1, [pc, #252]	; 102cb6e0 <RIL_NW_GetIpStatusByName+0x174>
102cb5e0:	e1a02005 	mov	r2, r5
102cb5e4:	e12fff34 	blx	r4
102cb5e8:	e3500000 	cmp	r0, #0
102cb5ec:	1a000001 	bne	102cb5f8 <RIL_NW_GetIpStatusByName+0x8c>
102cb5f0:	e3a00003 	mov	r0, #3
102cb5f4:	e8bd8070 	pop	{r4, r5, r6, pc}
102cb5f8:	e1a00006 	mov	r0, r6
102cb5fc:	e59f10e0 	ldr	r1, [pc, #224]	; 102cb6e4 <RIL_NW_GetIpStatusByName+0x178>
102cb600:	e1a02005 	mov	r2, r5
102cb604:	e12fff34 	blx	r4
102cb608:	e3500000 	cmp	r0, #0
102cb60c:	1a000001 	bne	102cb618 <RIL_NW_GetIpStatusByName+0xac>
102cb610:	e3a00004 	mov	r0, #4
102cb614:	e8bd8070 	pop	{r4, r5, r6, pc}
102cb618:	e1a00006 	mov	r0, r6
102cb61c:	e59f10c4 	ldr	r1, [pc, #196]	; 102cb6e8 <RIL_NW_GetIpStatusByName+0x17c>
102cb620:	e1a02005 	mov	r2, r5
102cb624:	e12fff34 	blx	r4
102cb628:	e3500000 	cmp	r0, #0
102cb62c:	1a000001 	bne	102cb638 <RIL_NW_GetIpStatusByName+0xcc>
102cb630:	e3a00005 	mov	r0, #5
102cb634:	e8bd8070 	pop	{r4, r5, r6, pc}
102cb638:	e1a00006 	mov	r0, r6
102cb63c:	e59f10a8 	ldr	r1, [pc, #168]	; 102cb6ec <RIL_NW_GetIpStatusByName+0x180>
102cb640:	e1a02005 	mov	r2, r5
102cb644:	e12fff34 	blx	r4
102cb648:	e3500000 	cmp	r0, #0
102cb64c:	1a000001 	bne	102cb658 <RIL_NW_GetIpStatusByName+0xec>
102cb650:	e3a00006 	mov	r0, #6
102cb654:	e8bd8070 	pop	{r4, r5, r6, pc}
102cb658:	e1a00006 	mov	r0, r6
102cb65c:	e59f108c 	ldr	r1, [pc, #140]	; 102cb6f0 <RIL_NW_GetIpStatusByName+0x184>
102cb660:	e1a02005 	mov	r2, r5
102cb664:	e12fff34 	blx	r4
102cb668:	e3500000 	cmp	r0, #0
102cb66c:	0afffff7 	beq	102cb650 <RIL_NW_GetIpStatusByName+0xe4>
102cb670:	e1a00006 	mov	r0, r6
102cb674:	e59f1078 	ldr	r1, [pc, #120]	; 102cb6f4 <RIL_NW_GetIpStatusByName+0x188>
102cb678:	e1a02005 	mov	r2, r5
102cb67c:	e12fff34 	blx	r4
102cb680:	e3500000 	cmp	r0, #0
102cb684:	1a000001 	bne	102cb690 <RIL_NW_GetIpStatusByName+0x124>
102cb688:	e3a00007 	mov	r0, #7
102cb68c:	e8bd8070 	pop	{r4, r5, r6, pc}
102cb690:	e1a00006 	mov	r0, r6
102cb694:	e59f105c 	ldr	r1, [pc, #92]	; 102cb6f8 <RIL_NW_GetIpStatusByName+0x18c>
102cb698:	e1a02005 	mov	r2, r5
102cb69c:	e12fff34 	blx	r4
102cb6a0:	e3500000 	cmp	r0, #0
102cb6a4:	1a000001 	bne	102cb6b0 <RIL_NW_GetIpStatusByName+0x144>
102cb6a8:	e3a00008 	mov	r0, #8
102cb6ac:	e8bd8070 	pop	{r4, r5, r6, pc}
102cb6b0:	e1a00006 	mov	r0, r6
102cb6b4:	e59f1040 	ldr	r1, [pc, #64]	; 102cb6fc <RIL_NW_GetIpStatusByName+0x190>
102cb6b8:	e1a02005 	mov	r2, r5
102cb6bc:	e12fff34 	blx	r4
102cb6c0:	e3500000 	cmp	r0, #0
102cb6c4:	1affffb1 	bne	102cb590 <RIL_NW_GetIpStatusByName+0x24>
102cb6c8:	e3a00009 	mov	r0, #9
102cb6cc:	e8bd8070 	pop	{r4, r5, r6, pc}
102cb6d0:	102cf728 	.word	0x102cf728
102cb6d4:	102d1730 	.word	0x102d1730
102cb6d8:	102d173c 	.word	0x102d173c
102cb6dc:	102d1748 	.word	0x102d1748
102cb6e0:	102d1754 	.word	0x102d1754
102cb6e4:	102d175c 	.word	0x102d175c
102cb6e8:	102d1768 	.word	0x102d1768
102cb6ec:	102d1774 	.word	0x102d1774
102cb6f0:	102d1784 	.word	0x102d1784
102cb6f4:	102d1794 	.word	0x102d1794
102cb6f8:	102d17a0 	.word	0x102d17a0
102cb6fc:	102d17ac 	.word	0x102d17ac

102cb700 <ATResponse_IPStatus_Handler>:
102cb700:	e92d41f0 	push	{r4, r5, r6, r7, r8, lr}
102cb704:	e59f30ec 	ldr	r3, [pc, #236]	; 102cb7f8 <ATResponse_IPStatus_Handler+0xf8>
102cb708:	e24dd020 	sub	sp, sp, #32
102cb70c:	e1a07002 	mov	r7, r2
102cb710:	e59f20e4 	ldr	r2, [pc, #228]	; 102cb7fc <ATResponse_IPStatus_Handler+0xfc>
102cb714:	e1a06000 	mov	r6, r0
102cb718:	e1a04001 	mov	r4, r1
102cb71c:	e12fff33 	blx	r3
102cb720:	e2505000 	subs	r5, r0, #0
102cb724:	0a000023 	beq	102cb7b8 <ATResponse_IPStatus_Handler+0xb8>
102cb728:	e3a03000 	mov	r3, #0
102cb72c:	e59f00c8 	ldr	r0, [pc, #200]	; 102cb7fc <ATResponse_IPStatus_Handler+0xfc>
102cb730:	e59f60c8 	ldr	r6, [pc, #200]	; 102cb800 <ATResponse_IPStatus_Handler+0x100>
102cb734:	e58d3000 	str	r3, [sp]
102cb738:	e58d3004 	str	r3, [sp, #4]
102cb73c:	e58d3008 	str	r3, [sp, #8]
102cb740:	e58d300c 	str	r3, [sp, #12]
102cb744:	e58d3010 	str	r3, [sp, #16]
102cb748:	e58d3014 	str	r3, [sp, #20]
102cb74c:	e58d3018 	str	r3, [sp, #24]
102cb750:	e1cd31bc 	strh	r3, [sp, #28]
102cb754:	e12fff36 	blx	r6
102cb758:	e59f10a4 	ldr	r1, [pc, #164]	; 102cb804 <ATResponse_IPStatus_Handler+0x104>
102cb75c:	e59f30a4 	ldr	r3, [pc, #164]	; 102cb808 <ATResponse_IPStatus_Handler+0x108>
102cb760:	e1a0400d 	mov	r4, sp
102cb764:	e0855000 	add	r5, r5, r0
102cb768:	e1a00005 	mov	r0, r5
102cb76c:	e12fff33 	blx	r3
102cb770:	e3550000 	cmp	r5, #0
102cb774:	e1a02000 	mov	r2, r0
102cb778:	0a000004 	beq	102cb790 <ATResponse_IPStatus_Handler+0x90>
102cb77c:	e1a01005 	mov	r1, r5
102cb780:	e1a0000d 	mov	r0, sp
102cb784:	e0652002 	rsb	r2, r5, r2
102cb788:	e59f307c 	ldr	r3, [pc, #124]	; 102cb80c <ATResponse_IPStatus_Handler+0x10c>
102cb78c:	e12fff33 	blx	r3
102cb790:	e1a0000d 	mov	r0, sp
102cb794:	e12fff36 	blx	r6
102cb798:	e1a01000 	mov	r1, r0
102cb79c:	e1a0000d 	mov	r0, sp
102cb7a0:	ebffff71 	bl	102cb56c <RIL_NW_GetIpStatusByName>
102cb7a4:	e3a03000 	mov	r3, #0
102cb7a8:	e5870000 	str	r0, [r7]
102cb7ac:	e1a00003 	mov	r0, r3
102cb7b0:	e28dd020 	add	sp, sp, #32
102cb7b4:	e8bd81f0 	pop	{r4, r5, r6, r7, r8, pc}
102cb7b8:	e1a00006 	mov	r0, r6
102cb7bc:	e1a01004 	mov	r1, r4
102cb7c0:	e59f2048 	ldr	r2, [pc, #72]	; 102cb810 <ATResponse_IPStatus_Handler+0x110>
102cb7c4:	e59f5048 	ldr	r5, [pc, #72]	; 102cb814 <ATResponse_IPStatus_Handler+0x114>
102cb7c8:	e12fff35 	blx	r5
102cb7cc:	e2508000 	subs	r8, r0, #0
102cb7d0:	13a03001 	movne	r3, #1
102cb7d4:	1afffff4 	bne	102cb7ac <ATResponse_IPStatus_Handler+0xac>
102cb7d8:	e1a00006 	mov	r0, r6
102cb7dc:	e1a01004 	mov	r1, r4
102cb7e0:	e59f2030 	ldr	r2, [pc, #48]	; 102cb818 <ATResponse_IPStatus_Handler+0x118>
102cb7e4:	e12fff35 	blx	r5
102cb7e8:	e3e03000 	mvn	r3, #0
102cb7ec:	e3500000 	cmp	r0, #0
102cb7f0:	15878000 	strne	r8, [r7]
102cb7f4:	eaffffec 	b	102cb7ac <ATResponse_IPStatus_Handler+0xac>
102cb7f8:	102cccac 	.word	0x102cccac
102cb7fc:	102d17b8 	.word	0x102d17b8
102cb800:	102cf648 	.word	0x102cf648
102cb804:	102d1dc4 	.word	0x102d1dc4
102cb808:	102cf8a8 	.word	0x102cf8a8
102cb80c:	102cf820 	.word	0x102cf820
102cb810:	102d17a8 	.word	0x102d17a8
102cb814:	102ccd38 	.word	0x102ccd38
102cb818:	102d0fdc 	.word	0x102d0fdc

102cb81c <RIL_NW_GetIPStatus>:
102cb81c:	e52de004 	push	{lr}		; (str lr, [sp, #-4]!)
102cb820:	e24dd014 	sub	sp, sp, #20
102cb824:	e3a02000 	mov	r2, #0
102cb828:	e28d3010 	add	r3, sp, #16
102cb82c:	e5232004 	str	r2, [r3, #-4]!
102cb830:	e3a0100a 	mov	r1, #10
102cb834:	e58d2000 	str	r2, [sp]
102cb838:	e59fc018 	ldr	ip, [pc, #24]	; 102cb858 <RIL_NW_GetIPStatus+0x3c>
102cb83c:	e59f2018 	ldr	r2, [pc, #24]	; 102cb85c <RIL_NW_GetIPStatus+0x40>
102cb840:	e59f0018 	ldr	r0, [pc, #24]	; 102cb860 <RIL_NW_GetIPStatus+0x44>
102cb844:	e12fff3c 	blx	ip
102cb848:	e3500000 	cmp	r0, #0
102cb84c:	059d000c 	ldreq	r0, [sp, #12]
102cb850:	e28dd014 	add	sp, sp, #20
102cb854:	e8bd8000 	ldmfd	sp!, {pc}
102cb858:	102cf204 	.word	0x102cf204
102cb85c:	102cb700 	.word	0x102cb700
102cb860:	102d03a0 	.word	0x102d03a0

102cb864 <RIL_NW_OpenPDPContext>:
102cb864:	e92d4070 	push	{r4, r5, r6, lr}
102cb868:	e59f608c 	ldr	r6, [pc, #140]	; 102cb8fc <RIL_NW_OpenPDPContext+0x98>
102cb86c:	e24dd020 	sub	sp, sp, #32
102cb870:	e59f1088 	ldr	r1, [pc, #136]	; 102cb900 <RIL_NW_OpenPDPContext+0x9c>
102cb874:	e5963000 	ldr	r3, [r6]
102cb878:	e28d000c 	add	r0, sp, #12
102cb87c:	e12fff33 	blx	r3
102cb880:	e3a03000 	mov	r3, #0
102cb884:	e1a02003 	mov	r2, r3
102cb888:	e58d3000 	str	r3, [sp]
102cb88c:	e59f5070 	ldr	r5, [pc, #112]	; 102cb904 <RIL_NW_OpenPDPContext+0xa0>
102cb890:	e1a01000 	mov	r1, r0
102cb894:	e28d000c 	add	r0, sp, #12
102cb898:	e12fff35 	blx	r5
102cb89c:	e2504000 	subs	r4, r0, #0
102cb8a0:	1a000012 	bne	102cb8f0 <RIL_NW_OpenPDPContext+0x8c>
102cb8a4:	e3a00064 	mov	r0, #100	; 0x64
102cb8a8:	e59f3058 	ldr	r3, [pc, #88]	; 102cb908 <RIL_NW_OpenPDPContext+0xa4>
102cb8ac:	e12fff33 	blx	r3
102cb8b0:	e1a01004 	mov	r1, r4
102cb8b4:	e3a02014 	mov	r2, #20
102cb8b8:	e59f304c 	ldr	r3, [pc, #76]	; 102cb90c <RIL_NW_OpenPDPContext+0xa8>
102cb8bc:	e28d000c 	add	r0, sp, #12
102cb8c0:	e12fff33 	blx	r3
102cb8c4:	e59f1044 	ldr	r1, [pc, #68]	; 102cb910 <RIL_NW_OpenPDPContext+0xac>
102cb8c8:	e5963000 	ldr	r3, [r6]
102cb8cc:	e28d000c 	add	r0, sp, #12
102cb8d0:	e12fff33 	blx	r3
102cb8d4:	e1a02004 	mov	r2, r4
102cb8d8:	e58d4000 	str	r4, [sp]
102cb8dc:	e1a03004 	mov	r3, r4
102cb8e0:	e1a01000 	mov	r1, r0
102cb8e4:	e28d000c 	add	r0, sp, #12
102cb8e8:	e12fff35 	blx	r5
102cb8ec:	e1a04000 	mov	r4, r0
102cb8f0:	e1a00004 	mov	r0, r4
102cb8f4:	e28dd020 	add	sp, sp, #32
102cb8f8:	e8bd8070 	pop	{r4, r5, r6, pc}
102cb8fc:	f03d5b00 	.word	0xf03d5b00
102cb900:	102d03ac 	.word	0x102d03ac
102cb904:	102cf204 	.word	0x102cf204
102cb908:	102cf9b4 	.word	0x102cf9b4
102cb90c:	102cf798 	.word	0x102cf798
102cb910:	102d03bc 	.word	0x102d03bc

102cb914 <RIL_NW_ClosePDPContext>:
102cb914:	e59f204c 	ldr	r2, [pc, #76]	; 102cb968 <RIL_NW_ClosePDPContext+0x54>
102cb918:	e92d4010 	push	{r4, lr}
102cb91c:	e8920007 	ldm	r2, {r0, r1, r2}
102cb920:	e24dd020 	sub	sp, sp, #32
102cb924:	e28d300c 	add	r3, sp, #12
102cb928:	e3a04000 	mov	r4, #0
102cb92c:	e8830007 	stm	r3, {r0, r1, r2}
102cb930:	e1a00003 	mov	r0, r3
102cb934:	e59f3030 	ldr	r3, [pc, #48]	; 102cb96c <RIL_NW_ClosePDPContext+0x58>
102cb938:	e58d4018 	str	r4, [sp, #24]
102cb93c:	e58d401c 	str	r4, [sp, #28]
102cb940:	e12fff33 	blx	r3
102cb944:	e58d4000 	str	r4, [sp]
102cb948:	e59f2020 	ldr	r2, [pc, #32]	; 102cb970 <RIL_NW_ClosePDPContext+0x5c>
102cb94c:	e1a03004 	mov	r3, r4
102cb950:	e59fc01c 	ldr	ip, [pc, #28]	; 102cb974 <RIL_NW_ClosePDPContext+0x60>
102cb954:	e1a01000 	mov	r1, r0
102cb958:	e59f0018 	ldr	r0, [pc, #24]	; 102cb978 <RIL_NW_ClosePDPContext+0x64>
102cb95c:	e12fff3c 	blx	ip
102cb960:	e28dd020 	add	sp, sp, #32
102cb964:	e8bd8010 	pop	{r4, pc}
102cb968:	102d03c8 	.word	0x102d03c8
102cb96c:	102cf648 	.word	0x102cf648
102cb970:	102cafa4 	.word	0x102cafa4
102cb974:	102cf204 	.word	0x102cf204
102cb978:	102d17c4 	.word	0x102d17c4

102cb97c <RIL_NW_GetOperator>:
102cb97c:	e59f205c 	ldr	r2, [pc, #92]	; 102cb9e0 <RIL_NW_GetOperator+0x64>
102cb980:	e92d4010 	push	{r4, lr}
102cb984:	e1a04000 	mov	r4, r0
102cb988:	e8920007 	ldm	r2, {r0, r1, r2}
102cb98c:	e24dd018 	sub	sp, sp, #24
102cb990:	e28dc00c 	add	ip, sp, #12
102cb994:	e3540000 	cmp	r4, #0
102cb998:	e8ac0003 	stmia	ip!, {r0, r1}
102cb99c:	e1cc20b0 	strh	r2, [ip]
102cb9a0:	0a00000c 	beq	102cb9d8 <RIL_NW_GetOperator+0x5c>
102cb9a4:	e59f3038 	ldr	r3, [pc, #56]	; 102cb9e4 <RIL_NW_GetOperator+0x68>
102cb9a8:	e28d000c 	add	r0, sp, #12
102cb9ac:	e12fff33 	blx	r3
102cb9b0:	e3a03000 	mov	r3, #0
102cb9b4:	e58d3000 	str	r3, [sp]
102cb9b8:	e59f2028 	ldr	r2, [pc, #40]	; 102cb9e8 <RIL_NW_GetOperator+0x6c>
102cb9bc:	e1a03004 	mov	r3, r4
102cb9c0:	e59fc024 	ldr	ip, [pc, #36]	; 102cb9ec <RIL_NW_GetOperator+0x70>
102cb9c4:	e1a01000 	mov	r1, r0
102cb9c8:	e28d000c 	add	r0, sp, #12
102cb9cc:	e12fff3c 	blx	ip
102cb9d0:	e28dd018 	add	sp, sp, #24
102cb9d4:	e8bd8010 	pop	{r4, pc}
102cb9d8:	e3e00003 	mvn	r0, #3
102cb9dc:	eafffffb 	b	102cb9d0 <RIL_NW_GetOperator+0x54>
102cb9e0:	102d03dc 	.word	0x102d03dc
102cb9e4:	102cf648 	.word	0x102cf648
102cb9e8:	102cae80 	.word	0x102cae80
102cb9ec:	102cf204 	.word	0x102cf204

102cb9f0 <ATRsp_CCID_Handler>:
102cb9f0:	e92d41f0 	push	{r4, r5, r6, r7, r8, lr}
102cb9f4:	e1a05002 	mov	r5, r2
102cb9f8:	e59f4094 	ldr	r4, [pc, #148]	; 102cba94 <ATRsp_CCID_Handler+0xa4>
102cb9fc:	e59f2094 	ldr	r2, [pc, #148]	; 102cba98 <ATRsp_CCID_Handler+0xa8>
102cba00:	e1a07000 	mov	r7, r0
102cba04:	e1a06001 	mov	r6, r1
102cba08:	e12fff34 	blx	r4
102cba0c:	e2508000 	subs	r8, r0, #0
102cba10:	0a000006 	beq	102cba30 <ATRsp_CCID_Handler+0x40>
102cba14:	e59f3080 	ldr	r3, [pc, #128]	; 102cba9c <ATRsp_CCID_Handler+0xac>
102cba18:	e59f1080 	ldr	r1, [pc, #128]	; 102cbaa0 <ATRsp_CCID_Handler+0xb0>
102cba1c:	e5933000 	ldr	r3, [r3]
102cba20:	e1a02005 	mov	r2, r5
102cba24:	e12fff33 	blx	r3
102cba28:	e3a00001 	mov	r0, #1
102cba2c:	e8bd81f0 	pop	{r4, r5, r6, r7, r8, pc}
102cba30:	e1a00007 	mov	r0, r7
102cba34:	e1a01006 	mov	r1, r6
102cba38:	e59f2064 	ldr	r2, [pc, #100]	; 102cbaa4 <ATRsp_CCID_Handler+0xb4>
102cba3c:	e59f5064 	ldr	r5, [pc, #100]	; 102cbaa8 <ATRsp_CCID_Handler+0xb8>
102cba40:	e12fff35 	blx	r5
102cba44:	e3500000 	cmp	r0, #0
102cba48:	0a000001 	beq	102cba54 <ATRsp_CCID_Handler+0x64>
102cba4c:	e1a00008 	mov	r0, r8
102cba50:	e8bd81f0 	pop	{r4, r5, r6, r7, r8, pc}
102cba54:	e1a00007 	mov	r0, r7
102cba58:	e1a01006 	mov	r1, r6
102cba5c:	e59f2048 	ldr	r2, [pc, #72]	; 102cbaac <ATRsp_CCID_Handler+0xbc>
102cba60:	e12fff35 	blx	r5
102cba64:	e3500000 	cmp	r0, #0
102cba68:	1a000007 	bne	102cba8c <ATRsp_CCID_Handler+0x9c>
102cba6c:	e1a00007 	mov	r0, r7
102cba70:	e1a01006 	mov	r1, r6
102cba74:	e59f2034 	ldr	r2, [pc, #52]	; 102cbab0 <ATRsp_CCID_Handler+0xc0>
102cba78:	e12fff34 	blx	r4
102cba7c:	e3500000 	cmp	r0, #0
102cba80:	03a00001 	moveq	r0, #1
102cba84:	13e00000 	mvnne	r0, #0
102cba88:	e8bd81f0 	pop	{r4, r5, r6, r7, r8, pc}
102cba8c:	e3e00000 	mvn	r0, #0
102cba90:	e8bd81f0 	pop	{r4, r5, r6, r7, r8, pc}
102cba94:	102cccac 	.word	0x102cccac
102cba98:	102d17d0 	.word	0x102d17d0
102cba9c:	f03d5b08 	.word	0xf03d5b08
102cbaa0:	102d17d8 	.word	0x102d17d8
102cbaa4:	102d17a8 	.word	0x102d17a8
102cbaa8:	102ccd38 	.word	0x102ccd38
102cbaac:	102d0fdc 	.word	0x102d0fdc
102cbab0:	102d0fe4 	.word	0x102d0fe4

102cbab4 <ATRsp_IMSI_Handler>:
102cbab4:	e92d40f8 	push	{r3, r4, r5, r6, r7, lr}
102cbab8:	e1a07002 	mov	r7, r2
102cbabc:	e59f4074 	ldr	r4, [pc, #116]	; 102cbb38 <ATRsp_IMSI_Handler+0x84>
102cbac0:	e59f2074 	ldr	r2, [pc, #116]	; 102cbb3c <ATRsp_IMSI_Handler+0x88>
102cbac4:	e1a06000 	mov	r6, r0
102cbac8:	e1a05001 	mov	r5, r1
102cbacc:	e12fff34 	blx	r4
102cbad0:	e3500000 	cmp	r0, #0
102cbad4:	0a000001 	beq	102cbae0 <ATRsp_IMSI_Handler+0x2c>
102cbad8:	e3a00000 	mov	r0, #0
102cbadc:	e8bd80f8 	pop	{r3, r4, r5, r6, r7, pc}
102cbae0:	e1a00006 	mov	r0, r6
102cbae4:	e1a01005 	mov	r1, r5
102cbae8:	e59f2050 	ldr	r2, [pc, #80]	; 102cbb40 <ATRsp_IMSI_Handler+0x8c>
102cbaec:	e12fff34 	blx	r4
102cbaf0:	e3500000 	cmp	r0, #0
102cbaf4:	1a00000d 	bne	102cbb30 <ATRsp_IMSI_Handler+0x7c>
102cbaf8:	e1a00006 	mov	r0, r6
102cbafc:	e1a01005 	mov	r1, r5
102cbb00:	e59f203c 	ldr	r2, [pc, #60]	; 102cbb44 <ATRsp_IMSI_Handler+0x90>
102cbb04:	e59f303c 	ldr	r3, [pc, #60]	; 102cbb48 <ATRsp_IMSI_Handler+0x94>
102cbb08:	e12fff33 	blx	r3
102cbb0c:	e3500000 	cmp	r0, #0
102cbb10:	1a000006 	bne	102cbb30 <ATRsp_IMSI_Handler+0x7c>
102cbb14:	e1a00007 	mov	r0, r7
102cbb18:	e1a01006 	mov	r1, r6
102cbb1c:	e2452002 	sub	r2, r5, #2
102cbb20:	e59f3024 	ldr	r3, [pc, #36]	; 102cbb4c <ATRsp_IMSI_Handler+0x98>
102cbb24:	e12fff33 	blx	r3
102cbb28:	e3a00001 	mov	r0, #1
102cbb2c:	e8bd80f8 	pop	{r3, r4, r5, r6, r7, pc}
102cbb30:	e3e00000 	mvn	r0, #0
102cbb34:	e8bd80f8 	pop	{r3, r4, r5, r6, r7, pc}
102cbb38:	102ccd38 	.word	0x102ccd38
102cbb3c:	102d17a8 	.word	0x102d17a8
102cbb40:	102d0fdc 	.word	0x102d0fdc
102cbb44:	102d0fe4 	.word	0x102d0fe4
102cbb48:	102cccac 	.word	0x102cccac
102cbb4c:	102cf820 	.word	0x102cf820

102cbb50 <RIL_SIM_GetSimStateByName>:
102cbb50:	e92d4070 	push	{r4, r5, r6, lr}
102cbb54:	e1a02001 	mov	r2, r1
102cbb58:	e1a05001 	mov	r5, r1
102cbb5c:	e59f4130 	ldr	r4, [pc, #304]	; 102cbc94 <RIL_SIM_GetSimStateByName+0x144>
102cbb60:	e59f1130 	ldr	r1, [pc, #304]	; 102cbc98 <RIL_SIM_GetSimStateByName+0x148>
102cbb64:	e1a06000 	mov	r6, r0
102cbb68:	e12fff34 	blx	r4
102cbb6c:	e3500000 	cmp	r0, #0
102cbb70:	1a000001 	bne	102cbb7c <RIL_SIM_GetSimStateByName+0x2c>
102cbb74:	e3a00001 	mov	r0, #1
102cbb78:	e8bd8070 	pop	{r4, r5, r6, pc}
102cbb7c:	e1a00006 	mov	r0, r6
102cbb80:	e59f1114 	ldr	r1, [pc, #276]	; 102cbc9c <RIL_SIM_GetSimStateByName+0x14c>
102cbb84:	e1a02005 	mov	r2, r5
102cbb88:	e12fff34 	blx	r4
102cbb8c:	e3500000 	cmp	r0, #0
102cbb90:	08bd8070 	popeq	{r4, r5, r6, pc}
102cbb94:	e1a00006 	mov	r0, r6
102cbb98:	e59f1100 	ldr	r1, [pc, #256]	; 102cbca0 <RIL_SIM_GetSimStateByName+0x150>
102cbb9c:	e1a02005 	mov	r2, r5
102cbba0:	e12fff34 	blx	r4
102cbba4:	e3500000 	cmp	r0, #0
102cbba8:	1a000001 	bne	102cbbb4 <RIL_SIM_GetSimStateByName+0x64>
102cbbac:	e3a00002 	mov	r0, #2
102cbbb0:	e8bd8070 	pop	{r4, r5, r6, pc}
102cbbb4:	e1a00006 	mov	r0, r6
102cbbb8:	e59f10e4 	ldr	r1, [pc, #228]	; 102cbca4 <RIL_SIM_GetSimStateByName+0x154>
102cbbbc:	e1a02005 	mov	r2, r5
102cbbc0:	e12fff34 	blx	r4
102cbbc4:	e3500000 	cmp	r0, #0
102cbbc8:	1a000001 	bne	102cbbd4 <RIL_SIM_GetSimStateByName+0x84>
102cbbcc:	e3a00003 	mov	r0, #3
102cbbd0:	e8bd8070 	pop	{r4, r5, r6, pc}
102cbbd4:	e1a00006 	mov	r0, r6
102cbbd8:	e59f10c8 	ldr	r1, [pc, #200]	; 102cbca8 <RIL_SIM_GetSimStateByName+0x158>
102cbbdc:	e1a02005 	mov	r2, r5
102cbbe0:	e12fff34 	blx	r4
102cbbe4:	e3500000 	cmp	r0, #0
102cbbe8:	1a000001 	bne	102cbbf4 <RIL_SIM_GetSimStateByName+0xa4>
102cbbec:	e3a00004 	mov	r0, #4
102cbbf0:	e8bd8070 	pop	{r4, r5, r6, pc}
102cbbf4:	e1a00006 	mov	r0, r6
102cbbf8:	e59f10ac 	ldr	r1, [pc, #172]	; 102cbcac <RIL_SIM_GetSimStateByName+0x15c>
102cbbfc:	e1a02005 	mov	r2, r5
102cbc00:	e12fff34 	blx	r4
102cbc04:	e3500000 	cmp	r0, #0
102cbc08:	1a000001 	bne	102cbc14 <RIL_SIM_GetSimStateByName+0xc4>
102cbc0c:	e3a00005 	mov	r0, #5
102cbc10:	e8bd8070 	pop	{r4, r5, r6, pc}
102cbc14:	e1a00006 	mov	r0, r6
102cbc18:	e59f1090 	ldr	r1, [pc, #144]	; 102cbcb0 <RIL_SIM_GetSimStateByName+0x160>
102cbc1c:	e1a02005 	mov	r2, r5
102cbc20:	e12fff34 	blx	r4
102cbc24:	e3500000 	cmp	r0, #0
102cbc28:	1a000001 	bne	102cbc34 <RIL_SIM_GetSimStateByName+0xe4>
102cbc2c:	e3a00006 	mov	r0, #6
102cbc30:	e8bd8070 	pop	{r4, r5, r6, pc}
102cbc34:	e1a00006 	mov	r0, r6
102cbc38:	e59f1074 	ldr	r1, [pc, #116]	; 102cbcb4 <RIL_SIM_GetSimStateByName+0x164>
102cbc3c:	e1a02005 	mov	r2, r5
102cbc40:	e12fff34 	blx	r4
102cbc44:	e3500000 	cmp	r0, #0
102cbc48:	1a000001 	bne	102cbc54 <RIL_SIM_GetSimStateByName+0x104>
102cbc4c:	e3a00007 	mov	r0, #7
102cbc50:	e8bd8070 	pop	{r4, r5, r6, pc}
102cbc54:	e1a00006 	mov	r0, r6
102cbc58:	e59f1058 	ldr	r1, [pc, #88]	; 102cbcb8 <RIL_SIM_GetSimStateByName+0x168>
102cbc5c:	e1a02005 	mov	r2, r5
102cbc60:	e12fff34 	blx	r4
102cbc64:	e3500000 	cmp	r0, #0
102cbc68:	1a000001 	bne	102cbc74 <RIL_SIM_GetSimStateByName+0x124>
102cbc6c:	e3a00008 	mov	r0, #8
102cbc70:	e8bd8070 	pop	{r4, r5, r6, pc}
102cbc74:	e1a00006 	mov	r0, r6
102cbc78:	e59f103c 	ldr	r1, [pc, #60]	; 102cbcbc <RIL_SIM_GetSimStateByName+0x16c>
102cbc7c:	e1a02005 	mov	r2, r5
102cbc80:	e12fff34 	blx	r4
102cbc84:	e3500000 	cmp	r0, #0
102cbc88:	03a00009 	moveq	r0, #9
102cbc8c:	13a0000a 	movne	r0, #10
102cbc90:	e8bd8070 	pop	{r4, r5, r6, pc}
102cbc94:	102cf728 	.word	0x102cf728
102cbc98:	102d184c 	.word	0x102d184c
102cbc9c:	102d17ec 	.word	0x102d17ec
102cbca0:	102d17fc 	.word	0x102d17fc
102cbca4:	102d1804 	.word	0x102d1804
102cbca8:	102d180c 	.word	0x102d180c
102cbcac:	102d1818 	.word	0x102d1818
102cbcb0:	102d1824 	.word	0x102d1824
102cbcb4:	102d1830 	.word	0x102d1830
102cbcb8:	102d183c 	.word	0x102d183c
102cbcbc:	102d1848 	.word	0x102d1848

102cbcc0 <ATResponse_CPIN_Handler>:
102cbcc0:	e92d45f0 	push	{r4, r5, r6, r7, r8, sl, lr}
102cbcc4:	e1a06002 	mov	r6, r2
102cbcc8:	e24dd06c 	sub	sp, sp, #108	; 0x6c
102cbccc:	e59f5128 	ldr	r5, [pc, #296]	; 102cbdfc <ATResponse_CPIN_Handler+0x13c>
102cbcd0:	e59f2128 	ldr	r2, [pc, #296]	; 102cbe00 <ATResponse_CPIN_Handler+0x140>
102cbcd4:	e1a08000 	mov	r8, r0
102cbcd8:	e1a07001 	mov	r7, r1
102cbcdc:	e12fff35 	blx	r5
102cbce0:	e2504000 	subs	r4, r0, #0
102cbce4:	0a00001e 	beq	102cbd64 <ATResponse_CPIN_Handler+0xa4>
102cbce8:	e3a02064 	mov	r2, #100	; 0x64
102cbcec:	e3a01000 	mov	r1, #0
102cbcf0:	e59f310c 	ldr	r3, [pc, #268]	; 102cbe04 <ATResponse_CPIN_Handler+0x144>
102cbcf4:	e28d0004 	add	r0, sp, #4
102cbcf8:	e12fff33 	blx	r3
102cbcfc:	e59f5104 	ldr	r5, [pc, #260]	; 102cbe08 <ATResponse_CPIN_Handler+0x148>
102cbd00:	e59f0104 	ldr	r0, [pc, #260]	; 102cbe0c <ATResponse_CPIN_Handler+0x14c>
102cbd04:	e12fff35 	blx	r5
102cbd08:	e59f1100 	ldr	r1, [pc, #256]	; 102cbe10 <ATResponse_CPIN_Handler+0x150>
102cbd0c:	e59f3100 	ldr	r3, [pc, #256]	; 102cbe14 <ATResponse_CPIN_Handler+0x154>
102cbd10:	e0844000 	add	r4, r4, r0
102cbd14:	e1a00004 	mov	r0, r4
102cbd18:	e12fff33 	blx	r3
102cbd1c:	e3540000 	cmp	r4, #0
102cbd20:	e1a02000 	mov	r2, r0
102cbd24:	0a000004 	beq	102cbd3c <ATResponse_CPIN_Handler+0x7c>
102cbd28:	e1a01004 	mov	r1, r4
102cbd2c:	e28d0004 	add	r0, sp, #4
102cbd30:	e0642002 	rsb	r2, r4, r2
102cbd34:	e59f30dc 	ldr	r3, [pc, #220]	; 102cbe18 <ATResponse_CPIN_Handler+0x158>
102cbd38:	e12fff33 	blx	r3
102cbd3c:	e28d0004 	add	r0, sp, #4
102cbd40:	e12fff35 	blx	r5
102cbd44:	e3a04000 	mov	r4, #0
102cbd48:	e1a01000 	mov	r1, r0
102cbd4c:	e28d0004 	add	r0, sp, #4
102cbd50:	ebffff7e 	bl	102cbb50 <RIL_SIM_GetSimStateByName>
102cbd54:	e5860000 	str	r0, [r6]
102cbd58:	e1a00004 	mov	r0, r4
102cbd5c:	e28dd06c 	add	sp, sp, #108	; 0x6c
102cbd60:	e8bd85f0 	pop	{r4, r5, r6, r7, r8, sl, pc}
102cbd64:	e1a00008 	mov	r0, r8
102cbd68:	e1a01007 	mov	r1, r7
102cbd6c:	e59f20a8 	ldr	r2, [pc, #168]	; 102cbe1c <ATResponse_CPIN_Handler+0x15c>
102cbd70:	e59fa0a8 	ldr	sl, [pc, #168]	; 102cbe20 <ATResponse_CPIN_Handler+0x160>
102cbd74:	e12fff3a 	blx	sl
102cbd78:	e3500000 	cmp	r0, #0
102cbd7c:	1afffff5 	bne	102cbd58 <ATResponse_CPIN_Handler+0x98>
102cbd80:	e1a00008 	mov	r0, r8
102cbd84:	e1a01007 	mov	r1, r7
102cbd88:	e59f2094 	ldr	r2, [pc, #148]	; 102cbe24 <ATResponse_CPIN_Handler+0x164>
102cbd8c:	e12fff3a 	blx	sl
102cbd90:	e2504000 	subs	r4, r0, #0
102cbd94:	1a000016 	bne	102cbdf4 <ATResponse_CPIN_Handler+0x134>
102cbd98:	e1a00008 	mov	r0, r8
102cbd9c:	e1a01007 	mov	r1, r7
102cbda0:	e59f2080 	ldr	r2, [pc, #128]	; 102cbe28 <ATResponse_CPIN_Handler+0x168>
102cbda4:	e12fff35 	blx	r5
102cbda8:	e3500000 	cmp	r0, #0
102cbdac:	03a04001 	moveq	r4, #1
102cbdb0:	0affffe8 	beq	102cbd58 <ATResponse_CPIN_Handler+0x98>
102cbdb4:	e59f3070 	ldr	r3, [pc, #112]	; 102cbe2c <ATResponse_CPIN_Handler+0x16c>
102cbdb8:	e28d2068 	add	r2, sp, #104	; 0x68
102cbdbc:	e5224068 	str	r4, [r2, #-104]!	; 0xffffff98
102cbdc0:	e5933000 	ldr	r3, [r3]
102cbdc4:	e59f1064 	ldr	r1, [pc, #100]	; 102cbe30 <ATResponse_CPIN_Handler+0x170>
102cbdc8:	e1a0200d 	mov	r2, sp
102cbdcc:	e12fff33 	blx	r3
102cbdd0:	e59d3000 	ldr	r3, [sp]
102cbdd4:	e243300a 	sub	r3, r3, #10
102cbdd8:	e3530008 	cmp	r3, #8
102cbddc:	8a000004 	bhi	102cbdf4 <ATResponse_CPIN_Handler+0x134>
102cbde0:	e59f204c 	ldr	r2, [pc, #76]	; 102cbe34 <ATResponse_CPIN_Handler+0x174>
102cbde4:	e7923103 	ldr	r3, [r2, r3, lsl #2]
102cbde8:	e5863000 	str	r3, [r6]
102cbdec:	e3e04000 	mvn	r4, #0
102cbdf0:	eaffffd8 	b	102cbd58 <ATResponse_CPIN_Handler+0x98>
102cbdf4:	e3a0300a 	mov	r3, #10
102cbdf8:	eafffffa 	b	102cbde8 <ATResponse_CPIN_Handler+0x128>
102cbdfc:	102cccac 	.word	0x102cccac
102cbe00:	102d1854 	.word	0x102d1854
102cbe04:	102ce5b1 	.word	0x102ce5b1
102cbe08:	102cf648 	.word	0x102cf648
102cbe0c:	102d185c 	.word	0x102d185c
102cbe10:	102d1dc4 	.word	0x102d1dc4
102cbe14:	102cf8a8 	.word	0x102cf8a8
102cbe18:	102cf820 	.word	0x102cf820
102cbe1c:	102d17a8 	.word	0x102d17a8
102cbe20:	102ccd38 	.word	0x102ccd38
102cbe24:	102d0fdc 	.word	0x102d0fdc
102cbe28:	102d0fe4 	.word	0x102d0fe4
102cbe2c:	f03d5b08 	.word	0xf03d5b08
102cbe30:	102d1864 	.word	0x102d1864
102cbe34:	102d03e8 	.word	0x102d03e8

102cbe38 <RIL_SIM_GetSimState>:
102cbe38:	e59f305c 	ldr	r3, [pc, #92]	; 102cbe9c <RIL_SIM_GetSimState+0x64>
102cbe3c:	e92d4030 	push	{r4, r5, lr}
102cbe40:	e1a05000 	mov	r5, r0
102cbe44:	e8930007 	ldm	r3, {r0, r1, r2}
102cbe48:	e24dd01c 	sub	sp, sp, #28
102cbe4c:	e28d300c 	add	r3, sp, #12
102cbe50:	e8a30003 	stmia	r3!, {r0, r1}
102cbe54:	e3a04000 	mov	r4, #0
102cbe58:	e1c320b0 	strh	r2, [r3]
102cbe5c:	e28d000c 	add	r0, sp, #12
102cbe60:	e59f3038 	ldr	r3, [pc, #56]	; 102cbea0 <RIL_SIM_GetSimState+0x68>
102cbe64:	e58d4008 	str	r4, [sp, #8]
102cbe68:	e12fff33 	blx	r3
102cbe6c:	e28d3008 	add	r3, sp, #8
102cbe70:	e58d4000 	str	r4, [sp]
102cbe74:	e59f2028 	ldr	r2, [pc, #40]	; 102cbea4 <RIL_SIM_GetSimState+0x6c>
102cbe78:	e59fc028 	ldr	ip, [pc, #40]	; 102cbea8 <RIL_SIM_GetSimState+0x70>
102cbe7c:	e1a01000 	mov	r1, r0
102cbe80:	e28d000c 	add	r0, sp, #12
102cbe84:	e12fff3c 	blx	ip
102cbe88:	e3500000 	cmp	r0, #0
102cbe8c:	059d3008 	ldreq	r3, [sp, #8]
102cbe90:	05853000 	streq	r3, [r5]
102cbe94:	e28dd01c 	add	sp, sp, #28
102cbe98:	e8bd8030 	pop	{r4, r5, pc}
102cbe9c:	102d040c 	.word	0x102d040c
102cbea0:	102cf648 	.word	0x102cf648
102cbea4:	102cbcc0 	.word	0x102cbcc0
102cbea8:	102cf204 	.word	0x102cf204

102cbeac <RIL_SIM_GetIMSI>:
102cbeac:	e59f205c 	ldr	r2, [pc, #92]	; 102cbf10 <RIL_SIM_GetIMSI+0x64>
102cbeb0:	e92d4010 	push	{r4, lr}
102cbeb4:	e1a04000 	mov	r4, r0
102cbeb8:	e8920007 	ldm	r2, {r0, r1, r2}
102cbebc:	e24dd018 	sub	sp, sp, #24
102cbec0:	e28dc00c 	add	ip, sp, #12
102cbec4:	e3540000 	cmp	r4, #0
102cbec8:	e8ac0003 	stmia	ip!, {r0, r1}
102cbecc:	e5cc2000 	strb	r2, [ip]
102cbed0:	0a00000c 	beq	102cbf08 <RIL_SIM_GetIMSI+0x5c>
102cbed4:	e59f3038 	ldr	r3, [pc, #56]	; 102cbf14 <RIL_SIM_GetIMSI+0x68>
102cbed8:	e28d000c 	add	r0, sp, #12
102cbedc:	e12fff33 	blx	r3
102cbee0:	e3a03000 	mov	r3, #0
102cbee4:	e58d3000 	str	r3, [sp]
102cbee8:	e59f2028 	ldr	r2, [pc, #40]	; 102cbf18 <RIL_SIM_GetIMSI+0x6c>
102cbeec:	e1a03004 	mov	r3, r4
102cbef0:	e59fc024 	ldr	ip, [pc, #36]	; 102cbf1c <RIL_SIM_GetIMSI+0x70>
102cbef4:	e1a01000 	mov	r1, r0
102cbef8:	e28d000c 	add	r0, sp, #12
102cbefc:	e12fff3c 	blx	ip
102cbf00:	e28dd018 	add	sp, sp, #24
102cbf04:	e8bd8010 	pop	{r4, pc}
102cbf08:	e3e00003 	mvn	r0, #3
102cbf0c:	eafffffb 	b	102cbf00 <RIL_SIM_GetIMSI+0x54>
102cbf10:	102d0418 	.word	0x102d0418
102cbf14:	102cf648 	.word	0x102cf648
102cbf18:	102cbab4 	.word	0x102cbab4
102cbf1c:	102cf204 	.word	0x102cf204

102cbf20 <RIL_SIM_GetCCID>:
102cbf20:	e59f205c 	ldr	r2, [pc, #92]	; 102cbf84 <RIL_SIM_GetCCID+0x64>
102cbf24:	e92d4010 	push	{r4, lr}
102cbf28:	e1a04000 	mov	r4, r0
102cbf2c:	e8920007 	ldm	r2, {r0, r1, r2}
102cbf30:	e24dd018 	sub	sp, sp, #24
102cbf34:	e28dc00c 	add	ip, sp, #12
102cbf38:	e3540000 	cmp	r4, #0
102cbf3c:	e8ac0003 	stmia	ip!, {r0, r1}
102cbf40:	e5cc2000 	strb	r2, [ip]
102cbf44:	0a00000c 	beq	102cbf7c <RIL_SIM_GetCCID+0x5c>
102cbf48:	e59f3038 	ldr	r3, [pc, #56]	; 102cbf88 <RIL_SIM_GetCCID+0x68>
102cbf4c:	e28d000c 	add	r0, sp, #12
102cbf50:	e12fff33 	blx	r3
102cbf54:	e3a03000 	mov	r3, #0
102cbf58:	e58d3000 	str	r3, [sp]
102cbf5c:	e59f2028 	ldr	r2, [pc, #40]	; 102cbf8c <RIL_SIM_GetCCID+0x6c>
102cbf60:	e1a03004 	mov	r3, r4
102cbf64:	e59fc024 	ldr	ip, [pc, #36]	; 102cbf90 <RIL_SIM_GetCCID+0x70>
102cbf68:	e1a01000 	mov	r1, r0
102cbf6c:	e28d000c 	add	r0, sp, #12
102cbf70:	e12fff3c 	blx	ip
102cbf74:	e28dd018 	add	sp, sp, #24
102cbf78:	e8bd8010 	pop	{r4, pc}
102cbf7c:	e3e00003 	mvn	r0, #3
102cbf80:	eafffffb 	b	102cbf74 <RIL_SIM_GetCCID+0x54>
102cbf84:	102d0424 	.word	0x102d0424
102cbf88:	102cf648 	.word	0x102cf648
102cbf8c:	102cb9f0 	.word	0x102cb9f0
102cbf90:	102cf204 	.word	0x102cf204

102cbf94 <OnURCHandler_HTTP>:
102cbf94:	e92d4030 	push	{r4, r5, lr}
102cbf98:	e24dd01c 	sub	sp, sp, #28
102cbf9c:	e28d3014 	add	r3, sp, #20
102cbfa0:	e58d3000 	str	r3, [sp]
102cbfa4:	e59f3048 	ldr	r3, [pc, #72]	; 102cbff4 <OnURCHandler_HTTP+0x60>
102cbfa8:	e3a04000 	mov	r4, #0
102cbfac:	e59f5044 	ldr	r5, [pc, #68]	; 102cbff8 <OnURCHandler_HTTP+0x64>
102cbfb0:	e593c000 	ldr	ip, [r3]
102cbfb4:	e58d400c 	str	r4, [sp, #12]
102cbfb8:	e28d3010 	add	r3, sp, #16
102cbfbc:	e58d4010 	str	r4, [sp, #16]
102cbfc0:	e58d4014 	str	r4, [sp, #20]
102cbfc4:	e59f1030 	ldr	r1, [pc, #48]	; 102cbffc <OnURCHandler_HTTP+0x68>
102cbfc8:	e28d200c 	add	r2, sp, #12
102cbfcc:	e12fff3c 	blx	ip
102cbfd0:	e5953000 	ldr	r3, [r5]
102cbfd4:	e1530004 	cmp	r3, r4
102cbfd8:	0a000003 	beq	102cbfec <OnURCHandler_HTTP+0x58>
102cbfdc:	e28d000c 	add	r0, sp, #12
102cbfe0:	e8900007 	ldm	r0, {r0, r1, r2}
102cbfe4:	e12fff33 	blx	r3
102cbfe8:	e5854000 	str	r4, [r5]
102cbfec:	e28dd01c 	add	sp, sp, #28
102cbff0:	e8bd8030 	pop	{r4, r5, pc}
102cbff4:	f03d5b08 	.word	0xf03d5b08
102cbff8:	f03d2118 	.word	0xf03d2118
102cbffc:	102d1874 	.word	0x102d1874

102cc000 <OnURCHandler_AudPlayInd>:
102cc000:	e52de004 	push	{lr}		; (str lr, [sp, #-4]!)
102cc004:	e3a03000 	mov	r3, #0
102cc008:	e24dd00c 	sub	sp, sp, #12
102cc00c:	e58d3000 	str	r3, [sp]
102cc010:	e58d3004 	str	r3, [sp, #4]
102cc014:	e59f3030 	ldr	r3, [pc, #48]	; 102cc04c <OnURCHandler_AudPlayInd+0x4c>
102cc018:	e59f1030 	ldr	r1, [pc, #48]	; 102cc050 <OnURCHandler_AudPlayInd+0x50>
102cc01c:	e593c000 	ldr	ip, [r3]
102cc020:	e1a0200d 	mov	r2, sp
102cc024:	e28d3004 	add	r3, sp, #4
102cc028:	e12fff3c 	blx	ip
102cc02c:	e59f3020 	ldr	r3, [pc, #32]	; 102cc054 <OnURCHandler_AudPlayInd+0x54>
102cc030:	e5933000 	ldr	r3, [r3]
102cc034:	e3530000 	cmp	r3, #0
102cc038:	0a000001 	beq	102cc044 <OnURCHandler_AudPlayInd+0x44>
102cc03c:	e59d0004 	ldr	r0, [sp, #4]
102cc040:	e12fff33 	blx	r3
102cc044:	e28dd00c 	add	sp, sp, #12
102cc048:	e8bd8000 	ldmfd	sp!, {pc}
102cc04c:	f03d5b08 	.word	0xf03d5b08
102cc050:	102d188c 	.word	0x102d188c
102cc054:	f03d2054 	.word	0xf03d2054

102cc058 <OnURCHandler_FTP>:
102cc058:	e92d41f0 	push	{r4, r5, r6, r7, r8, lr}
102cc05c:	e59f1140 	ldr	r1, [pc, #320]	; 102cc1a4 <OnURCHandler_FTP+0x14c>
102cc060:	e24dd010 	sub	sp, sp, #16
102cc064:	e59f413c 	ldr	r4, [pc, #316]	; 102cc1a8 <OnURCHandler_FTP+0x150>
102cc068:	e1a08000 	mov	r8, r0
102cc06c:	e12fff34 	blx	r4
102cc070:	e59f6134 	ldr	r6, [pc, #308]	; 102cc1ac <OnURCHandler_FTP+0x154>
102cc074:	e1a05000 	mov	r5, r0
102cc078:	e59f0124 	ldr	r0, [pc, #292]	; 102cc1a4 <OnURCHandler_FTP+0x14c>
102cc07c:	e12fff36 	blx	r6
102cc080:	e59f1128 	ldr	r1, [pc, #296]	; 102cc1b0 <OnURCHandler_FTP+0x158>
102cc084:	e0855000 	add	r5, r5, r0
102cc088:	e1a00005 	mov	r0, r5
102cc08c:	e12fff34 	blx	r4
102cc090:	e3550000 	cmp	r5, #0
102cc094:	13500000 	cmpne	r0, #0
102cc098:	e1a07000 	mov	r7, r0
102cc09c:	0a000019 	beq	102cc108 <OnURCHandler_FTP+0xb0>
102cc0a0:	e3a0200a 	mov	r2, #10
102cc0a4:	e3a01000 	mov	r1, #0
102cc0a8:	e59f3104 	ldr	r3, [pc, #260]	; 102cc1b4 <OnURCHandler_FTP+0x15c>
102cc0ac:	e28d0004 	add	r0, sp, #4
102cc0b0:	e12fff33 	blx	r3
102cc0b4:	e1a01005 	mov	r1, r5
102cc0b8:	e0652007 	rsb	r2, r5, r7
102cc0bc:	e59f30f4 	ldr	r3, [pc, #244]	; 102cc1b8 <OnURCHandler_FTP+0x160>
102cc0c0:	e28d0004 	add	r0, sp, #4
102cc0c4:	e12fff33 	blx	r3
102cc0c8:	e59f30ec 	ldr	r3, [pc, #236]	; 102cc1bc <OnURCHandler_FTP+0x164>
102cc0cc:	e28d0004 	add	r0, sp, #4
102cc0d0:	e12fff33 	blx	r3
102cc0d4:	e59f50e4 	ldr	r5, [pc, #228]	; 102cc1c0 <OnURCHandler_FTP+0x168>
102cc0d8:	e5953000 	ldr	r3, [r5]
102cc0dc:	e3530000 	cmp	r3, #0
102cc0e0:	e1a01000 	mov	r1, r0
102cc0e4:	0a000007 	beq	102cc108 <OnURCHandler_FTP+0xb0>
102cc0e8:	e3500000 	cmp	r0, #0
102cc0ec:	b3a00000 	movlt	r0, #0
102cc0f0:	a3a00001 	movge	r0, #1
102cc0f4:	e12fff33 	blx	r3
102cc0f8:	e3a03000 	mov	r3, #0
102cc0fc:	e5853000 	str	r3, [r5]
102cc100:	e28dd010 	add	sp, sp, #16
102cc104:	e8bd81f0 	pop	{r4, r5, r6, r7, r8, pc}
102cc108:	e59f10b4 	ldr	r1, [pc, #180]	; 102cc1c4 <OnURCHandler_FTP+0x16c>
102cc10c:	e1a00008 	mov	r0, r8
102cc110:	e12fff34 	blx	r4
102cc114:	e1a05000 	mov	r5, r0
102cc118:	e59f00a4 	ldr	r0, [pc, #164]	; 102cc1c4 <OnURCHandler_FTP+0x16c>
102cc11c:	e12fff36 	blx	r6
102cc120:	e59f1088 	ldr	r1, [pc, #136]	; 102cc1b0 <OnURCHandler_FTP+0x158>
102cc124:	e0855000 	add	r5, r5, r0
102cc128:	e1a00005 	mov	r0, r5
102cc12c:	e12fff34 	blx	r4
102cc130:	e3550000 	cmp	r5, #0
102cc134:	13500000 	cmpne	r0, #0
102cc138:	e1a04000 	mov	r4, r0
102cc13c:	0affffef 	beq	102cc100 <OnURCHandler_FTP+0xa8>
102cc140:	e3a0200a 	mov	r2, #10
102cc144:	e3a01000 	mov	r1, #0
102cc148:	e59f3064 	ldr	r3, [pc, #100]	; 102cc1b4 <OnURCHandler_FTP+0x15c>
102cc14c:	e28d0004 	add	r0, sp, #4
102cc150:	e12fff33 	blx	r3
102cc154:	e1a01005 	mov	r1, r5
102cc158:	e0652004 	rsb	r2, r5, r4
102cc15c:	e59f3054 	ldr	r3, [pc, #84]	; 102cc1b8 <OnURCHandler_FTP+0x160>
102cc160:	e28d0004 	add	r0, sp, #4
102cc164:	e12fff33 	blx	r3
102cc168:	e59f304c 	ldr	r3, [pc, #76]	; 102cc1bc <OnURCHandler_FTP+0x164>
102cc16c:	e28d0004 	add	r0, sp, #4
102cc170:	e12fff33 	blx	r3
102cc174:	e59f5044 	ldr	r5, [pc, #68]	; 102cc1c0 <OnURCHandler_FTP+0x168>
102cc178:	e5953004 	ldr	r3, [r5, #4]
102cc17c:	e3530000 	cmp	r3, #0
102cc180:	e1a01000 	mov	r1, r0
102cc184:	0affffdd 	beq	102cc100 <OnURCHandler_FTP+0xa8>
102cc188:	e3500000 	cmp	r0, #0
102cc18c:	b3a00000 	movlt	r0, #0
102cc190:	a3a00001 	movge	r0, #1
102cc194:	e12fff33 	blx	r3
102cc198:	e3a03000 	mov	r3, #0
102cc19c:	e5853004 	str	r3, [r5, #4]
102cc1a0:	eaffffd6 	b	102cc100 <OnURCHandler_FTP+0xa8>
102cc1a4:	102d18a0 	.word	0x102d18a0
102cc1a8:	102cf8a8 	.word	0x102cf8a8
102cc1ac:	102cf648 	.word	0x102cf648
102cc1b0:	102d1dc4 	.word	0x102d1dc4
102cc1b4:	102cf798 	.word	0x102cf798
102cc1b8:	102cf820 	.word	0x102cf820
102cc1bc:	102cf930 	.word	0x102cf930
102cc1c0:	f03d2120 	.word	0xf03d2120
102cc1c4:	102d18ac 	.word	0x102d18ac

102cc1c8 <OnURCHandler_AlarmRing>:
102cc1c8:	e3a00000 	mov	r0, #0
102cc1cc:	e92d4008 	push	{r3, lr}
102cc1d0:	e59f1010 	ldr	r1, [pc, #16]	; 102cc1e8 <OnURCHandler_AlarmRing+0x20>
102cc1d4:	e3a0200a 	mov	r2, #10
102cc1d8:	e1a03000 	mov	r3, r0
102cc1dc:	e59fc008 	ldr	ip, [pc, #8]	; 102cc1ec <OnURCHandler_AlarmRing+0x24>
102cc1e0:	e12fff3c 	blx	ip
102cc1e4:	e8bd8008 	pop	{r3, pc}
102cc1e8:	00001002 	.word	0x00001002
102cc1ec:	102cfb70 	.word	0x102cfb70

102cc1f0 <OnURCHandler_InitStat>:
102cc1f0:	e92d4038 	push	{r3, r4, r5, lr}
102cc1f4:	e59f1048 	ldr	r1, [pc, #72]	; 102cc244 <OnURCHandler_InitStat+0x54>
102cc1f8:	e59f4048 	ldr	r4, [pc, #72]	; 102cc248 <OnURCHandler_InitStat+0x58>
102cc1fc:	e1a05000 	mov	r5, r0
102cc200:	e12fff34 	blx	r4
102cc204:	e3500000 	cmp	r0, #0
102cc208:	13a03002 	movne	r3, #2
102cc20c:	0a000005 	beq	102cc228 <OnURCHandler_InitStat+0x38>
102cc210:	e59f1034 	ldr	r1, [pc, #52]	; 102cc24c <OnURCHandler_InitStat+0x5c>
102cc214:	e3a02001 	mov	r2, #1
102cc218:	e59fc030 	ldr	ip, [pc, #48]	; 102cc250 <OnURCHandler_InitStat+0x60>
102cc21c:	e3a00000 	mov	r0, #0
102cc220:	e12fff3c 	blx	ip
102cc224:	e8bd8038 	pop	{r3, r4, r5, pc}
102cc228:	e1a00005 	mov	r0, r5
102cc22c:	e59f1020 	ldr	r1, [pc, #32]	; 102cc254 <OnURCHandler_InitStat+0x64>
102cc230:	e12fff34 	blx	r4
102cc234:	e3500000 	cmp	r0, #0
102cc238:	13a03003 	movne	r3, #3
102cc23c:	03a03000 	moveq	r3, #0
102cc240:	eafffff2 	b	102cc210 <OnURCHandler_InitStat+0x20>
102cc244:	102d18b8 	.word	0x102d18b8
102cc248:	102cf8a8 	.word	0x102cf8a8
102cc24c:	00001002 	.word	0x00001002
102cc250:	102cfb70 	.word	0x102cfb70
102cc254:	102d18c8 	.word	0x102d18c8

102cc258 <OnURCHandler_CFUN>:
102cc258:	e92d4030 	push	{r4, r5, lr}
102cc25c:	e59f3090 	ldr	r3, [pc, #144]	; 102cc2f4 <OnURCHandler_CFUN+0x9c>
102cc260:	e24dd014 	sub	sp, sp, #20
102cc264:	e1a05000 	mov	r5, r0
102cc268:	e59f0088 	ldr	r0, [pc, #136]	; 102cc2f8 <OnURCHandler_CFUN+0xa0>
102cc26c:	e12fff33 	blx	r3
102cc270:	e59f1080 	ldr	r1, [pc, #128]	; 102cc2f8 <OnURCHandler_CFUN+0xa0>
102cc274:	e1a04000 	mov	r4, r0
102cc278:	e1a00005 	mov	r0, r5
102cc27c:	e59f5078 	ldr	r5, [pc, #120]	; 102cc2fc <OnURCHandler_CFUN+0xa4>
102cc280:	e12fff35 	blx	r5
102cc284:	e59f1074 	ldr	r1, [pc, #116]	; 102cc300 <OnURCHandler_CFUN+0xa8>
102cc288:	e0804004 	add	r4, r0, r4
102cc28c:	e1a00004 	mov	r0, r4
102cc290:	e12fff35 	blx	r5
102cc294:	e3540000 	cmp	r4, #0
102cc298:	13500000 	cmpne	r0, #0
102cc29c:	0a000012 	beq	102cc2ec <OnURCHandler_CFUN+0x94>
102cc2a0:	e3a0200a 	mov	r2, #10
102cc2a4:	e3a01000 	mov	r1, #0
102cc2a8:	e59f3054 	ldr	r3, [pc, #84]	; 102cc304 <OnURCHandler_CFUN+0xac>
102cc2ac:	e28d0004 	add	r0, sp, #4
102cc2b0:	e12fff33 	blx	r3
102cc2b4:	e1a01004 	mov	r1, r4
102cc2b8:	e3a02001 	mov	r2, #1
102cc2bc:	e59f3044 	ldr	r3, [pc, #68]	; 102cc308 <OnURCHandler_CFUN+0xb0>
102cc2c0:	e28d0004 	add	r0, sp, #4
102cc2c4:	e12fff33 	blx	r3
102cc2c8:	e59f303c 	ldr	r3, [pc, #60]	; 102cc30c <OnURCHandler_CFUN+0xb4>
102cc2cc:	e28d0004 	add	r0, sp, #4
102cc2d0:	e12fff33 	blx	r3
102cc2d4:	e59f1034 	ldr	r1, [pc, #52]	; 102cc310 <OnURCHandler_CFUN+0xb8>
102cc2d8:	e3a02005 	mov	r2, #5
102cc2dc:	e59fc030 	ldr	ip, [pc, #48]	; 102cc314 <OnURCHandler_CFUN+0xbc>
102cc2e0:	e1a03000 	mov	r3, r0
102cc2e4:	e3a00000 	mov	r0, #0
102cc2e8:	e12fff3c 	blx	ip
102cc2ec:	e28dd014 	add	sp, sp, #20
102cc2f0:	e8bd8030 	pop	{r4, r5, pc}
102cc2f4:	102cf648 	.word	0x102cf648
102cc2f8:	102d18d8 	.word	0x102d18d8
102cc2fc:	102cf8a8 	.word	0x102cf8a8
102cc300:	102d1dc4 	.word	0x102d1dc4
102cc304:	102cf798 	.word	0x102cf798
102cc308:	102cf820 	.word	0x102cf820
102cc30c:	102cf930 	.word	0x102cf930
102cc310:	00001002 	.word	0x00001002
102cc314:	102cfb70 	.word	0x102cfb70

102cc318 <OnURCHandler_Voltage>:
102cc318:	e92d4038 	push	{r3, r4, r5, lr}
102cc31c:	e59f107c 	ldr	r1, [pc, #124]	; 102cc3a0 <OnURCHandler_Voltage+0x88>
102cc320:	e59f407c 	ldr	r4, [pc, #124]	; 102cc3a4 <OnURCHandler_Voltage+0x8c>
102cc324:	e1a05000 	mov	r5, r0
102cc328:	e12fff34 	blx	r4
102cc32c:	e3500000 	cmp	r0, #0
102cc330:	1a00000b 	bne	102cc364 <OnURCHandler_Voltage+0x4c>
102cc334:	e1a00005 	mov	r0, r5
102cc338:	e59f1068 	ldr	r1, [pc, #104]	; 102cc3a8 <OnURCHandler_Voltage+0x90>
102cc33c:	e12fff34 	blx	r4
102cc340:	e3500000 	cmp	r0, #0
102cc344:	13a03001 	movne	r3, #1
102cc348:	0a000007 	beq	102cc36c <OnURCHandler_Voltage+0x54>
102cc34c:	e59f1058 	ldr	r1, [pc, #88]	; 102cc3ac <OnURCHandler_Voltage+0x94>
102cc350:	e3a02009 	mov	r2, #9
102cc354:	e59fc054 	ldr	ip, [pc, #84]	; 102cc3b0 <OnURCHandler_Voltage+0x98>
102cc358:	e3a00000 	mov	r0, #0
102cc35c:	e12fff3c 	blx	ip
102cc360:	e8bd8038 	pop	{r3, r4, r5, pc}
102cc364:	e3a03000 	mov	r3, #0
102cc368:	eafffff7 	b	102cc34c <OnURCHandler_Voltage+0x34>
102cc36c:	e1a00005 	mov	r0, r5
102cc370:	e59f103c 	ldr	r1, [pc, #60]	; 102cc3b4 <OnURCHandler_Voltage+0x9c>
102cc374:	e12fff34 	blx	r4
102cc378:	e3500000 	cmp	r0, #0
102cc37c:	13a03002 	movne	r3, #2
102cc380:	1afffff1 	bne	102cc34c <OnURCHandler_Voltage+0x34>
102cc384:	e1a00005 	mov	r0, r5
102cc388:	e59f1028 	ldr	r1, [pc, #40]	; 102cc3b8 <OnURCHandler_Voltage+0xa0>
102cc38c:	e12fff34 	blx	r4
102cc390:	e3500000 	cmp	r0, #0
102cc394:	13a03003 	movne	r3, #3
102cc398:	1affffeb 	bne	102cc34c <OnURCHandler_Voltage+0x34>
102cc39c:	e8bd8038 	pop	{r3, r4, r5, pc}
102cc3a0:	102d18e4 	.word	0x102d18e4
102cc3a4:	102ccb6c 	.word	0x102ccb6c
102cc3a8:	102d1900 	.word	0x102d1900
102cc3ac:	00001002 	.word	0x00001002
102cc3b0:	102cfb70 	.word	0x102cfb70
102cc3b4:	102d1920 	.word	0x102d1920
102cc3b8:	102d193c 	.word	0x102d193c

102cc3bc <OnURCHandler_Network>:
102cc3bc:	e92d40f0 	push	{r4, r5, r6, r7, lr}
102cc3c0:	e59f1150 	ldr	r1, [pc, #336]	; 102cc518 <OnURCHandler_Network+0x15c>
102cc3c4:	e24dd014 	sub	sp, sp, #20
102cc3c8:	e59f414c 	ldr	r4, [pc, #332]	; 102cc51c <OnURCHandler_Network+0x160>
102cc3cc:	e1a05000 	mov	r5, r0
102cc3d0:	e12fff34 	blx	r4
102cc3d4:	e2506000 	subs	r6, r0, #0
102cc3d8:	0a000011 	beq	102cc424 <OnURCHandler_Network+0x68>
102cc3dc:	e59f1134 	ldr	r1, [pc, #308]	; 102cc518 <OnURCHandler_Network+0x15c>
102cc3e0:	e59f6138 	ldr	r6, [pc, #312]	; 102cc520 <OnURCHandler_Network+0x164>
102cc3e4:	e1a00005 	mov	r0, r5
102cc3e8:	e12fff36 	blx	r6
102cc3ec:	e59f3130 	ldr	r3, [pc, #304]	; 102cc524 <OnURCHandler_Network+0x168>
102cc3f0:	e1a04000 	mov	r4, r0
102cc3f4:	e59f011c 	ldr	r0, [pc, #284]	; 102cc518 <OnURCHandler_Network+0x15c>
102cc3f8:	e12fff33 	blx	r3
102cc3fc:	e59f1124 	ldr	r1, [pc, #292]	; 102cc528 <OnURCHandler_Network+0x16c>
102cc400:	e0844000 	add	r4, r4, r0
102cc404:	e1a00004 	mov	r0, r4
102cc408:	e12fff36 	blx	r6
102cc40c:	e3540000 	cmp	r4, #0
102cc410:	13500000 	cmpne	r0, #0
102cc414:	e1a05000 	mov	r5, r0
102cc418:	1a00002a 	bne	102cc4c8 <OnURCHandler_Network+0x10c>
102cc41c:	e28dd014 	add	sp, sp, #20
102cc420:	e8bd80f0 	pop	{r4, r5, r6, r7, pc}
102cc424:	e1a00005 	mov	r0, r5
102cc428:	e59f10fc 	ldr	r1, [pc, #252]	; 102cc52c <OnURCHandler_Network+0x170>
102cc42c:	e12fff34 	blx	r4
102cc430:	e3500000 	cmp	r0, #0
102cc434:	0afffff8 	beq	102cc41c <OnURCHandler_Network+0x60>
102cc438:	e59f10ec 	ldr	r1, [pc, #236]	; 102cc52c <OnURCHandler_Network+0x170>
102cc43c:	e59f70dc 	ldr	r7, [pc, #220]	; 102cc520 <OnURCHandler_Network+0x164>
102cc440:	e1a00005 	mov	r0, r5
102cc444:	e12fff37 	blx	r7
102cc448:	e59f30d4 	ldr	r3, [pc, #212]	; 102cc524 <OnURCHandler_Network+0x168>
102cc44c:	e1a04000 	mov	r4, r0
102cc450:	e59f00d4 	ldr	r0, [pc, #212]	; 102cc52c <OnURCHandler_Network+0x170>
102cc454:	e12fff33 	blx	r3
102cc458:	e59f10c8 	ldr	r1, [pc, #200]	; 102cc528 <OnURCHandler_Network+0x16c>
102cc45c:	e0844000 	add	r4, r4, r0
102cc460:	e1a00004 	mov	r0, r4
102cc464:	e12fff37 	blx	r7
102cc468:	e3540000 	cmp	r4, #0
102cc46c:	13500000 	cmpne	r0, #0
102cc470:	e1a05000 	mov	r5, r0
102cc474:	0affffe8 	beq	102cc41c <OnURCHandler_Network+0x60>
102cc478:	e1a01006 	mov	r1, r6
102cc47c:	e3a0200a 	mov	r2, #10
102cc480:	e28d0004 	add	r0, sp, #4
102cc484:	e59f30a4 	ldr	r3, [pc, #164]	; 102cc530 <OnURCHandler_Network+0x174>
102cc488:	e12fff33 	blx	r3
102cc48c:	e1a01004 	mov	r1, r4
102cc490:	e0642005 	rsb	r2, r4, r5
102cc494:	e28d0004 	add	r0, sp, #4
102cc498:	e59f3094 	ldr	r3, [pc, #148]	; 102cc534 <OnURCHandler_Network+0x178>
102cc49c:	e12fff33 	blx	r3
102cc4a0:	e28d0004 	add	r0, sp, #4
102cc4a4:	e59f308c 	ldr	r3, [pc, #140]	; 102cc538 <OnURCHandler_Network+0x17c>
102cc4a8:	e12fff33 	blx	r3
102cc4ac:	e59f1088 	ldr	r1, [pc, #136]	; 102cc53c <OnURCHandler_Network+0x180>
102cc4b0:	e3a02004 	mov	r2, #4
102cc4b4:	e59fc084 	ldr	ip, [pc, #132]	; 102cc540 <OnURCHandler_Network+0x184>
102cc4b8:	e1a03000 	mov	r3, r0
102cc4bc:	e1a00006 	mov	r0, r6
102cc4c0:	e12fff3c 	blx	ip
102cc4c4:	eaffffd4 	b	102cc41c <OnURCHandler_Network+0x60>
102cc4c8:	e28d0004 	add	r0, sp, #4
102cc4cc:	e3a0200a 	mov	r2, #10
102cc4d0:	e3a01000 	mov	r1, #0
102cc4d4:	e59f3054 	ldr	r3, [pc, #84]	; 102cc530 <OnURCHandler_Network+0x174>
102cc4d8:	e12fff33 	blx	r3
102cc4dc:	e1a01004 	mov	r1, r4
102cc4e0:	e0642005 	rsb	r2, r4, r5
102cc4e4:	e28d0004 	add	r0, sp, #4
102cc4e8:	e59f3044 	ldr	r3, [pc, #68]	; 102cc534 <OnURCHandler_Network+0x178>
102cc4ec:	e12fff33 	blx	r3
102cc4f0:	e28d0004 	add	r0, sp, #4
102cc4f4:	e59f303c 	ldr	r3, [pc, #60]	; 102cc538 <OnURCHandler_Network+0x17c>
102cc4f8:	e12fff33 	blx	r3
102cc4fc:	e59f1038 	ldr	r1, [pc, #56]	; 102cc53c <OnURCHandler_Network+0x180>
102cc500:	e3a02003 	mov	r2, #3
102cc504:	e59fc034 	ldr	ip, [pc, #52]	; 102cc540 <OnURCHandler_Network+0x184>
102cc508:	e1a03000 	mov	r3, r0
102cc50c:	e3a00000 	mov	r0, #0
102cc510:	e12fff3c 	blx	ip
102cc514:	eaffffc0 	b	102cc41c <OnURCHandler_Network+0x60>
102cc518:	102d195c 	.word	0x102d195c
102cc51c:	102ccb6c 	.word	0x102ccb6c
102cc520:	102cf8a8 	.word	0x102cf8a8
102cc524:	102cf648 	.word	0x102cf648
102cc528:	102d1dc4 	.word	0x102d1dc4
102cc52c:	102d1968 	.word	0x102d1968
102cc530:	102cf798 	.word	0x102cf798
102cc534:	102cf820 	.word	0x102cf820
102cc538:	102cf930 	.word	0x102cf930
102cc53c:	00001002 	.word	0x00001002
102cc540:	102cfb70 	.word	0x102cfb70

102cc544 <OnURCHandler_Call>:
102cc544:	e92d47f0 	push	{r4, r5, r6, r7, r8, r9, sl, lr}
102cc548:	e59f123c 	ldr	r1, [pc, #572]	; 102cc78c <OnURCHandler_Call+0x248>
102cc54c:	e24dd010 	sub	sp, sp, #16
102cc550:	e59f4238 	ldr	r4, [pc, #568]	; 102cc790 <OnURCHandler_Call+0x24c>
102cc554:	e1a05000 	mov	r5, r0
102cc558:	e12fff34 	blx	r4
102cc55c:	e3500000 	cmp	r0, #0
102cc560:	1a000004 	bne	102cc578 <OnURCHandler_Call+0x34>
102cc564:	e1a00005 	mov	r0, r5
102cc568:	e59f1224 	ldr	r1, [pc, #548]	; 102cc794 <OnURCHandler_Call+0x250>
102cc56c:	e12fff34 	blx	r4
102cc570:	e3500000 	cmp	r0, #0
102cc574:	0a00004a 	beq	102cc6a4 <OnURCHandler_Call+0x160>
102cc578:	e1a00005 	mov	r0, r5
102cc57c:	e59f1210 	ldr	r1, [pc, #528]	; 102cc794 <OnURCHandler_Call+0x250>
102cc580:	e59f5210 	ldr	r5, [pc, #528]	; 102cc798 <OnURCHandler_Call+0x254>
102cc584:	e12fff35 	blx	r5
102cc588:	e250a000 	subs	sl, r0, #0
102cc58c:	0a000042 	beq	102cc69c <OnURCHandler_Call+0x158>
102cc590:	e59f4204 	ldr	r4, [pc, #516]	; 102cc79c <OnURCHandler_Call+0x258>
102cc594:	e59f01f8 	ldr	r0, [pc, #504]	; 102cc794 <OnURCHandler_Call+0x250>
102cc598:	e5943000 	ldr	r3, [r4]
102cc59c:	e59f81fc 	ldr	r8, [pc, #508]	; 102cc7a0 <OnURCHandler_Call+0x25c>
102cc5a0:	e2833001 	add	r3, r3, #1
102cc5a4:	e3530005 	cmp	r3, #5
102cc5a8:	859f21f4 	ldrhi	r2, [pc, #500]	; 102cc7a4 <OnURCHandler_Call+0x260>
102cc5ac:	e3a06000 	mov	r6, #0
102cc5b0:	80821293 	umullhi	r1, r2, r3, r2
102cc5b4:	81a02122 	lsrhi	r2, r2, #2
102cc5b8:	80822082 	addhi	r2, r2, r2, lsl #1
102cc5bc:	80433082 	subhi	r3, r3, r2, lsl #1
102cc5c0:	e5843000 	str	r3, [r4]
102cc5c4:	e59f31dc 	ldr	r3, [pc, #476]	; 102cc7a8 <OnURCHandler_Call+0x264>
102cc5c8:	e12fff33 	blx	r3
102cc5cc:	e59f11d8 	ldr	r1, [pc, #472]	; 102cc7ac <OnURCHandler_Call+0x268>
102cc5d0:	e08aa000 	add	sl, sl, r0
102cc5d4:	e28a0001 	add	r0, sl, #1
102cc5d8:	e12fff35 	blx	r5
102cc5dc:	e28a1002 	add	r1, sl, #2
102cc5e0:	e5943000 	ldr	r3, [r4]
102cc5e4:	e0833083 	add	r3, r3, r3, lsl #1
102cc5e8:	e0619000 	rsb	r9, r1, r0
102cc5ec:	e2499001 	sub	r9, r9, #1
102cc5f0:	e1a09809 	lsl	r9, r9, #16
102cc5f4:	e1a07000 	mov	r7, r0
102cc5f8:	e1a09829 	lsr	r9, r9, #16
102cc5fc:	e0840203 	add	r0, r4, r3, lsl #4
102cc600:	e1a02009 	mov	r2, r9
102cc604:	e2800008 	add	r0, r0, #8
102cc608:	e12fff38 	blx	r8
102cc60c:	e5943000 	ldr	r3, [r4]
102cc610:	e287a001 	add	sl, r7, #1
102cc614:	e0833083 	add	r3, r3, r3, lsl #1
102cc618:	e0899203 	add	r9, r9, r3, lsl #4
102cc61c:	e0849009 	add	r9, r4, r9
102cc620:	e59f1184 	ldr	r1, [pc, #388]	; 102cc7ac <OnURCHandler_Call+0x268>
102cc624:	e1a0000a 	mov	r0, sl
102cc628:	e5c96008 	strb	r6, [r9, #8]
102cc62c:	e12fff35 	blx	r5
102cc630:	e59f3178 	ldr	r3, [pc, #376]	; 102cc7b0 <OnURCHandler_Call+0x26c>
102cc634:	e1a01006 	mov	r1, r6
102cc638:	e3a0200a 	mov	r2, #10
102cc63c:	e1a05000 	mov	r5, r0
102cc640:	e28d0004 	add	r0, sp, #4
102cc644:	e12fff33 	blx	r3
102cc648:	e0672005 	rsb	r2, r7, r5
102cc64c:	e1a0100a 	mov	r1, sl
102cc650:	e2422001 	sub	r2, r2, #1
102cc654:	e28d0004 	add	r0, sp, #4
102cc658:	e12fff38 	blx	r8
102cc65c:	e59f3150 	ldr	r3, [pc, #336]	; 102cc7b4 <OnURCHandler_Call+0x270>
102cc660:	e28d0004 	add	r0, sp, #4
102cc664:	e5945000 	ldr	r5, [r4]
102cc668:	e12fff33 	blx	r3
102cc66c:	e5943000 	ldr	r3, [r4]
102cc670:	e0855085 	add	r5, r5, r5, lsl #1
102cc674:	e0833083 	add	r3, r3, r3, lsl #1
102cc678:	e0845205 	add	r5, r4, r5, lsl #4
102cc67c:	e0843203 	add	r3, r4, r3, lsl #4
102cc680:	e59f1130 	ldr	r1, [pc, #304]	; 102cc7b8 <OnURCHandler_Call+0x274>
102cc684:	e3a02006 	mov	r2, #6
102cc688:	e2833004 	add	r3, r3, #4
102cc68c:	e59fc128 	ldr	ip, [pc, #296]	; 102cc7bc <OnURCHandler_Call+0x278>
102cc690:	e5850004 	str	r0, [r5, #4]
102cc694:	e1a00006 	mov	r0, r6
102cc698:	e12fff3c 	blx	ip
102cc69c:	e28dd010 	add	sp, sp, #16
102cc6a0:	e8bd87f0 	pop	{r4, r5, r6, r7, r8, r9, sl, pc}
102cc6a4:	e1a00005 	mov	r0, r5
102cc6a8:	e59f1110 	ldr	r1, [pc, #272]	; 102cc7c0 <OnURCHandler_Call+0x27c>
102cc6ac:	e12fff34 	blx	r4
102cc6b0:	e3500000 	cmp	r0, #0
102cc6b4:	1affffaf 	bne	102cc578 <OnURCHandler_Call+0x34>
102cc6b8:	e1a00005 	mov	r0, r5
102cc6bc:	e59f1100 	ldr	r1, [pc, #256]	; 102cc7c4 <OnURCHandler_Call+0x280>
102cc6c0:	e12fff34 	blx	r4
102cc6c4:	e3500000 	cmp	r0, #0
102cc6c8:	1a000004 	bne	102cc6e0 <OnURCHandler_Call+0x19c>
102cc6cc:	e1a00005 	mov	r0, r5
102cc6d0:	e59f10f0 	ldr	r1, [pc, #240]	; 102cc7c8 <OnURCHandler_Call+0x284>
102cc6d4:	e12fff34 	blx	r4
102cc6d8:	e3500000 	cmp	r0, #0
102cc6dc:	0a00001f 	beq	102cc760 <OnURCHandler_Call+0x21c>
102cc6e0:	e1a00005 	mov	r0, r5
102cc6e4:	e59f10d8 	ldr	r1, [pc, #216]	; 102cc7c4 <OnURCHandler_Call+0x280>
102cc6e8:	e12fff34 	blx	r4
102cc6ec:	e59f409c 	ldr	r4, [pc, #156]	; 102cc790 <OnURCHandler_Call+0x24c>
102cc6f0:	e3500000 	cmp	r0, #0
102cc6f4:	0a000006 	beq	102cc714 <OnURCHandler_Call+0x1d0>
102cc6f8:	e3a03001 	mov	r3, #1
102cc6fc:	e59f10b4 	ldr	r1, [pc, #180]	; 102cc7b8 <OnURCHandler_Call+0x274>
102cc700:	e3a02007 	mov	r2, #7
102cc704:	e59fc0b0 	ldr	ip, [pc, #176]	; 102cc7bc <OnURCHandler_Call+0x278>
102cc708:	e3a00000 	mov	r0, #0
102cc70c:	e12fff3c 	blx	ip
102cc710:	eaffffe1 	b	102cc69c <OnURCHandler_Call+0x158>
102cc714:	e1a00005 	mov	r0, r5
102cc718:	e59f10a8 	ldr	r1, [pc, #168]	; 102cc7c8 <OnURCHandler_Call+0x284>
102cc71c:	e12fff34 	blx	r4
102cc720:	e3500000 	cmp	r0, #0
102cc724:	13a03002 	movne	r3, #2
102cc728:	1afffff3 	bne	102cc6fc <OnURCHandler_Call+0x1b8>
102cc72c:	e1a00005 	mov	r0, r5
102cc730:	e59f1094 	ldr	r1, [pc, #148]	; 102cc7cc <OnURCHandler_Call+0x288>
102cc734:	e12fff34 	blx	r4
102cc738:	e3500000 	cmp	r0, #0
102cc73c:	13a03003 	movne	r3, #3
102cc740:	1affffed 	bne	102cc6fc <OnURCHandler_Call+0x1b8>
102cc744:	e1a00005 	mov	r0, r5
102cc748:	e59f1080 	ldr	r1, [pc, #128]	; 102cc7d0 <OnURCHandler_Call+0x28c>
102cc74c:	e12fff34 	blx	r4
102cc750:	e3500000 	cmp	r0, #0
102cc754:	13a03004 	movne	r3, #4
102cc758:	1affffe7 	bne	102cc6fc <OnURCHandler_Call+0x1b8>
102cc75c:	eaffffce 	b	102cc69c <OnURCHandler_Call+0x158>
102cc760:	e1a00005 	mov	r0, r5
102cc764:	e59f1060 	ldr	r1, [pc, #96]	; 102cc7cc <OnURCHandler_Call+0x288>
102cc768:	e12fff34 	blx	r4
102cc76c:	e3500000 	cmp	r0, #0
102cc770:	1affffda 	bne	102cc6e0 <OnURCHandler_Call+0x19c>
102cc774:	e1a00005 	mov	r0, r5
102cc778:	e59f1050 	ldr	r1, [pc, #80]	; 102cc7d0 <OnURCHandler_Call+0x28c>
102cc77c:	e12fff34 	blx	r4
102cc780:	e3500000 	cmp	r0, #0
102cc784:	1affffd5 	bne	102cc6e0 <OnURCHandler_Call+0x19c>
102cc788:	eaffffc3 	b	102cc69c <OnURCHandler_Call+0x158>
102cc78c:	102d1974 	.word	0x102d1974
102cc790:	102ccb6c 	.word	0x102ccb6c
102cc794:	102d1980 	.word	0x102d1980
102cc798:	102cf8a8 	.word	0x102cf8a8
102cc79c:	f03d31d8 	.word	0xf03d31d8
102cc7a0:	102cf820 	.word	0x102cf820
102cc7a4:	aaaaaaab 	.word	0xaaaaaaab
102cc7a8:	102cf648 	.word	0x102cf648
102cc7ac:	102d19a0 	.word	0x102d19a0
102cc7b0:	102cf798 	.word	0x102cf798
102cc7b4:	102cf930 	.word	0x102cf930
102cc7b8:	00001002 	.word	0x00001002
102cc7bc:	102cfb70 	.word	0x102cfb70
102cc7c0:	102d198c 	.word	0x102d198c
102cc7c4:	102d19a4 	.word	0x102d19a4
102cc7c8:	102d19b0 	.word	0x102d19b0
102cc7cc:	102d19c0 	.word	0x102d19c0
102cc7d0:	102d19d0 	.word	0x102d19d0

102cc7d4 <OnURCHandler_SIM>:
102cc7d4:	e92d40f0 	push	{r4, r5, r6, r7, lr}
102cc7d8:	e24dd01c 	sub	sp, sp, #28
102cc7dc:	e3a02014 	mov	r2, #20
102cc7e0:	e1a04000 	mov	r4, r0
102cc7e4:	e3a01000 	mov	r1, #0
102cc7e8:	e28d0004 	add	r0, sp, #4
102cc7ec:	e59f50b8 	ldr	r5, [pc, #184]	; 102cc8ac <OnURCHandler_SIM+0xd8>
102cc7f0:	e12fff35 	blx	r5
102cc7f4:	e59f30b4 	ldr	r3, [pc, #180]	; 102cc8b0 <OnURCHandler_SIM+0xdc>
102cc7f8:	e59f10b4 	ldr	r1, [pc, #180]	; 102cc8b4 <OnURCHandler_SIM+0xe0>
102cc7fc:	e5933000 	ldr	r3, [r3]
102cc800:	e28d0004 	add	r0, sp, #4
102cc804:	e12fff33 	blx	r3
102cc808:	e28d1004 	add	r1, sp, #4
102cc80c:	e59f30a4 	ldr	r3, [pc, #164]	; 102cc8b8 <OnURCHandler_SIM+0xe4>
102cc810:	e1a06000 	mov	r6, r0
102cc814:	e1a00004 	mov	r0, r4
102cc818:	e12fff33 	blx	r3
102cc81c:	e3500000 	cmp	r0, #0
102cc820:	1a000001 	bne	102cc82c <OnURCHandler_SIM+0x58>
102cc824:	e28dd01c 	add	sp, sp, #28
102cc828:	e8bd80f0 	pop	{r4, r5, r6, r7, pc}
102cc82c:	e59f1080 	ldr	r1, [pc, #128]	; 102cc8b4 <OnURCHandler_SIM+0xe0>
102cc830:	e59f7084 	ldr	r7, [pc, #132]	; 102cc8bc <OnURCHandler_SIM+0xe8>
102cc834:	e1a00004 	mov	r0, r4
102cc838:	e12fff37 	blx	r7
102cc83c:	e59f107c 	ldr	r1, [pc, #124]	; 102cc8c0 <OnURCHandler_SIM+0xec>
102cc840:	e0804006 	add	r4, r0, r6
102cc844:	e1a00004 	mov	r0, r4
102cc848:	e12fff37 	blx	r7
102cc84c:	e3540000 	cmp	r4, #0
102cc850:	13500000 	cmpne	r0, #0
102cc854:	0afffff2 	beq	102cc824 <OnURCHandler_SIM+0x50>
102cc858:	e0646000 	rsb	r6, r4, r0
102cc85c:	e3a01000 	mov	r1, #0
102cc860:	e3a02014 	mov	r2, #20
102cc864:	e28d0004 	add	r0, sp, #4
102cc868:	e12fff35 	blx	r5
102cc86c:	e1a02006 	mov	r2, r6
102cc870:	e1a01004 	mov	r1, r4
102cc874:	e28d0004 	add	r0, sp, #4
102cc878:	e59f3044 	ldr	r3, [pc, #68]	; 102cc8c4 <OnURCHandler_SIM+0xf0>
102cc87c:	e12fff33 	blx	r3
102cc880:	e1a01006 	mov	r1, r6
102cc884:	e28d0004 	add	r0, sp, #4
102cc888:	e59f3038 	ldr	r3, [pc, #56]	; 102cc8c8 <OnURCHandler_SIM+0xf4>
102cc88c:	e12fff33 	blx	r3
102cc890:	e59f1034 	ldr	r1, [pc, #52]	; 102cc8cc <OnURCHandler_SIM+0xf8>
102cc894:	e3a02002 	mov	r2, #2
102cc898:	e59fc030 	ldr	ip, [pc, #48]	; 102cc8d0 <OnURCHandler_SIM+0xfc>
102cc89c:	e1a03000 	mov	r3, r0
102cc8a0:	e3a00000 	mov	r0, #0
102cc8a4:	e12fff3c 	blx	ip
102cc8a8:	eaffffdd 	b	102cc824 <OnURCHandler_SIM+0x50>
102cc8ac:	102cf798 	.word	0x102cf798
102cc8b0:	f03d5b00 	.word	0xf03d5b00
102cc8b4:	102d19e0 	.word	0x102d19e0
102cc8b8:	102ccb6c 	.word	0x102ccb6c
102cc8bc:	102cf8a8 	.word	0x102cf8a8
102cc8c0:	102d1dc4 	.word	0x102d1dc4
102cc8c4:	102cf820 	.word	0x102cf820
102cc8c8:	102cbb50 	.word	0x102cbb50
102cc8cc:	00001002 	.word	0x00001002
102cc8d0:	102cfb70 	.word	0x102cfb70

102cc8d4 <OnURCHandler_SMS>:
102cc8d4:	e92d40f0 	push	{r4, r5, r6, r7, lr}
102cc8d8:	e59f110c 	ldr	r1, [pc, #268]	; 102cc9ec <OnURCHandler_SMS+0x118>
102cc8dc:	e24dd014 	sub	sp, sp, #20
102cc8e0:	e59f4108 	ldr	r4, [pc, #264]	; 102cc9f0 <OnURCHandler_SMS+0x11c>
102cc8e4:	e1a06000 	mov	r6, r0
102cc8e8:	e12fff34 	blx	r4
102cc8ec:	e3500000 	cmp	r0, #0
102cc8f0:	0a000018 	beq	102cc958 <OnURCHandler_SMS+0x84>
102cc8f4:	e59f10f8 	ldr	r1, [pc, #248]	; 102cc9f4 <OnURCHandler_SMS+0x120>
102cc8f8:	e59f50f8 	ldr	r5, [pc, #248]	; 102cc9f8 <OnURCHandler_SMS+0x124>
102cc8fc:	e1a00006 	mov	r0, r6
102cc900:	e12fff35 	blx	r5
102cc904:	e59f10f0 	ldr	r1, [pc, #240]	; 102cc9fc <OnURCHandler_SMS+0x128>
102cc908:	e2806003 	add	r6, r0, #3
102cc90c:	e1a00006 	mov	r0, r6
102cc910:	e12fff35 	blx	r5
102cc914:	e2907000 	adds	r7, r0, #0
102cc918:	13a07001 	movne	r7, #1
102cc91c:	e3560000 	cmp	r6, #0
102cc920:	13500000 	cmpne	r0, #0
102cc924:	e1a04000 	mov	r4, r0
102cc928:	1a000023 	bne	102cc9bc <OnURCHandler_SMS+0xe8>
102cc92c:	e1a00004 	mov	r0, r4
102cc930:	e59f10c8 	ldr	r1, [pc, #200]	; 102cca00 <OnURCHandler_SMS+0x12c>
102cc934:	e12fff35 	blx	r5
102cc938:	e3500000 	cmp	r0, #0
102cc93c:	03a07000 	moveq	r7, #0
102cc940:	12077001 	andne	r7, r7, #1
102cc944:	e3570000 	cmp	r7, #0
102cc948:	e1a05000 	mov	r5, r0
102cc94c:	1a000005 	bne	102cc968 <OnURCHandler_SMS+0x94>
102cc950:	e28dd014 	add	sp, sp, #20
102cc954:	e8bd80f0 	pop	{r4, r5, r6, r7, pc}
102cc958:	e1a00006 	mov	r0, r6
102cc95c:	e59f10a0 	ldr	r1, [pc, #160]	; 102cca04 <OnURCHandler_SMS+0x130>
102cc960:	e12fff34 	blx	r4
102cc964:	eafffff9 	b	102cc950 <OnURCHandler_SMS+0x7c>
102cc968:	e28d0004 	add	r0, sp, #4
102cc96c:	e3a01000 	mov	r1, #0
102cc970:	e3a0200a 	mov	r2, #10
102cc974:	e59f308c 	ldr	r3, [pc, #140]	; 102cca08 <OnURCHandler_SMS+0x134>
102cc978:	e12fff33 	blx	r3
102cc97c:	e0642005 	rsb	r2, r4, r5
102cc980:	e2841001 	add	r1, r4, #1
102cc984:	e2422001 	sub	r2, r2, #1
102cc988:	e28d0004 	add	r0, sp, #4
102cc98c:	e59f3078 	ldr	r3, [pc, #120]	; 102cca0c <OnURCHandler_SMS+0x138>
102cc990:	e12fff33 	blx	r3
102cc994:	e28d0004 	add	r0, sp, #4
102cc998:	e59f3070 	ldr	r3, [pc, #112]	; 102cca10 <OnURCHandler_SMS+0x13c>
102cc99c:	e12fff33 	blx	r3
102cc9a0:	e59f106c 	ldr	r1, [pc, #108]	; 102cca14 <OnURCHandler_SMS+0x140>
102cc9a4:	e3a02008 	mov	r2, #8
102cc9a8:	e59fc068 	ldr	ip, [pc, #104]	; 102cca18 <OnURCHandler_SMS+0x144>
102cc9ac:	e1a03000 	mov	r3, r0
102cc9b0:	e3a00000 	mov	r0, #0
102cc9b4:	e12fff3c 	blx	ip
102cc9b8:	eaffffe4 	b	102cc950 <OnURCHandler_SMS+0x7c>
102cc9bc:	e3a01000 	mov	r1, #0
102cc9c0:	e3a02004 	mov	r2, #4
102cc9c4:	e1a0000d 	mov	r0, sp
102cc9c8:	e59f3038 	ldr	r3, [pc, #56]	; 102cca08 <OnURCHandler_SMS+0x134>
102cc9cc:	e12fff33 	blx	r3
102cc9d0:	e0662004 	rsb	r2, r6, r4
102cc9d4:	e1a0000d 	mov	r0, sp
102cc9d8:	e1a01006 	mov	r1, r6
102cc9dc:	e2422001 	sub	r2, r2, #1
102cc9e0:	e59f3024 	ldr	r3, [pc, #36]	; 102cca0c <OnURCHandler_SMS+0x138>
102cc9e4:	e12fff33 	blx	r3
102cc9e8:	eaffffcf 	b	102cc92c <OnURCHandler_SMS+0x58>
102cc9ec:	102d19ec 	.word	0x102d19ec
102cc9f0:	102ccb6c 	.word	0x102ccb6c
102cc9f4:	102d16d4 	.word	0x102d16d4
102cc9f8:	102cf8a8 	.word	0x102cf8a8
102cc9fc:	102d19a0 	.word	0x102d19a0
102cca00:	102d1dc4 	.word	0x102d1dc4
102cca04:	102d19f8 	.word	0x102d19f8
102cca08:	102cf798 	.word	0x102cf798
102cca0c:	102cf5c0 	.word	0x102cf5c0
102cca10:	102cf930 	.word	0x102cf930
102cca14:	00001002 	.word	0x00001002
102cca18:	102cfb70 	.word	0x102cfb70

102cca1c <OnURCHandler>:
102cca1c:	e92d45f8 	push	{r3, r4, r5, r6, r7, r8, sl, lr}
102cca20:	e2506000 	subs	r6, r0, #0
102cca24:	e1a0a001 	mov	sl, r1
102cca28:	08bd85f8 	popeq	{r3, r4, r5, r6, r7, r8, sl, pc}
102cca2c:	e59f80a4 	ldr	r8, [pc, #164]	; 102ccad8 <OnURCHandler+0xbc>
102cca30:	e59f70a4 	ldr	r7, [pc, #164]	; 102ccadc <OnURCHandler+0xc0>
102cca34:	e3a04000 	mov	r4, #0
102cca38:	ea000001 	b	102cca44 <OnURCHandler+0x28>
102cca3c:	e3540015 	cmp	r4, #21
102cca40:	0a00000c 	beq	102cca78 <OnURCHandler+0x5c>
102cca44:	e0645184 	rsb	r5, r4, r4, lsl #3
102cca48:	e0885185 	add	r5, r8, r5, lsl #3
102cca4c:	e1a00006 	mov	r0, r6
102cca50:	e1a01005 	mov	r1, r5
102cca54:	e12fff37 	blx	r7
102cca58:	e2844001 	add	r4, r4, #1
102cca5c:	e3500000 	cmp	r0, #0
102cca60:	0afffff5 	beq	102cca3c <OnURCHandler+0x20>
102cca64:	e5953034 	ldr	r3, [r5, #52]	; 0x34
102cca68:	e1a00006 	mov	r0, r6
102cca6c:	e1a0100a 	mov	r1, sl
102cca70:	e12fff33 	blx	r3
102cca74:	e8bd85f8 	pop	{r3, r4, r5, r6, r7, r8, sl, pc}
102cca78:	e59f8060 	ldr	r8, [pc, #96]	; 102ccae0 <OnURCHandler+0xc4>
102cca7c:	e1a04000 	mov	r4, r0
102cca80:	e0645184 	rsb	r5, r4, r4, lsl #3
102cca84:	e1a05185 	lsl	r5, r5, #3
102cca88:	e1a00006 	mov	r0, r6
102cca8c:	e0881005 	add	r1, r8, r5
102cca90:	e12fff37 	blx	r7
102cca94:	e2844001 	add	r4, r4, #1
102cca98:	e2503000 	subs	r3, r0, #0
102cca9c:	1a000006 	bne	102ccabc <OnURCHandler+0xa0>
102ccaa0:	e3540011 	cmp	r4, #17
102ccaa4:	1afffff5 	bne	102cca80 <OnURCHandler+0x64>
102ccaa8:	e59f1034 	ldr	r1, [pc, #52]	; 102ccae4 <OnURCHandler+0xc8>
102ccaac:	e3a02065 	mov	r2, #101	; 0x65
102ccab0:	e59fc030 	ldr	ip, [pc, #48]	; 102ccae8 <OnURCHandler+0xcc>
102ccab4:	e12fff3c 	blx	ip
102ccab8:	e8bd85f8 	pop	{r3, r4, r5, r6, r7, r8, sl, pc}
102ccabc:	e59f3014 	ldr	r3, [pc, #20]	; 102ccad8 <OnURCHandler+0xbc>
102ccac0:	e1a00006 	mov	r0, r6
102ccac4:	e0835005 	add	r5, r3, r5
102ccac8:	e59534cc 	ldr	r3, [r5, #1228]	; 0x4cc
102ccacc:	e1a0100a 	mov	r1, sl
102ccad0:	e12fff33 	blx	r3
102ccad4:	e8bd85f8 	pop	{r3, r4, r5, r6, r7, r8, sl, pc}
102ccad8:	102d0430 	.word	0x102d0430
102ccadc:	102cf8a8 	.word	0x102cf8a8
102ccae0:	102d08c8 	.word	0x102d08c8
102ccae4:	00001002 	.word	0x00001002
102ccae8:	102cfb70 	.word	0x102cfb70

102ccaec <Ql_RIL_IsURCStr>:
102ccaec:	e92d40f8 	push	{r3, r4, r5, r6, r7, lr}
102ccaf0:	e59f7068 	ldr	r7, [pc, #104]	; 102ccb60 <Ql_RIL_IsURCStr+0x74>
102ccaf4:	e59f6068 	ldr	r6, [pc, #104]	; 102ccb64 <Ql_RIL_IsURCStr+0x78>
102ccaf8:	e1a05000 	mov	r5, r0
102ccafc:	e3a04000 	mov	r4, #0
102ccb00:	ea000001 	b	102ccb0c <Ql_RIL_IsURCStr+0x20>
102ccb04:	e3540015 	cmp	r4, #21
102ccb08:	0a000008 	beq	102ccb30 <Ql_RIL_IsURCStr+0x44>
102ccb0c:	e0641184 	rsb	r1, r4, r4, lsl #3
102ccb10:	e1a00005 	mov	r0, r5
102ccb14:	e0871181 	add	r1, r7, r1, lsl #3
102ccb18:	e12fff36 	blx	r6
102ccb1c:	e2844001 	add	r4, r4, #1
102ccb20:	e3500000 	cmp	r0, #0
102ccb24:	0afffff6 	beq	102ccb04 <Ql_RIL_IsURCStr+0x18>
102ccb28:	e3a00001 	mov	r0, #1
102ccb2c:	e8bd80f8 	pop	{r3, r4, r5, r6, r7, pc}
102ccb30:	e59f7030 	ldr	r7, [pc, #48]	; 102ccb68 <Ql_RIL_IsURCStr+0x7c>
102ccb34:	e1a04000 	mov	r4, r0
102ccb38:	e0641184 	rsb	r1, r4, r4, lsl #3
102ccb3c:	e1a00005 	mov	r0, r5
102ccb40:	e0871181 	add	r1, r7, r1, lsl #3
102ccb44:	e12fff36 	blx	r6
102ccb48:	e2844001 	add	r4, r4, #1
102ccb4c:	e3500000 	cmp	r0, #0
102ccb50:	1afffff4 	bne	102ccb28 <Ql_RIL_IsURCStr+0x3c>
102ccb54:	e3540011 	cmp	r4, #17
102ccb58:	1afffff6 	bne	102ccb38 <Ql_RIL_IsURCStr+0x4c>
102ccb5c:	e8bd80f8 	pop	{r3, r4, r5, r6, r7, pc}
102ccb60:	102d0430 	.word	0x102d0430
102ccb64:	102cf8a8 	.word	0x102cf8a8
102ccb68:	102d08c8 	.word	0x102d08c8

102ccb6c <Ql_StrPrefixMatch>:
102ccb6c:	e5d03000 	ldrb	r3, [r0]
102ccb70:	e5d12000 	ldrb	r2, [r1]
102ccb74:	e3530000 	cmp	r3, #0
102ccb78:	1a000006 	bne	102ccb98 <Ql_StrPrefixMatch+0x2c>
102ccb7c:	ea000007 	b	102ccba0 <Ql_StrPrefixMatch+0x34>
102ccb80:	e1530002 	cmp	r3, r2
102ccb84:	1a000008 	bne	102ccbac <Ql_StrPrefixMatch+0x40>
102ccb88:	e5f03001 	ldrb	r3, [r0, #1]!
102ccb8c:	e3530000 	cmp	r3, #0
102ccb90:	0a000007 	beq	102ccbb4 <Ql_StrPrefixMatch+0x48>
102ccb94:	e5f12001 	ldrb	r2, [r1, #1]!
102ccb98:	e3520000 	cmp	r2, #0
102ccb9c:	1afffff7 	bne	102ccb80 <Ql_StrPrefixMatch+0x14>
102ccba0:	e2720001 	rsbs	r0, r2, #1
102ccba4:	33a00000 	movcc	r0, #0
102ccba8:	e12fff1e 	bx	lr
102ccbac:	e3a00000 	mov	r0, #0
102ccbb0:	e12fff1e 	bx	lr
102ccbb4:	e5d12001 	ldrb	r2, [r1, #1]
102ccbb8:	eafffff8 	b	102ccba0 <Ql_StrPrefixMatch+0x34>

102ccbbc <Ql_StrToUpper>:
102ccbbc:	e92d4070 	push	{r4, r5, r6, lr}
102ccbc0:	e2505000 	subs	r5, r0, #0
102ccbc4:	0a000010 	beq	102ccc0c <Ql_StrToUpper+0x50>
102ccbc8:	e5d50000 	ldrb	r0, [r5]
102ccbcc:	e3500000 	cmp	r0, #0
102ccbd0:	0a00000d 	beq	102ccc0c <Ql_StrToUpper+0x50>
102ccbd4:	e59f6038 	ldr	r6, [pc, #56]	; 102ccc14 <Ql_StrToUpper+0x58>
102ccbd8:	e2854001 	add	r4, r5, #1
102ccbdc:	ea000002 	b	102ccbec <Ql_StrToUpper+0x30>
102ccbe0:	e4d40001 	ldrb	r0, [r4], #1
102ccbe4:	e3500000 	cmp	r0, #0
102ccbe8:	0a000007 	beq	102ccc0c <Ql_StrToUpper+0x50>
102ccbec:	e2403061 	sub	r3, r0, #97	; 0x61
102ccbf0:	e3530019 	cmp	r3, #25
102ccbf4:	8afffff9 	bhi	102ccbe0 <Ql_StrToUpper+0x24>
102ccbf8:	e12fff36 	blx	r6
102ccbfc:	e5440001 	strb	r0, [r4, #-1]
102ccc00:	e4d40001 	ldrb	r0, [r4], #1
102ccc04:	e3500000 	cmp	r0, #0
102ccc08:	1afffff7 	bne	102ccbec <Ql_StrToUpper+0x30>
102ccc0c:	e1a00005 	mov	r0, r5
102ccc10:	e8bd8070 	pop	{r4, r5, r6, pc}
102ccc14:	102cf928 	.word	0x102cf928

102ccc18 <Ql_HexStrToInt>:
102ccc18:	e3500000 	cmp	r0, #0
102ccc1c:	13510000 	cmpne	r1, #0
102ccc20:	e92d41f0 	push	{r4, r5, r6, r7, r8, lr}
102ccc24:	e1a08001 	mov	r8, r1
102ccc28:	13a04000 	movne	r4, #0
102ccc2c:	03a04001 	moveq	r4, #1
102ccc30:	e1a07000 	mov	r7, r0
102ccc34:	1a000001 	bne	102ccc40 <Ql_HexStrToInt+0x28>
102ccc38:	e3a00000 	mov	r0, #0
102ccc3c:	e8bd81f0 	pop	{r4, r5, r6, r7, r8, pc}
102ccc40:	ebffffdd 	bl	102ccbbc <Ql_StrToUpper>
102ccc44:	e5d73000 	ldrb	r3, [r7]
102ccc48:	e3530000 	cmp	r3, #0
102ccc4c:	0a000014 	beq	102ccca4 <Ql_HexStrToInt+0x8c>
102ccc50:	e1a02004 	mov	r2, r4
102ccc54:	e1a0c004 	mov	ip, r4
102ccc58:	e2434030 	sub	r4, r3, #48	; 0x30
102ccc5c:	e0836202 	add	r6, r3, r2, lsl #4
102ccc60:	e3540009 	cmp	r4, #9
102ccc64:	e1a02006 	mov	r2, r6
102ccc68:	e2435041 	sub	r5, r3, #65	; 0x41
102ccc6c:	92462030 	subls	r2, r6, #48	; 0x30
102ccc70:	9a000002 	bls	102ccc80 <Ql_HexStrToInt+0x68>
102ccc74:	e3550005 	cmp	r5, #5
102ccc78:	e2422037 	sub	r2, r2, #55	; 0x37
102ccc7c:	8affffed 	bhi	102ccc38 <Ql_HexStrToInt+0x20>
102ccc80:	e28cc001 	add	ip, ip, #1
102ccc84:	e1a0c80c 	lsl	ip, ip, #16
102ccc88:	e7d7382c 	ldrb	r3, [r7, ip, lsr #16]
102ccc8c:	e1a0c82c 	lsr	ip, ip, #16
102ccc90:	e3530000 	cmp	r3, #0
102ccc94:	1affffef 	bne	102ccc58 <Ql_HexStrToInt+0x40>
102ccc98:	e3a00001 	mov	r0, #1
102ccc9c:	e5882000 	str	r2, [r8]
102ccca0:	e8bd81f0 	pop	{r4, r5, r6, r7, r8, pc}
102ccca4:	e1a02003 	mov	r2, r3
102ccca8:	eafffffa 	b	102ccc98 <Ql_HexStrToInt+0x80>

102cccac <Ql_RIL_FindString>:
102cccac:	e3500000 	cmp	r0, #0
102cccb0:	13520000 	cmpne	r2, #0
102cccb4:	e92d41f0 	push	{r4, r5, r6, r7, r8, lr}
102cccb8:	e1a05002 	mov	r5, r2
102cccbc:	e1a04000 	mov	r4, r0
102cccc0:	e1a08001 	mov	r8, r1
102cccc4:	0a000016 	beq	102ccd24 <Ql_RIL_FindString+0x78>
102cccc8:	e1a00002 	mov	r0, r2
102ccccc:	e59f305c 	ldr	r3, [pc, #92]	; 102ccd30 <Ql_RIL_FindString+0x84>
102cccd0:	e12fff33 	blx	r3
102cccd4:	e1500008 	cmp	r0, r8
102cccd8:	e1a06000 	mov	r6, r0
102cccdc:	8a000010 	bhi	102ccd24 <Ql_RIL_FindString+0x78>
102ccce0:	e0608008 	rsb	r8, r0, r8
102ccce4:	e2988001 	adds	r8, r8, #1
102ccce8:	0a00000d 	beq	102ccd24 <Ql_RIL_FindString+0x78>
102cccec:	e59f7040 	ldr	r7, [pc, #64]	; 102ccd34 <Ql_RIL_FindString+0x88>
102cccf0:	e0848008 	add	r8, r4, r8
102cccf4:	ea000002 	b	102ccd04 <Ql_RIL_FindString+0x58>
102cccf8:	e2844001 	add	r4, r4, #1
102cccfc:	e1540008 	cmp	r4, r8
102ccd00:	0a000007 	beq	102ccd24 <Ql_RIL_FindString+0x78>
102ccd04:	e1a00004 	mov	r0, r4
102ccd08:	e1a01005 	mov	r1, r5
102ccd0c:	e1a02006 	mov	r2, r6
102ccd10:	e12fff37 	blx	r7
102ccd14:	e3500000 	cmp	r0, #0
102ccd18:	1afffff6 	bne	102cccf8 <Ql_RIL_FindString+0x4c>
102ccd1c:	e1a00004 	mov	r0, r4
102ccd20:	e8bd81f0 	pop	{r4, r5, r6, r7, r8, pc}
102ccd24:	e3a04000 	mov	r4, #0
102ccd28:	e1a00004 	mov	r0, r4
102ccd2c:	e8bd81f0 	pop	{r4, r5, r6, r7, r8, pc}
102ccd30:	102cf648 	.word	0x102cf648
102ccd34:	102cf728 	.word	0x102cf728

102ccd38 <Ql_RIL_FindLine>:
102ccd38:	e92d4ff0 	push	{r4, r5, r6, r7, r8, r9, sl, fp, lr}
102ccd3c:	e3500000 	cmp	r0, #0
102ccd40:	13520000 	cmpne	r2, #0
102ccd44:	e24dd014 	sub	sp, sp, #20
102ccd48:	e1a0a002 	mov	sl, r2
102ccd4c:	e58d0004 	str	r0, [sp, #4]
102ccd50:	13a06000 	movne	r6, #0
102ccd54:	03a06001 	moveq	r6, #1
102ccd58:	e58d100c 	str	r1, [sp, #12]
102ccd5c:	0a000067 	beq	102ccf00 <Ql_RIL_FindLine+0x1c8>
102ccd60:	e1a00002 	mov	r0, r2
102ccd64:	e59f3224 	ldr	r3, [pc, #548]	; 102ccf90 <Ql_RIL_FindLine+0x258>
102ccd68:	e12fff33 	blx	r3
102ccd6c:	e59f8220 	ldr	r8, [pc, #544]	; 102ccf94 <Ql_RIL_FindLine+0x25c>
102ccd70:	e280b005 	add	fp, r0, #5
102ccd74:	e58d0008 	str	r0, [sp, #8]
102ccd78:	e1a0000b 	mov	r0, fp
102ccd7c:	e12fff38 	blx	r8
102ccd80:	e2505000 	subs	r5, r0, #0
102ccd84:	0a00005d 	beq	102ccf00 <Ql_RIL_FindLine+0x1c8>
102ccd88:	e59d3008 	ldr	r3, [sp, #8]
102ccd8c:	e2834004 	add	r4, r3, #4
102ccd90:	e59d300c 	ldr	r3, [sp, #12]
102ccd94:	e1540003 	cmp	r4, r3
102ccd98:	9a00005a 	bls	102ccf08 <Ql_RIL_FindLine+0x1d0>
102ccd9c:	e59d3008 	ldr	r3, [sp, #8]
102ccda0:	e2834002 	add	r4, r3, #2
102ccda4:	e59d300c 	ldr	r3, [sp, #12]
102ccda8:	e1530004 	cmp	r3, r4
102ccdac:	359f41e4 	ldrcc	r4, [pc, #484]	; 102ccf98 <Ql_RIL_FindLine+0x260>
102ccdb0:	3a000050 	bcc	102ccef8 <Ql_RIL_FindLine+0x1c0>
102ccdb4:	e59f61e0 	ldr	r6, [pc, #480]	; 102ccf9c <Ql_RIL_FindLine+0x264>
102ccdb8:	e59f91e0 	ldr	r9, [pc, #480]	; 102ccfa0 <Ql_RIL_FindLine+0x268>
102ccdbc:	e1a0200b 	mov	r2, fp
102ccdc0:	e3a01000 	mov	r1, #0
102ccdc4:	e1a00005 	mov	r0, r5
102ccdc8:	e12fff39 	blx	r9
102ccdcc:	e5963000 	ldr	r3, [r6]
102ccdd0:	e59f11cc 	ldr	r1, [pc, #460]	; 102ccfa4 <Ql_RIL_FindLine+0x26c>
102ccdd4:	e1a0200a 	mov	r2, sl
102ccdd8:	e1a00005 	mov	r0, r5
102ccddc:	e12fff33 	blx	r3
102ccde0:	e1a0000b 	mov	r0, fp
102ccde4:	e12fff38 	blx	r8
102ccde8:	e1a0200b 	mov	r2, fp
102ccdec:	e3a01000 	mov	r1, #0
102ccdf0:	e1a07000 	mov	r7, r0
102ccdf4:	e12fff39 	blx	r9
102ccdf8:	e5963000 	ldr	r3, [r6]
102ccdfc:	e59f11a4 	ldr	r1, [pc, #420]	; 102ccfa8 <Ql_RIL_FindLine+0x270>
102cce00:	e1a0200a 	mov	r2, sl
102cce04:	e1a00007 	mov	r0, r7
102cce08:	e12fff33 	blx	r3
102cce0c:	e1a0000b 	mov	r0, fp
102cce10:	e12fff38 	blx	r8
102cce14:	e1a0200b 	mov	r2, fp
102cce18:	e3a01000 	mov	r1, #0
102cce1c:	e1a08000 	mov	r8, r0
102cce20:	e12fff39 	blx	r9
102cce24:	e5963000 	ldr	r3, [r6]
102cce28:	e1a0200a 	mov	r2, sl
102cce2c:	e1a00008 	mov	r0, r8
102cce30:	e59f1174 	ldr	r1, [pc, #372]	; 102ccfac <Ql_RIL_FindLine+0x274>
102cce34:	e12fff33 	blx	r3
102cce38:	e59d300c 	ldr	r3, [sp, #12]
102cce3c:	e59d2008 	ldr	r2, [sp, #8]
102cce40:	e062b003 	rsb	fp, r2, r3
102cce44:	e35b0001 	cmp	fp, #1
102cce48:	0a000025 	beq	102ccee4 <Ql_RIL_FindLine+0x1ac>
102cce4c:	e59d3004 	ldr	r3, [sp, #4]
102cce50:	e59f6158 	ldr	r6, [pc, #344]	; 102ccfb0 <Ql_RIL_FindLine+0x278>
102cce54:	e24bb001 	sub	fp, fp, #1
102cce58:	e083b00b 	add	fp, r3, fp
102cce5c:	e1a09003 	mov	r9, r3
102cce60:	e1a0a006 	mov	sl, r6
102cce64:	ea00000b 	b	102cce98 <Ql_RIL_FindLine+0x160>
102cce68:	e12fff3a 	blx	sl
102cce6c:	e1a01008 	mov	r1, r8
102cce70:	e1a02004 	mov	r2, r4
102cce74:	e3500000 	cmp	r0, #0
102cce78:	e1a00009 	mov	r0, r9
102cce7c:	0a00000e 	beq	102ccebc <Ql_RIL_FindLine+0x184>
102cce80:	e12fff3a 	blx	sl
102cce84:	e3500000 	cmp	r0, #0
102cce88:	0a00000b 	beq	102ccebc <Ql_RIL_FindLine+0x184>
102cce8c:	e2899001 	add	r9, r9, #1
102cce90:	e159000b 	cmp	r9, fp
102cce94:	0a000012 	beq	102ccee4 <Ql_RIL_FindLine+0x1ac>
102cce98:	e1a01005 	mov	r1, r5
102cce9c:	e1a02004 	mov	r2, r4
102ccea0:	e1a00009 	mov	r0, r9
102ccea4:	e12fff36 	blx	r6
102ccea8:	e1a01007 	mov	r1, r7
102cceac:	e1a02004 	mov	r2, r4
102cceb0:	e3500000 	cmp	r0, #0
102cceb4:	e1a00009 	mov	r0, r9
102cceb8:	1affffea 	bne	102cce68 <Ql_RIL_FindLine+0x130>
102ccebc:	e59f40d4 	ldr	r4, [pc, #212]	; 102ccf98 <Ql_RIL_FindLine+0x260>
102ccec0:	e1a00005 	mov	r0, r5
102ccec4:	e12fff34 	blx	r4
102ccec8:	e1a00007 	mov	r0, r7
102ccecc:	e12fff34 	blx	r4
102cced0:	e1a00008 	mov	r0, r8
102cced4:	e12fff34 	blx	r4
102cced8:	e1a00009 	mov	r0, r9
102ccedc:	e28dd014 	add	sp, sp, #20
102ccee0:	e8bd8ff0 	pop	{r4, r5, r6, r7, r8, r9, sl, fp, pc}
102ccee4:	e1a00007 	mov	r0, r7
102ccee8:	e59f40a8 	ldr	r4, [pc, #168]	; 102ccf98 <Ql_RIL_FindLine+0x260>
102cceec:	e12fff34 	blx	r4
102ccef0:	e1a00008 	mov	r0, r8
102ccef4:	e12fff34 	blx	r4
102ccef8:	e1a00005 	mov	r0, r5
102ccefc:	e12fff34 	blx	r4
102ccf00:	e3a09000 	mov	r9, #0
102ccf04:	eafffff3 	b	102cced8 <Ql_RIL_FindLine+0x1a0>
102ccf08:	e1a01006 	mov	r1, r6
102ccf0c:	e1a0200b 	mov	r2, fp
102ccf10:	e59f3088 	ldr	r3, [pc, #136]	; 102ccfa0 <Ql_RIL_FindLine+0x268>
102ccf14:	e12fff33 	blx	r3
102ccf18:	e59f307c 	ldr	r3, [pc, #124]	; 102ccf9c <Ql_RIL_FindLine+0x264>
102ccf1c:	e1a0200a 	mov	r2, sl
102ccf20:	e5933000 	ldr	r3, [r3]
102ccf24:	e1a00005 	mov	r0, r5
102ccf28:	e59f1084 	ldr	r1, [pc, #132]	; 102ccfb4 <Ql_RIL_FindLine+0x27c>
102ccf2c:	e12fff33 	blx	r3
102ccf30:	e59d300c 	ldr	r3, [sp, #12]
102ccf34:	e59d2008 	ldr	r2, [sp, #8]
102ccf38:	e0627003 	rsb	r7, r2, r3
102ccf3c:	e3570003 	cmp	r7, #3
102ccf40:	0affff95 	beq	102ccd9c <Ql_RIL_FindLine+0x64>
102ccf44:	e59d3004 	ldr	r3, [sp, #4]
102ccf48:	e2477003 	sub	r7, r7, #3
102ccf4c:	e59f605c 	ldr	r6, [pc, #92]	; 102ccfb0 <Ql_RIL_FindLine+0x278>
102ccf50:	e0837007 	add	r7, r3, r7
102ccf54:	e1a09003 	mov	r9, r3
102ccf58:	ea000002 	b	102ccf68 <Ql_RIL_FindLine+0x230>
102ccf5c:	e2899001 	add	r9, r9, #1
102ccf60:	e1590007 	cmp	r9, r7
102ccf64:	0affff8c 	beq	102ccd9c <Ql_RIL_FindLine+0x64>
102ccf68:	e1a00009 	mov	r0, r9
102ccf6c:	e1a01005 	mov	r1, r5
102ccf70:	e1a02004 	mov	r2, r4
102ccf74:	e12fff36 	blx	r6
102ccf78:	e3500000 	cmp	r0, #0
102ccf7c:	1afffff6 	bne	102ccf5c <Ql_RIL_FindLine+0x224>
102ccf80:	e1a00005 	mov	r0, r5
102ccf84:	e59f200c 	ldr	r2, [pc, #12]	; 102ccf98 <Ql_RIL_FindLine+0x260>
102ccf88:	e12fff32 	blx	r2
102ccf8c:	eaffffd1 	b	102cced8 <Ql_RIL_FindLine+0x1a0>
102ccf90:	102cf648 	.word	0x102cf648
102ccf94:	102ce808 	.word	0x102ce808
102ccf98:	102ce880 	.word	0x102ce880
102ccf9c:	f03d5b00 	.word	0xf03d5b00
102ccfa0:	102cf798 	.word	0x102cf798
102ccfa4:	102d1a08 	.word	0x102d1a08
102ccfa8:	102d1a10 	.word	0x102d1a10
102ccfac:	102d1a18 	.word	0x102d1a18
102ccfb0:	102cf728 	.word	0x102cf728
102ccfb4:	102d1a00 	.word	0x102d1a00

102ccfb8 <Ql_GenHash>:
102ccfb8:	e3510000 	cmp	r1, #0
102ccfbc:	e52d4004 	push	{r4}		; (str r4, [sp, #-4]!)
102ccfc0:	0a00000e 	beq	102cd000 <Ql_GenHash+0x48>
102ccfc4:	e59f403c 	ldr	r4, [pc, #60]	; 102cd008 <Ql_GenHash+0x50>
102ccfc8:	e1a03000 	mov	r3, r0
102ccfcc:	e080c001 	add	ip, r0, r1
102ccfd0:	e3a00000 	mov	r0, #0
102ccfd4:	e4d31001 	ldrb	r1, [r3], #1
102ccfd8:	e0611181 	rsb	r1, r1, r1, lsl #3
102ccfdc:	e0201094 	mla	r0, r4, r0, r1
102ccfe0:	e153000c 	cmp	r3, ip
102ccfe4:	e1a02800 	lsl	r2, r0, #16
102ccfe8:	e1a02822 	lsr	r2, r2, #16
102ccfec:	e0010292 	mul	r1, r2, r2
102ccff0:	e0210000 	eor	r0, r1, r0
102ccff4:	1afffff6 	bne	102ccfd4 <Ql_GenHash+0x1c>
102ccff8:	e8bd0010 	ldmfd	sp!, {r4}
102ccffc:	e12fff1e 	bx	lr
102cd000:	e1a00001 	mov	r0, r1
102cd004:	eafffffb 	b	102ccff8 <Ql_GenHash+0x40>
102cd008:	00001597 	.word	0x00001597

102cd00c <Callback_UART_Hdlr>:
102cd00c:	e92d41f0 	push	{r4, r5, r6, r7, r8, lr}
102cd010:	e59f4070 	ldr	r4, [pc, #112]	; 102cd088 <Callback_UART_Hdlr+0x7c>
102cd014:	e24dd008 	sub	sp, sp, #8
102cd018:	e1a08000 	mov	r8, r0
102cd01c:	e1a07001 	mov	r7, r1
102cd020:	e1a06002 	mov	r6, r2
102cd024:	e1a05003 	mov	r5, r3
102cd028:	e3a01000 	mov	r1, #0
102cd02c:	e3a02c02 	mov	r2, #512	; 0x200
102cd030:	e1a00004 	mov	r0, r4
102cd034:	e59f3050 	ldr	r3, [pc, #80]	; 102cd08c <Callback_UART_Hdlr+0x80>
102cd038:	e12fff33 	blx	r3
102cd03c:	e59f004c 	ldr	r0, [pc, #76]	; 102cd090 <Callback_UART_Hdlr+0x84>
102cd040:	e1a02008 	mov	r2, r8
102cd044:	e59f1048 	ldr	r1, [pc, #72]	; 102cd094 <Callback_UART_Hdlr+0x88>
102cd048:	e1a03007 	mov	r3, r7
102cd04c:	e58d6000 	str	r6, [sp]
102cd050:	e58d5004 	str	r5, [sp, #4]
102cd054:	e590c000 	ldr	ip, [r0]
102cd058:	e1a00004 	mov	r0, r4
102cd05c:	e12fff3c 	blx	ip
102cd060:	e1a00004 	mov	r0, r4
102cd064:	e59f302c 	ldr	r3, [pc, #44]	; 102cd098 <Callback_UART_Hdlr+0x8c>
102cd068:	e12fff33 	blx	r3
102cd06c:	e1a01004 	mov	r1, r4
102cd070:	e59f3024 	ldr	r3, [pc, #36]	; 102cd09c <Callback_UART_Hdlr+0x90>
102cd074:	e1a02000 	mov	r2, r0
102cd078:	e3a0000a 	mov	r0, #10
102cd07c:	e12fff33 	blx	r3
102cd080:	e28dd008 	add	sp, sp, #8
102cd084:	e8bd81f0 	pop	{r4, r5, r6, r7, r8, pc}
102cd088:	f03d2128 	.word	0xf03d2128
102cd08c:	102cf798 	.word	0x102cf798
102cd090:	f03d5b00 	.word	0xf03d5b00
102cd094:	102d1a20 	.word	0x102d1a20
102cd098:	102cf648 	.word	0x102cf648
102cd09c:	102d0028 	.word	0x102d0028

102cd0a0 <HTTP_RcvData>:
102cd0a0:	e92d4ff0 	push	{r4, r5, r6, r7, r8, r9, sl, fp, lr}
102cd0a4:	e59f4228 	ldr	r4, [pc, #552]	; 102cd2d4 <HTTP_RcvData+0x234>
102cd0a8:	e24ddf43 	sub	sp, sp, #268	; 0x10c
102cd0ac:	e1a06001 	mov	r6, r1
102cd0b0:	e59fa220 	ldr	sl, [pc, #544]	; 102cd2d8 <HTTP_RcvData+0x238>
102cd0b4:	e58d0014 	str	r0, [sp, #20]
102cd0b8:	e3a01000 	mov	r1, #0
102cd0bc:	e3a02c02 	mov	r2, #512	; 0x200
102cd0c0:	e1a00004 	mov	r0, r4
102cd0c4:	e12fff3a 	blx	sl
102cd0c8:	e59f520c 	ldr	r5, [pc, #524]	; 102cd2dc <HTTP_RcvData+0x23c>
102cd0cc:	e5942200 	ldr	r2, [r4, #512]	; 0x200
102cd0d0:	e5953000 	ldr	r3, [r5]
102cd0d4:	e59f1204 	ldr	r1, [pc, #516]	; 102cd2e0 <HTTP_RcvData+0x240>
102cd0d8:	e0862002 	add	r2, r6, r2
102cd0dc:	e1a00004 	mov	r0, r4
102cd0e0:	e12fff33 	blx	r3
102cd0e4:	e59f81f8 	ldr	r8, [pc, #504]	; 102cd2e4 <HTTP_RcvData+0x244>
102cd0e8:	e1a00004 	mov	r0, r4
102cd0ec:	e12fff38 	blx	r8
102cd0f0:	e59f71f0 	ldr	r7, [pc, #496]	; 102cd2e8 <HTTP_RcvData+0x248>
102cd0f4:	e1a01004 	mov	r1, r4
102cd0f8:	e59fb1ec 	ldr	fp, [pc, #492]	; 102cd2ec <HTTP_RcvData+0x24c>
102cd0fc:	e28d90e0 	add	r9, sp, #224	; 0xe0
102cd100:	e1a02000 	mov	r2, r0
102cd104:	e3a0000a 	mov	r0, #10
102cd108:	e12fff37 	blx	r7
102cd10c:	e3a01000 	mov	r1, #0
102cd110:	e3a02c02 	mov	r2, #512	; 0x200
102cd114:	e1a00004 	mov	r0, r4
102cd118:	e12fff3a 	blx	sl
102cd11c:	e5953000 	ldr	r3, [r5]
102cd120:	e59f11c8 	ldr	r1, [pc, #456]	; 102cd2f0 <HTTP_RcvData+0x250>
102cd124:	e59d2014 	ldr	r2, [sp, #20]
102cd128:	e1a00004 	mov	r0, r4
102cd12c:	e12fff33 	blx	r3
102cd130:	e1a00004 	mov	r0, r4
102cd134:	e12fff38 	blx	r8
102cd138:	e1a01004 	mov	r1, r4
102cd13c:	e1a02000 	mov	r2, r0
102cd140:	e3a0000a 	mov	r0, #10
102cd144:	e12fff37 	blx	r7
102cd148:	e28d0068 	add	r0, sp, #104	; 0x68
102cd14c:	e58d0000 	str	r0, [sp]
102cd150:	e28d0090 	add	r0, sp, #144	; 0x90
102cd154:	e58d0004 	str	r0, [sp, #4]
102cd158:	e28d00b8 	add	r0, sp, #184	; 0xb8
102cd15c:	e58d0008 	str	r0, [sp, #8]
102cd160:	e58d900c 	str	r9, [sp, #12]
102cd164:	e59f1188 	ldr	r1, [pc, #392]	; 102cd2f4 <HTTP_RcvData+0x254>
102cd168:	e28d2018 	add	r2, sp, #24
102cd16c:	e28d3040 	add	r3, sp, #64	; 0x40
102cd170:	e59bc000 	ldr	ip, [fp]
102cd174:	e59d0014 	ldr	r0, [sp, #20]
102cd178:	e12fff3c 	blx	ip
102cd17c:	e59f1174 	ldr	r1, [pc, #372]	; 102cd2f8 <HTTP_RcvData+0x258>
102cd180:	e28d2018 	add	r2, sp, #24
102cd184:	e28d3040 	add	r3, sp, #64	; 0x40
102cd188:	e59bc000 	ldr	ip, [fp]
102cd18c:	e28d0090 	add	r0, sp, #144	; 0x90
102cd190:	e12fff3c 	blx	ip
102cd194:	e59f1160 	ldr	r1, [pc, #352]	; 102cd2fc <HTTP_RcvData+0x25c>
102cd198:	e28d2068 	add	r2, sp, #104	; 0x68
102cd19c:	e1a03009 	mov	r3, r9
102cd1a0:	e59bc000 	ldr	ip, [fp]
102cd1a4:	e28d00b8 	add	r0, sp, #184	; 0xb8
102cd1a8:	e12fff3c 	blx	ip
102cd1ac:	e28d0040 	add	r0, sp, #64	; 0x40
102cd1b0:	e595c000 	ldr	ip, [r5]
102cd1b4:	e1a03009 	mov	r3, r9
102cd1b8:	e59f1140 	ldr	r1, [pc, #320]	; 102cd300 <HTTP_RcvData+0x260>
102cd1bc:	e59f2140 	ldr	r2, [pc, #320]	; 102cd304 <HTTP_RcvData+0x264>
102cd1c0:	e58d0000 	str	r0, [sp]
102cd1c4:	e2840f81 	add	r0, r4, #516	; 0x204
102cd1c8:	e12fff3c 	blx	ip
102cd1cc:	e3a01000 	mov	r1, #0
102cd1d0:	e3a02c02 	mov	r2, #512	; 0x200
102cd1d4:	e1a00004 	mov	r0, r4
102cd1d8:	e12fff3a 	blx	sl
102cd1dc:	e5953000 	ldr	r3, [r5]
102cd1e0:	e59f1120 	ldr	r1, [pc, #288]	; 102cd308 <HTTP_RcvData+0x268>
102cd1e4:	e2842f81 	add	r2, r4, #516	; 0x204
102cd1e8:	e1a00004 	mov	r0, r4
102cd1ec:	e12fff33 	blx	r3
102cd1f0:	e1a00004 	mov	r0, r4
102cd1f4:	e12fff38 	blx	r8
102cd1f8:	e1a01004 	mov	r1, r4
102cd1fc:	e1a02000 	mov	r2, r0
102cd200:	e3a0000a 	mov	r0, #10
102cd204:	e12fff37 	blx	r7
102cd208:	e5943200 	ldr	r3, [r4, #512]	; 0x200
102cd20c:	e0862003 	add	r2, r6, r3
102cd210:	e3520b0a 	cmp	r2, #10240	; 0x2800
102cd214:	9a000027 	bls	102cd2b8 <HTTP_RcvData+0x218>
102cd218:	e3530b0a 	cmp	r3, #10240	; 0x2800
102cd21c:	3a000013 	bcc	102cd270 <HTTP_RcvData+0x1d0>
102cd220:	e3a01000 	mov	r1, #0
102cd224:	e3a02c02 	mov	r2, #512	; 0x200
102cd228:	e1a00004 	mov	r0, r4
102cd22c:	e12fff3a 	blx	sl
102cd230:	e59f10d4 	ldr	r1, [pc, #212]	; 102cd30c <HTTP_RcvData+0x26c>
102cd234:	e1a02006 	mov	r2, r6
102cd238:	e5953000 	ldr	r3, [r5]
102cd23c:	e1a00004 	mov	r0, r4
102cd240:	e12fff33 	blx	r3
102cd244:	e1a00004 	mov	r0, r4
102cd248:	e12fff38 	blx	r8
102cd24c:	e1a01004 	mov	r1, r4
102cd250:	e1a02000 	mov	r2, r0
102cd254:	e3a0000a 	mov	r0, #10
102cd258:	e12fff37 	blx	r7
102cd25c:	e5943200 	ldr	r3, [r4, #512]	; 0x200
102cd260:	e0866003 	add	r6, r6, r3
102cd264:	e5846200 	str	r6, [r4, #512]	; 0x200
102cd268:	e28ddf43 	add	sp, sp, #268	; 0x10c
102cd26c:	e8bd8ff0 	pop	{r4, r5, r6, r7, r8, r9, sl, fp, pc}
102cd270:	e59f0098 	ldr	r0, [pc, #152]	; 102cd310 <HTTP_RcvData+0x270>
102cd274:	e2639b0a 	rsb	r9, r3, #10240	; 0x2800
102cd278:	e59d1014 	ldr	r1, [sp, #20]
102cd27c:	e1a02009 	mov	r2, r9
102cd280:	e0800003 	add	r0, r0, r3
102cd284:	e59f3088 	ldr	r3, [pc, #136]	; 102cd314 <HTTP_RcvData+0x274>
102cd288:	e12fff33 	blx	r3
102cd28c:	e1a00004 	mov	r0, r4
102cd290:	e3a01000 	mov	r1, #0
102cd294:	e3a02c02 	mov	r2, #512	; 0x200
102cd298:	e12fff3a 	blx	sl
102cd29c:	e0692006 	rsb	r2, r9, r6
102cd2a0:	e59f1070 	ldr	r1, [pc, #112]	; 102cd318 <HTTP_RcvData+0x278>
102cd2a4:	e1a03006 	mov	r3, r6
102cd2a8:	e595c000 	ldr	ip, [r5]
102cd2ac:	e1a00004 	mov	r0, r4
102cd2b0:	e12fff3c 	blx	ip
102cd2b4:	eaffffe2 	b	102cd244 <HTTP_RcvData+0x1a4>
102cd2b8:	e59f0050 	ldr	r0, [pc, #80]	; 102cd310 <HTTP_RcvData+0x270>
102cd2bc:	e59d1014 	ldr	r1, [sp, #20]
102cd2c0:	e0800003 	add	r0, r0, r3
102cd2c4:	e1a02006 	mov	r2, r6
102cd2c8:	e59f3044 	ldr	r3, [pc, #68]	; 102cd314 <HTTP_RcvData+0x274>
102cd2cc:	e12fff33 	blx	r3
102cd2d0:	eaffffe1 	b	102cd25c <HTTP_RcvData+0x1bc>
102cd2d4:	f03d2128 	.word	0xf03d2128
102cd2d8:	102cf798 	.word	0x102cf798
102cd2dc:	f03d5b00 	.word	0xf03d5b00
102cd2e0:	102d1a58 	.word	0x102d1a58
102cd2e4:	102cf648 	.word	0x102cf648
102cd2e8:	102d0028 	.word	0x102d0028
102cd2ec:	f03d5b08 	.word	0xf03d5b08
102cd2f0:	102d1a84 	.word	0x102d1a84
102cd2f4:	102d1a90 	.word	0x102d1a90
102cd2f8:	102d1aa0 	.word	0x102d1aa0
102cd2fc:	102d1aac 	.word	0x102d1aac
102cd300:	102d1ab8 	.word	0x102d1ab8
102cd304:	102d0d34 	.word	0x102d0d34
102cd308:	102d1ac0 	.word	0x102d1ac0
102cd30c:	102d1b20 	.word	0x102d1b20
102cd310:	f03d32fc 	.word	0xf03d32fc
102cd314:	102cf820 	.word	0x102cf820
102cd318:	102d1ad8 	.word	0x102d1ad8

102cd31c <HTTP_Program>:
102cd31c:	e92d4ff0 	push	{r4, r5, r6, r7, r8, r9, sl, fp, lr}
102cd320:	e59f3318 	ldr	r3, [pc, #792]	; 102cd640 <HTTP_Program+0x324>
102cd324:	e24dd00c 	sub	sp, sp, #12
102cd328:	e58d1004 	str	r1, [sp, #4]
102cd32c:	e1a0a000 	mov	sl, r0
102cd330:	e12fff33 	blx	r3
102cd334:	e59f3308 	ldr	r3, [pc, #776]	; 102cd644 <HTTP_Program+0x328>
102cd338:	e59f4308 	ldr	r4, [pc, #776]	; 102cd648 <HTTP_Program+0x32c>
102cd33c:	e3a09000 	mov	r9, #0
102cd340:	e59f7304 	ldr	r7, [pc, #772]	; 102cd64c <HTTP_Program+0x330>
102cd344:	e59f8304 	ldr	r8, [pc, #772]	; 102cd650 <HTTP_Program+0x334>
102cd348:	e59f5304 	ldr	r5, [pc, #772]	; 102cd654 <HTTP_Program+0x338>
102cd34c:	e59f6304 	ldr	r6, [pc, #772]	; 102cd658 <HTTP_Program+0x33c>
102cd350:	e20000ff 	and	r0, r0, #255	; 0xff
102cd354:	e12fff33 	blx	r3
102cd358:	e1a01009 	mov	r1, r9
102cd35c:	e3a02c02 	mov	r2, #512	; 0x200
102cd360:	e1a0b000 	mov	fp, r0
102cd364:	e1a00004 	mov	r0, r4
102cd368:	e12fff38 	blx	r8
102cd36c:	e1a0200b 	mov	r2, fp
102cd370:	e5973000 	ldr	r3, [r7]
102cd374:	e59f12e0 	ldr	r1, [pc, #736]	; 102cd65c <HTTP_Program+0x340>
102cd378:	e1a00004 	mov	r0, r4
102cd37c:	e12fff33 	blx	r3
102cd380:	e1a00004 	mov	r0, r4
102cd384:	e12fff35 	blx	r5
102cd388:	e1a01004 	mov	r1, r4
102cd38c:	e1a02000 	mov	r2, r0
102cd390:	e3a0000a 	mov	r0, #10
102cd394:	e12fff36 	blx	r6
102cd398:	e59f22c0 	ldr	r2, [pc, #704]	; 102cd660 <HTTP_Program+0x344>
102cd39c:	e59fc2c0 	ldr	ip, [pc, #704]	; 102cd664 <HTTP_Program+0x348>
102cd3a0:	e1a03002 	mov	r3, r2
102cd3a4:	e59f12bc 	ldr	r1, [pc, #700]	; 102cd668 <HTTP_Program+0x34c>
102cd3a8:	e3a00001 	mov	r0, #1
102cd3ac:	e12fff3c 	blx	ip
102cd3b0:	e1a01009 	mov	r1, r9
102cd3b4:	e3a02c02 	mov	r2, #512	; 0x200
102cd3b8:	e1a0b000 	mov	fp, r0
102cd3bc:	e1a00004 	mov	r0, r4
102cd3c0:	e12fff38 	blx	r8
102cd3c4:	e1a0200b 	mov	r2, fp
102cd3c8:	e5973000 	ldr	r3, [r7]
102cd3cc:	e59f1298 	ldr	r1, [pc, #664]	; 102cd66c <HTTP_Program+0x350>
102cd3d0:	e1a00004 	mov	r0, r4
102cd3d4:	e12fff33 	blx	r3
102cd3d8:	e1a00004 	mov	r0, r4
102cd3dc:	e12fff35 	blx	r5
102cd3e0:	e1a01004 	mov	r1, r4
102cd3e4:	e1a02000 	mov	r2, r0
102cd3e8:	e3a0000a 	mov	r0, #10
102cd3ec:	e12fff36 	blx	r6
102cd3f0:	e59f3278 	ldr	r3, [pc, #632]	; 102cd670 <HTTP_Program+0x354>
102cd3f4:	e12fff33 	blx	r3
102cd3f8:	e1a01009 	mov	r1, r9
102cd3fc:	e3a02c02 	mov	r2, #512	; 0x200
102cd400:	e1a0b000 	mov	fp, r0
102cd404:	e1a00004 	mov	r0, r4
102cd408:	e12fff38 	blx	r8
102cd40c:	e59f1260 	ldr	r1, [pc, #608]	; 102cd674 <HTTP_Program+0x358>
102cd410:	e1a0200b 	mov	r2, fp
102cd414:	e5973000 	ldr	r3, [r7]
102cd418:	e1a00004 	mov	r0, r4
102cd41c:	e12fff33 	blx	r3
102cd420:	e1a00004 	mov	r0, r4
102cd424:	e12fff35 	blx	r5
102cd428:	e1a01004 	mov	r1, r4
102cd42c:	e1a02000 	mov	r2, r0
102cd430:	e3a0000a 	mov	r0, #10
102cd434:	e12fff36 	blx	r6
102cd438:	e15a0009 	cmp	sl, r9
102cd43c:	e5849200 	str	r9, [r4, #512]	; 0x200
102cd440:	0a000015 	beq	102cd49c <HTTP_Program+0x180>
102cd444:	e35a0001 	cmp	sl, #1
102cd448:	0a00003e 	beq	102cd548 <HTTP_Program+0x22c>
102cd44c:	e59f3224 	ldr	r3, [pc, #548]	; 102cd678 <HTTP_Program+0x35c>
102cd450:	e12fff33 	blx	r3
102cd454:	e3a01000 	mov	r1, #0
102cd458:	e3a02c02 	mov	r2, #512	; 0x200
102cd45c:	e1a04000 	mov	r4, r0
102cd460:	e59f01e0 	ldr	r0, [pc, #480]	; 102cd648 <HTTP_Program+0x32c>
102cd464:	e12fff38 	blx	r8
102cd468:	e1a02004 	mov	r2, r4
102cd46c:	e59f1208 	ldr	r1, [pc, #520]	; 102cd67c <HTTP_Program+0x360>
102cd470:	e5973000 	ldr	r3, [r7]
102cd474:	e59f01cc 	ldr	r0, [pc, #460]	; 102cd648 <HTTP_Program+0x32c>
102cd478:	e12fff33 	blx	r3
102cd47c:	e59f01c4 	ldr	r0, [pc, #452]	; 102cd648 <HTTP_Program+0x32c>
102cd480:	e12fff35 	blx	r5
102cd484:	e59f11bc 	ldr	r1, [pc, #444]	; 102cd648 <HTTP_Program+0x32c>
102cd488:	e1a02000 	mov	r2, r0
102cd48c:	e3a0000a 	mov	r0, #10
102cd490:	e12fff36 	blx	r6
102cd494:	e28dd00c 	add	sp, sp, #12
102cd498:	e8bd8ff0 	pop	{r4, r5, r6, r7, r8, r9, sl, fp, pc}
102cd49c:	e59d0004 	ldr	r0, [sp, #4]
102cd4a0:	e12fff35 	blx	r5
102cd4a4:	e59f31d4 	ldr	r3, [pc, #468]	; 102cd680 <HTTP_Program+0x364>
102cd4a8:	e1a01800 	lsl	r1, r0, #16
102cd4ac:	e1a01821 	lsr	r1, r1, #16
102cd4b0:	e59d0004 	ldr	r0, [sp, #4]
102cd4b4:	e12fff33 	blx	r3
102cd4b8:	e1a0100a 	mov	r1, sl
102cd4bc:	e3a02c02 	mov	r2, #512	; 0x200
102cd4c0:	e1a09000 	mov	r9, r0
102cd4c4:	e1a00004 	mov	r0, r4
102cd4c8:	e12fff38 	blx	r8
102cd4cc:	e1a02009 	mov	r2, r9
102cd4d0:	e5973000 	ldr	r3, [r7]
102cd4d4:	e59f11a8 	ldr	r1, [pc, #424]	; 102cd684 <HTTP_Program+0x368>
102cd4d8:	e1a00004 	mov	r0, r4
102cd4dc:	e12fff33 	blx	r3
102cd4e0:	e1a00004 	mov	r0, r4
102cd4e4:	e12fff35 	blx	r5
102cd4e8:	e1a01004 	mov	r1, r4
102cd4ec:	e1a02000 	mov	r2, r0
102cd4f0:	e3a0000a 	mov	r0, #10
102cd4f4:	e12fff36 	blx	r6
102cd4f8:	e59f3188 	ldr	r3, [pc, #392]	; 102cd688 <HTTP_Program+0x36c>
102cd4fc:	e3a00078 	mov	r0, #120	; 0x78
102cd500:	e12fff33 	blx	r3
102cd504:	e1a0100a 	mov	r1, sl
102cd508:	e3a02c02 	mov	r2, #512	; 0x200
102cd50c:	e1a09000 	mov	r9, r0
102cd510:	e1a00004 	mov	r0, r4
102cd514:	e12fff38 	blx	r8
102cd518:	e1a02009 	mov	r2, r9
102cd51c:	e59f1168 	ldr	r1, [pc, #360]	; 102cd68c <HTTP_Program+0x370>
102cd520:	e5973000 	ldr	r3, [r7]
102cd524:	e1a00004 	mov	r0, r4
102cd528:	e12fff33 	blx	r3
102cd52c:	e1a00004 	mov	r0, r4
102cd530:	e12fff35 	blx	r5
102cd534:	e1a01004 	mov	r1, r4
102cd538:	e1a02000 	mov	r2, r0
102cd53c:	e3a0000a 	mov	r0, #10
102cd540:	e12fff36 	blx	r6
102cd544:	eaffffc0 	b	102cd44c <HTTP_Program+0x130>
102cd548:	e59f0140 	ldr	r0, [pc, #320]	; 102cd690 <HTTP_Program+0x374>
102cd54c:	e12fff35 	blx	r5
102cd550:	e59f3128 	ldr	r3, [pc, #296]	; 102cd680 <HTTP_Program+0x364>
102cd554:	e1a01800 	lsl	r1, r0, #16
102cd558:	e1a01821 	lsr	r1, r1, #16
102cd55c:	e59f012c 	ldr	r0, [pc, #300]	; 102cd690 <HTTP_Program+0x374>
102cd560:	e12fff33 	blx	r3
102cd564:	e1a01009 	mov	r1, r9
102cd568:	e3a02c02 	mov	r2, #512	; 0x200
102cd56c:	e1a0a000 	mov	sl, r0
102cd570:	e1a00004 	mov	r0, r4
102cd574:	e12fff38 	blx	r8
102cd578:	e5973000 	ldr	r3, [r7]
102cd57c:	e1a0200a 	mov	r2, sl
102cd580:	e59f10fc 	ldr	r1, [pc, #252]	; 102cd684 <HTTP_Program+0x368>
102cd584:	e1a00004 	mov	r0, r4
102cd588:	e12fff33 	blx	r3
102cd58c:	e1a00004 	mov	r0, r4
102cd590:	e12fff35 	blx	r5
102cd594:	e1a01004 	mov	r1, r4
102cd598:	e1a02000 	mov	r2, r0
102cd59c:	e3a0000a 	mov	r0, #10
102cd5a0:	e12fff36 	blx	r6
102cd5a4:	e59d0004 	ldr	r0, [sp, #4]
102cd5a8:	e12fff35 	blx	r5
102cd5ac:	e59f30e0 	ldr	r3, [pc, #224]	; 102cd694 <HTTP_Program+0x378>
102cd5b0:	e1a01800 	lsl	r1, r0, #16
102cd5b4:	e1a01821 	lsr	r1, r1, #16
102cd5b8:	e59d0004 	ldr	r0, [sp, #4]
102cd5bc:	e12fff33 	blx	r3
102cd5c0:	e1a01009 	mov	r1, r9
102cd5c4:	e3a02c02 	mov	r2, #512	; 0x200
102cd5c8:	e1a0a000 	mov	sl, r0
102cd5cc:	e1a00004 	mov	r0, r4
102cd5d0:	e12fff38 	blx	r8
102cd5d4:	e5973000 	ldr	r3, [r7]
102cd5d8:	e1a0200a 	mov	r2, sl
102cd5dc:	e59f10b4 	ldr	r1, [pc, #180]	; 102cd698 <HTTP_Program+0x37c>
102cd5e0:	e1a00004 	mov	r0, r4
102cd5e4:	e12fff33 	blx	r3
102cd5e8:	e1a00004 	mov	r0, r4
102cd5ec:	e12fff35 	blx	r5
102cd5f0:	e1a01004 	mov	r1, r4
102cd5f4:	e1a02000 	mov	r2, r0
102cd5f8:	e3a0000a 	mov	r0, #10
102cd5fc:	e12fff36 	blx	r6
102cd600:	e59f3094 	ldr	r3, [pc, #148]	; 102cd69c <HTTP_Program+0x380>
102cd604:	e59f1094 	ldr	r1, [pc, #148]	; 102cd6a0 <HTTP_Program+0x384>
102cd608:	e3a00078 	mov	r0, #120	; 0x78
102cd60c:	e12fff33 	blx	r3
102cd610:	e1a01009 	mov	r1, r9
102cd614:	e3a02c02 	mov	r2, #512	; 0x200
102cd618:	e1a0a000 	mov	sl, r0
102cd61c:	e1a00004 	mov	r0, r4
102cd620:	e12fff38 	blx	r8
102cd624:	e59f1078 	ldr	r1, [pc, #120]	; 102cd6a4 <HTTP_Program+0x388>
102cd628:	e1a0200a 	mov	r2, sl
102cd62c:	e5943200 	ldr	r3, [r4, #512]	; 0x200
102cd630:	e597c000 	ldr	ip, [r7]
102cd634:	e1a00004 	mov	r0, r4
102cd638:	e12fff3c 	blx	ip
102cd63c:	eaffffba 	b	102cd52c <HTTP_Program+0x210>
102cd640:	102ce7a8 	.word	0x102ce7a8
102cd644:	102cb3e0 	.word	0x102cb3e0
102cd648:	f03d2128 	.word	0xf03d2128
102cd64c:	f03d5b00 	.word	0xf03d5b00
102cd650:	102cf798 	.word	0x102cf798
102cd654:	102cf648 	.word	0x102cf648
102cd658:	102d0028 	.word	0x102d0028
102cd65c:	102d1b50 	.word	0x102d1b50
102cd660:	102d1b84 	.word	0x102d1b84
102cd664:	102cb45c 	.word	0x102cb45c
102cd668:	102d1b78 	.word	0x102d1b78
102cd66c:	102d1b8c 	.word	0x102d1b8c
102cd670:	102cb864 	.word	0x102cb864
102cd674:	102d1bac 	.word	0x102d1bac
102cd678:	102cb914 	.word	0x102cb914
102cd67c:	102d1c8c 	.word	0x102d1c8c
102cd680:	102ca8c0 	.word	0x102ca8c0
102cd684:	102d1bd0 	.word	0x102d1bd0
102cd688:	102ca978 	.word	0x102ca978
102cd68c:	102d1bf8 	.word	0x102d1bf8
102cd690:	102d0d68 	.word	0x102d0d68
102cd694:	102caa10 	.word	0x102caa10
102cd698:	102d1c1c 	.word	0x102d1c1c
102cd69c:	102caac4 	.word	0x102caac4
102cd6a0:	102cd0a0 	.word	0x102cd0a0
102cd6a4:	102d1c54 	.word	0x102d1c54

102cd6a8 <Callback_AT_Command>:
102cd6a8:	e92d40f8 	push	{r3, r4, r5, r6, r7, lr}
102cd6ac:	e1a07002 	mov	r7, r2
102cd6b0:	e59f4074 	ldr	r4, [pc, #116]	; 102cd72c <Callback_AT_Command+0x84>
102cd6b4:	e59f2074 	ldr	r2, [pc, #116]	; 102cd730 <Callback_AT_Command+0x88>
102cd6b8:	e1a06000 	mov	r6, r0
102cd6bc:	e1a05001 	mov	r5, r1
102cd6c0:	e12fff34 	blx	r4
102cd6c4:	e3500000 	cmp	r0, #0
102cd6c8:	0a000001 	beq	102cd6d4 <Callback_AT_Command+0x2c>
102cd6cc:	e3a00000 	mov	r0, #0
102cd6d0:	e8bd80f8 	pop	{r3, r4, r5, r6, r7, pc}
102cd6d4:	e1a00006 	mov	r0, r6
102cd6d8:	e1a01005 	mov	r1, r5
102cd6dc:	e59f2050 	ldr	r2, [pc, #80]	; 102cd734 <Callback_AT_Command+0x8c>
102cd6e0:	e12fff34 	blx	r4
102cd6e4:	e3500000 	cmp	r0, #0
102cd6e8:	1a00000d 	bne	102cd724 <Callback_AT_Command+0x7c>
102cd6ec:	e1a00006 	mov	r0, r6
102cd6f0:	e1a01005 	mov	r1, r5
102cd6f4:	e59f203c 	ldr	r2, [pc, #60]	; 102cd738 <Callback_AT_Command+0x90>
102cd6f8:	e59f303c 	ldr	r3, [pc, #60]	; 102cd73c <Callback_AT_Command+0x94>
102cd6fc:	e12fff33 	blx	r3
102cd700:	e3500000 	cmp	r0, #0
102cd704:	1a000006 	bne	102cd724 <Callback_AT_Command+0x7c>
102cd708:	e1a00007 	mov	r0, r7
102cd70c:	e1a01006 	mov	r1, r6
102cd710:	e2452002 	sub	r2, r5, #2
102cd714:	e59f3024 	ldr	r3, [pc, #36]	; 102cd740 <Callback_AT_Command+0x98>
102cd718:	e12fff33 	blx	r3
102cd71c:	e3a00001 	mov	r0, #1
102cd720:	e8bd80f8 	pop	{r3, r4, r5, r6, r7, pc}
102cd724:	e3e00000 	mvn	r0, #0
102cd728:	e8bd80f8 	pop	{r3, r4, r5, r6, r7, pc}
102cd72c:	102ccd38 	.word	0x102ccd38
102cd730:	102d17a8 	.word	0x102d17a8
102cd734:	102d0fdc 	.word	0x102d0fdc
102cd738:	102d0fe4 	.word	0x102d0fe4
102cd73c:	102cccac 	.word	0x102cccac
102cd740:	102cf820 	.word	0x102cf820

102cd744 <Cells>:
102cd744:	e92d4ff0 	push	{r4, r5, r6, r7, r8, r9, sl, fp, lr}
102cd748:	e24dde66 	sub	sp, sp, #1632	; 0x660
102cd74c:	e24dd004 	sub	sp, sp, #4
102cd750:	e59f9614 	ldr	r9, [pc, #1556]	; 102cdd6c <Cells+0x628>
102cd754:	e59f0614 	ldr	r0, [pc, #1556]	; 102cdd70 <Cells+0x62c>
102cd758:	e12fff39 	blx	r9
102cd75c:	e3a04000 	mov	r4, #0
102cd760:	e59fc60c 	ldr	ip, [pc, #1548]	; 102cdd74 <Cells+0x630>
102cd764:	e28d3f9e 	add	r3, sp, #632	; 0x278
102cd768:	e59f2608 	ldr	r2, [pc, #1544]	; 102cdd78 <Cells+0x634>
102cd76c:	e58d4000 	str	r4, [sp]
102cd770:	e59f6604 	ldr	r6, [pc, #1540]	; 102cdd7c <Cells+0x638>
102cd774:	e59fa604 	ldr	sl, [pc, #1540]	; 102cdd80 <Cells+0x63c>
102cd778:	e59fb604 	ldr	fp, [pc, #1540]	; 102cdd84 <Cells+0x640>
102cd77c:	e1a01000 	mov	r1, r0
102cd780:	e59f05e8 	ldr	r0, [pc, #1512]	; 102cdd70 <Cells+0x62c>
102cd784:	e12fff3c 	blx	ip
102cd788:	e1a01004 	mov	r1, r4
102cd78c:	e3a02c02 	mov	r2, #512	; 0x200
102cd790:	e58d00f4 	str	r0, [sp, #244]	; 0xf4
102cd794:	e59f05ec 	ldr	r0, [pc, #1516]	; 102cdd88 <Cells+0x644>
102cd798:	e12fff3a 	blx	sl
102cd79c:	e59f15e8 	ldr	r1, [pc, #1512]	; 102cdd8c <Cells+0x648>
102cd7a0:	e28d2f9e 	add	r2, sp, #632	; 0x278
102cd7a4:	e5963000 	ldr	r3, [r6]
102cd7a8:	e59f05d8 	ldr	r0, [pc, #1496]	; 102cdd88 <Cells+0x644>
102cd7ac:	e12fff33 	blx	r3
102cd7b0:	e59f05d0 	ldr	r0, [pc, #1488]	; 102cdd88 <Cells+0x644>
102cd7b4:	e12fff39 	blx	r9
102cd7b8:	e59f15c8 	ldr	r1, [pc, #1480]	; 102cdd88 <Cells+0x644>
102cd7bc:	e1a02000 	mov	r2, r0
102cd7c0:	e3a0000a 	mov	r0, #10
102cd7c4:	e12fff3b 	blx	fp
102cd7c8:	e59d80f4 	ldr	r8, [sp, #244]	; 0xf4
102cd7cc:	e1580004 	cmp	r8, r4
102cd7d0:	1a000155 	bne	102cdd2c <Cells+0x5e8>
102cd7d4:	e28d4e16 	add	r4, sp, #352	; 0x160
102cd7d8:	e2848028 	add	r8, r4, #40	; 0x28
102cd7dc:	e58d8024 	str	r8, [sp, #36]	; 0x24
102cd7e0:	e284802c 	add	r8, r4, #44	; 0x2c
102cd7e4:	e58d8028 	str	r8, [sp, #40]	; 0x28
102cd7e8:	e2848034 	add	r8, r4, #52	; 0x34
102cd7ec:	e58d8030 	str	r8, [sp, #48]	; 0x30
102cd7f0:	e2848038 	add	r8, r4, #56	; 0x38
102cd7f4:	e58d8034 	str	r8, [sp, #52]	; 0x34
102cd7f8:	e284803c 	add	r8, r4, #60	; 0x3c
102cd7fc:	e58d8038 	str	r8, [sp, #56]	; 0x38
102cd800:	e2848044 	add	r8, r4, #68	; 0x44
102cd804:	e58d8040 	str	r8, [sp, #64]	; 0x40
102cd808:	e2848048 	add	r8, r4, #72	; 0x48
102cd80c:	e58d8044 	str	r8, [sp, #68]	; 0x44
102cd810:	e284804c 	add	r8, r4, #76	; 0x4c
102cd814:	e58d8048 	str	r8, [sp, #72]	; 0x48
102cd818:	e2848054 	add	r8, r4, #84	; 0x54
102cd81c:	e58d8050 	str	r8, [sp, #80]	; 0x50
102cd820:	e2848058 	add	r8, r4, #88	; 0x58
102cd824:	e58d8054 	str	r8, [sp, #84]	; 0x54
102cd828:	e284805c 	add	r8, r4, #92	; 0x5c
102cd82c:	e58d8058 	str	r8, [sp, #88]	; 0x58
102cd830:	e2848064 	add	r8, r4, #100	; 0x64
102cd834:	e58d8060 	str	r8, [sp, #96]	; 0x60
102cd838:	e2848068 	add	r8, r4, #104	; 0x68
102cd83c:	e58d8064 	str	r8, [sp, #100]	; 0x64
102cd840:	e284806c 	add	r8, r4, #108	; 0x6c
102cd844:	e58d8068 	str	r8, [sp, #104]	; 0x68
102cd848:	e2848074 	add	r8, r4, #116	; 0x74
102cd84c:	e58d8070 	str	r8, [sp, #112]	; 0x70
102cd850:	e2848078 	add	r8, r4, #120	; 0x78
102cd854:	e58d8074 	str	r8, [sp, #116]	; 0x74
102cd858:	e284807c 	add	r8, r4, #124	; 0x7c
102cd85c:	e58d8078 	str	r8, [sp, #120]	; 0x78
102cd860:	e2848084 	add	r8, r4, #132	; 0x84
102cd864:	e58d8080 	str	r8, [sp, #128]	; 0x80
102cd868:	e2848088 	add	r8, r4, #136	; 0x88
102cd86c:	e58d8084 	str	r8, [sp, #132]	; 0x84
102cd870:	e284808c 	add	r8, r4, #140	; 0x8c
102cd874:	e58d8088 	str	r8, [sp, #136]	; 0x88
102cd878:	e2848094 	add	r8, r4, #148	; 0x94
102cd87c:	e58d8090 	str	r8, [sp, #144]	; 0x90
102cd880:	e2848098 	add	r8, r4, #152	; 0x98
102cd884:	e58d8094 	str	r8, [sp, #148]	; 0x94
102cd888:	e284809c 	add	r8, r4, #156	; 0x9c
102cd88c:	e58d8098 	str	r8, [sp, #152]	; 0x98
102cd890:	e28480a4 	add	r8, r4, #164	; 0xa4
102cd894:	e58d80a0 	str	r8, [sp, #160]	; 0xa0
102cd898:	e28480a8 	add	r8, r4, #168	; 0xa8
102cd89c:	e58d80a4 	str	r8, [sp, #164]	; 0xa4
102cd8a0:	e28480ac 	add	r8, r4, #172	; 0xac
102cd8a4:	e58d80a8 	str	r8, [sp, #168]	; 0xa8
102cd8a8:	e28480b4 	add	r8, r4, #180	; 0xb4
102cd8ac:	e58d80b0 	str	r8, [sp, #176]	; 0xb0
102cd8b0:	e28480b8 	add	r8, r4, #184	; 0xb8
102cd8b4:	e58d80b4 	str	r8, [sp, #180]	; 0xb4
102cd8b8:	e28480bc 	add	r8, r4, #188	; 0xbc
102cd8bc:	e58d80b8 	str	r8, [sp, #184]	; 0xb8
102cd8c0:	e28480c4 	add	r8, r4, #196	; 0xc4
102cd8c4:	e58d80c0 	str	r8, [sp, #192]	; 0xc0
102cd8c8:	e28480c8 	add	r8, r4, #200	; 0xc8
102cd8cc:	e58d80c4 	str	r8, [sp, #196]	; 0xc4
102cd8d0:	e28480cc 	add	r8, r4, #204	; 0xcc
102cd8d4:	e58d80c8 	str	r8, [sp, #200]	; 0xc8
102cd8d8:	e28480d4 	add	r8, r4, #212	; 0xd4
102cd8dc:	e2843024 	add	r3, r4, #36	; 0x24
102cd8e0:	e58d80d0 	str	r8, [sp, #208]	; 0xd0
102cd8e4:	e28480d8 	add	r8, r4, #216	; 0xd8
102cd8e8:	e58d80d4 	str	r8, [sp, #212]	; 0xd4
102cd8ec:	e58d3020 	str	r3, [sp, #32]
102cd8f0:	e28d3e19 	add	r3, sp, #400	; 0x190
102cd8f4:	e58d302c 	str	r3, [sp, #44]	; 0x2c
102cd8f8:	e28d3e1a 	add	r3, sp, #416	; 0x1a0
102cd8fc:	e58d303c 	str	r3, [sp, #60]	; 0x3c
102cd900:	e28d3e1b 	add	r3, sp, #432	; 0x1b0
102cd904:	e58d304c 	str	r3, [sp, #76]	; 0x4c
102cd908:	e28d3d07 	add	r3, sp, #448	; 0x1c0
102cd90c:	e58d305c 	str	r3, [sp, #92]	; 0x5c
102cd910:	e28d3e1d 	add	r3, sp, #464	; 0x1d0
102cd914:	e58d306c 	str	r3, [sp, #108]	; 0x6c
102cd918:	e28d3e1e 	add	r3, sp, #480	; 0x1e0
102cd91c:	e58d307c 	str	r3, [sp, #124]	; 0x7c
102cd920:	e28d3e1f 	add	r3, sp, #496	; 0x1f0
102cd924:	e58d308c 	str	r3, [sp, #140]	; 0x8c
102cd928:	e28d3c02 	add	r3, sp, #512	; 0x200
102cd92c:	e58d309c 	str	r3, [sp, #156]	; 0x9c
102cd930:	e28d3e21 	add	r3, sp, #528	; 0x210
102cd934:	e58d30ac 	str	r3, [sp, #172]	; 0xac
102cd938:	e28d3e22 	add	r3, sp, #544	; 0x220
102cd93c:	e58d30bc 	str	r3, [sp, #188]	; 0xbc
102cd940:	e28d3e23 	add	r3, sp, #560	; 0x230
102cd944:	e28480dc 	add	r8, r4, #220	; 0xdc
102cd948:	e58d30cc 	str	r3, [sp, #204]	; 0xcc
102cd94c:	e28d3d09 	add	r3, sp, #576	; 0x240
102cd950:	e58d80d8 	str	r8, [sp, #216]	; 0xd8
102cd954:	e58d30dc 	str	r3, [sp, #220]	; 0xdc
102cd958:	e28480e4 	add	r8, r4, #228	; 0xe4
102cd95c:	e28d3e25 	add	r3, sp, #592	; 0x250
102cd960:	e2845008 	add	r5, r4, #8
102cd964:	e284e00c 	add	lr, r4, #12
102cd968:	e284201c 	add	r2, r4, #28
102cd96c:	e58d80e0 	str	r8, [sp, #224]	; 0xe0
102cd970:	e58d30ec 	str	r3, [sp, #236]	; 0xec
102cd974:	e28480e8 	add	r8, r4, #232	; 0xe8
102cd978:	e59f3410 	ldr	r3, [pc, #1040]	; 102cdd90 <Cells+0x64c>
102cd97c:	e98d4020 	stmib	sp, {r5, lr}
102cd980:	e2847004 	add	r7, r4, #4
102cd984:	e284c014 	add	ip, r4, #20
102cd988:	e2841018 	add	r1, r4, #24
102cd98c:	e58d80e4 	str	r8, [sp, #228]	; 0xe4
102cd990:	e58d2018 	str	r2, [sp, #24]
102cd994:	e28480ec 	add	r8, r4, #236	; 0xec
102cd998:	e28d0f9e 	add	r0, sp, #632	; 0x278
102cd99c:	e28dee17 	add	lr, sp, #368	; 0x170
102cd9a0:	e28d2d06 	add	r2, sp, #384	; 0x180
102cd9a4:	e58d80e8 	str	r8, [sp, #232]	; 0xe8
102cd9a8:	e58d7000 	str	r7, [sp]
102cd9ac:	e58d1014 	str	r1, [sp, #20]
102cd9b0:	e58d201c 	str	r2, [sp, #28]
102cd9b4:	e58de00c 	str	lr, [sp, #12]
102cd9b8:	e58dc010 	str	ip, [sp, #16]
102cd9bc:	e59f13d0 	ldr	r1, [pc, #976]	; 102cdd94 <Cells+0x650>
102cd9c0:	e593c000 	ldr	ip, [r3]
102cd9c4:	e1a02000 	mov	r2, r0
102cd9c8:	e1a03004 	mov	r3, r4
102cd9cc:	e12fff3c 	blx	ip
102cd9d0:	e59d30f4 	ldr	r3, [sp, #244]	; 0xf4
102cd9d4:	e28dcc01 	add	ip, sp, #256	; 0x100
102cd9d8:	e1a07004 	mov	r7, r4
102cd9dc:	e58d40fc 	str	r4, [sp, #252]	; 0xfc
102cd9e0:	e28d8f43 	add	r8, sp, #268	; 0x10c
102cd9e4:	e1a0500c 	mov	r5, ip
102cd9e8:	e1a04003 	mov	r4, r3
102cd9ec:	e5973020 	ldr	r3, [r7, #32]
102cd9f0:	e597e00c 	ldr	lr, [r7, #12]
102cd9f4:	e597c01c 	ldr	ip, [r7, #28]
102cd9f8:	e58d30f8 	str	r3, [sp, #248]	; 0xf8
102cd9fc:	e5973024 	ldr	r3, [r7, #36]	; 0x24
102cda00:	e5b71028 	ldr	r1, [r7, #40]!	; 0x28
102cda04:	e1c5c0b8 	strh	ip, [r5, #8]
102cda08:	e58d10f4 	str	r1, [sp, #244]	; 0xf4
102cda0c:	e59dc0f8 	ldr	ip, [sp, #248]	; 0xf8
102cda10:	e5c5e00c 	strb	lr, [r5, #12]
102cda14:	e1c5c0ba 	strh	ip, [r5, #10]
102cda18:	e508300c 	str	r3, [r8, #-12]
102cda1c:	e59d30f4 	ldr	r3, [sp, #244]	; 0xf4
102cda20:	e5083008 	str	r3, [r8, #-8]
102cda24:	e2844001 	add	r4, r4, #1
102cda28:	e3a01000 	mov	r1, #0
102cda2c:	e3a02c02 	mov	r2, #512	; 0x200
102cda30:	e59f0350 	ldr	r0, [pc, #848]	; 102cdd88 <Cells+0x644>
102cda34:	e12fff3a 	blx	sl
102cda38:	e596c000 	ldr	ip, [r6]
102cda3c:	e59f1354 	ldr	r1, [pc, #852]	; 102cdd98 <Cells+0x654>
102cda40:	e1a02004 	mov	r2, r4
102cda44:	e59f033c 	ldr	r0, [pc, #828]	; 102cdd88 <Cells+0x644>
102cda48:	e12fff3c 	blx	ip
102cda4c:	e59f0334 	ldr	r0, [pc, #820]	; 102cdd88 <Cells+0x644>
102cda50:	e12fff39 	blx	r9
102cda54:	e59f132c 	ldr	r1, [pc, #812]	; 102cdd88 <Cells+0x644>
102cda58:	e2888010 	add	r8, r8, #16
102cda5c:	e2855010 	add	r5, r5, #16
102cda60:	e1a02000 	mov	r2, r0
102cda64:	e3a0000a 	mov	r0, #10
102cda68:	e12fff3b 	blx	fp
102cda6c:	e3a01000 	mov	r1, #0
102cda70:	e3a02c02 	mov	r2, #512	; 0x200
102cda74:	e59f030c 	ldr	r0, [pc, #780]	; 102cdd88 <Cells+0x644>
102cda78:	e12fff3a 	blx	sl
102cda7c:	e596c000 	ldr	ip, [r6]
102cda80:	e15520d4 	ldrsb	r2, [r5, #-4]
102cda84:	e59f1310 	ldr	r1, [pc, #784]	; 102cdd9c <Cells+0x658>
102cda88:	e59f02f8 	ldr	r0, [pc, #760]	; 102cdd88 <Cells+0x644>
102cda8c:	e12fff3c 	blx	ip
102cda90:	e59f02f0 	ldr	r0, [pc, #752]	; 102cdd88 <Cells+0x644>
102cda94:	e12fff39 	blx	r9
102cda98:	e59f12e8 	ldr	r1, [pc, #744]	; 102cdd88 <Cells+0x644>
102cda9c:	e1a02000 	mov	r2, r0
102cdaa0:	e3a0000a 	mov	r0, #10
102cdaa4:	e12fff3b 	blx	fp
102cdaa8:	e3a01000 	mov	r1, #0
102cdaac:	e3a02c02 	mov	r2, #512	; 0x200
102cdab0:	e59f02d0 	ldr	r0, [pc, #720]	; 102cdd88 <Cells+0x644>
102cdab4:	e12fff3a 	blx	sl
102cdab8:	e596c000 	ldr	ip, [r6]
102cdabc:	e15520b8 	ldrh	r2, [r5, #-8]
102cdac0:	e59f12d8 	ldr	r1, [pc, #728]	; 102cdda0 <Cells+0x65c>
102cdac4:	e59f02bc 	ldr	r0, [pc, #700]	; 102cdd88 <Cells+0x644>
102cdac8:	e12fff3c 	blx	ip
102cdacc:	e59f02b4 	ldr	r0, [pc, #692]	; 102cdd88 <Cells+0x644>
102cdad0:	e12fff39 	blx	r9
102cdad4:	e59f12ac 	ldr	r1, [pc, #684]	; 102cdd88 <Cells+0x644>
102cdad8:	e1a02000 	mov	r2, r0
102cdadc:	e3a0000a 	mov	r0, #10
102cdae0:	e12fff3b 	blx	fp
102cdae4:	e3a01000 	mov	r1, #0
102cdae8:	e3a02c02 	mov	r2, #512	; 0x200
102cdaec:	e59f0294 	ldr	r0, [pc, #660]	; 102cdd88 <Cells+0x644>
102cdaf0:	e12fff3a 	blx	sl
102cdaf4:	e596c000 	ldr	ip, [r6]
102cdaf8:	e15520b6 	ldrh	r2, [r5, #-6]
102cdafc:	e59f12a0 	ldr	r1, [pc, #672]	; 102cdda4 <Cells+0x660>
102cdb00:	e59f0280 	ldr	r0, [pc, #640]	; 102cdd88 <Cells+0x644>
102cdb04:	e12fff3c 	blx	ip
102cdb08:	e59f0278 	ldr	r0, [pc, #632]	; 102cdd88 <Cells+0x644>
102cdb0c:	e12fff39 	blx	r9
102cdb10:	e59f1270 	ldr	r1, [pc, #624]	; 102cdd88 <Cells+0x644>
102cdb14:	e1a02000 	mov	r2, r0
102cdb18:	e3a0000a 	mov	r0, #10
102cdb1c:	e12fff3b 	blx	fp
102cdb20:	e3a01000 	mov	r1, #0
102cdb24:	e3a02c02 	mov	r2, #512	; 0x200
102cdb28:	e59f0258 	ldr	r0, [pc, #600]	; 102cdd88 <Cells+0x644>
102cdb2c:	e12fff3a 	blx	sl
102cdb30:	e596c000 	ldr	ip, [r6]
102cdb34:	e518201c 	ldr	r2, [r8, #-28]	; 0xffffffe4
102cdb38:	e59f1268 	ldr	r1, [pc, #616]	; 102cdda8 <Cells+0x664>
102cdb3c:	e59f0244 	ldr	r0, [pc, #580]	; 102cdd88 <Cells+0x644>
102cdb40:	e12fff3c 	blx	ip
102cdb44:	e59f023c 	ldr	r0, [pc, #572]	; 102cdd88 <Cells+0x644>
102cdb48:	e12fff39 	blx	r9
102cdb4c:	e59f1234 	ldr	r1, [pc, #564]	; 102cdd88 <Cells+0x644>
102cdb50:	e1a02000 	mov	r2, r0
102cdb54:	e3a0000a 	mov	r0, #10
102cdb58:	e12fff3b 	blx	fp
102cdb5c:	e3a01000 	mov	r1, #0
102cdb60:	e3a02c02 	mov	r2, #512	; 0x200
102cdb64:	e59f021c 	ldr	r0, [pc, #540]	; 102cdd88 <Cells+0x644>
102cdb68:	e12fff3a 	blx	sl
102cdb6c:	e59f1238 	ldr	r1, [pc, #568]	; 102cddac <Cells+0x668>
102cdb70:	e59d20f4 	ldr	r2, [sp, #244]	; 0xf4
102cdb74:	e5963000 	ldr	r3, [r6]
102cdb78:	e59f0208 	ldr	r0, [pc, #520]	; 102cdd88 <Cells+0x644>
102cdb7c:	e12fff33 	blx	r3
102cdb80:	e59f0200 	ldr	r0, [pc, #512]	; 102cdd88 <Cells+0x644>
102cdb84:	e12fff39 	blx	r9
102cdb88:	e59f11f8 	ldr	r1, [pc, #504]	; 102cdd88 <Cells+0x644>
102cdb8c:	e1a02000 	mov	r2, r0
102cdb90:	e3a0000a 	mov	r0, #10
102cdb94:	e12fff3b 	blx	fp
102cdb98:	e3540006 	cmp	r4, #6
102cdb9c:	1affff92 	bne	102cd9ec <Cells+0x2a8>
102cdba0:	e59d40fc 	ldr	r4, [sp, #252]	; 0xfc
102cdba4:	e59f2204 	ldr	r2, [pc, #516]	; 102cddb0 <Cells+0x66c>
102cdba8:	e28d8e66 	add	r8, sp, #1632	; 0x660
102cdbac:	e59f3200 	ldr	r3, [pc, #512]	; 102cddb4 <Cells+0x670>
102cdbb0:	e19890b2 	ldrh	r9, [r8, r2]
102cdbb4:	e282200e 	add	r2, r2, #14
102cdbb8:	e19830b3 	ldrh	r3, [r8, r3]
102cdbbc:	e28dce66 	add	ip, sp, #1632	; 0x660
102cdbc0:	e19880b2 	ldrh	r8, [r8, r2]
102cdbc4:	e2822002 	add	r2, r2, #2
102cdbc8:	e19c70b2 	ldrh	r7, [ip, r2]
102cdbcc:	e282200e 	add	r2, r2, #14
102cdbd0:	e19ce0b2 	ldrh	lr, [ip, r2]
102cdbd4:	e2822002 	add	r2, r2, #2
102cdbd8:	e19cc0b2 	ldrh	ip, [ip, r2]
102cdbdc:	e5dd212c 	ldrb	r2, [sp, #300]	; 0x12c
102cdbe0:	e5ddb10c 	ldrb	fp, [sp, #268]	; 0x10c
102cdbe4:	e5dd111c 	ldrb	r1, [sp, #284]	; 0x11c
102cdbe8:	e1a00c02 	lsl	r0, r2, #24
102cdbec:	e59f21c4 	ldr	r2, [pc, #452]	; 102cddb8 <Cells+0x674>
102cdbf0:	e1a0ac0b 	lsl	sl, fp, #24
102cdbf4:	e28dbe66 	add	fp, sp, #1632	; 0x660
102cdbf8:	e1a05c01 	lsl	r5, r1, #24
102cdbfc:	e19b10b2 	ldrh	r1, [fp, r2]
102cdc00:	e2822002 	add	r2, r2, #2
102cdc04:	e19b20b2 	ldrh	r2, [fp, r2]
102cdc08:	e58d9000 	str	r9, [sp]
102cdc0c:	e58d7014 	str	r7, [sp, #20]
102cdc10:	e59d9104 	ldr	r9, [sp, #260]	; 0x104
102cdc14:	e59d7114 	ldr	r7, [sp, #276]	; 0x114
102cdc18:	e58dc028 	str	ip, [sp, #40]	; 0x28
102cdc1c:	e59dc124 	ldr	ip, [sp, #292]	; 0x124
102cdc20:	e58d9004 	str	r9, [sp, #4]
102cdc24:	e58d7018 	str	r7, [sp, #24]
102cdc28:	e59d9100 	ldr	r9, [sp, #256]	; 0x100
102cdc2c:	e59d7110 	ldr	r7, [sp, #272]	; 0x110
102cdc30:	e58dc02c 	str	ip, [sp, #44]	; 0x2c
102cdc34:	e58d203c 	str	r2, [sp, #60]	; 0x3c
102cdc38:	e59dc120 	ldr	ip, [sp, #288]	; 0x120
102cdc3c:	e59d2134 	ldr	r2, [sp, #308]	; 0x134
102cdc40:	e1a0ac4a 	asr	sl, sl, #24
102cdc44:	e1a05c45 	asr	r5, r5, #24
102cdc48:	e1a00c40 	asr	r0, r0, #24
102cdc4c:	e58da00c 	str	sl, [sp, #12]
102cdc50:	e58d8010 	str	r8, [sp, #16]
102cdc54:	e58d701c 	str	r7, [sp, #28]
102cdc58:	e58d5020 	str	r5, [sp, #32]
102cdc5c:	e58de024 	str	lr, [sp, #36]	; 0x24
102cdc60:	e58dc030 	str	ip, [sp, #48]	; 0x30
102cdc64:	e58d0034 	str	r0, [sp, #52]	; 0x34
102cdc68:	e58d1038 	str	r1, [sp, #56]	; 0x38
102cdc6c:	e58d9008 	str	r9, [sp, #8]
102cdc70:	e58d2040 	str	r2, [sp, #64]	; 0x40
102cdc74:	e59f2140 	ldr	r2, [pc, #320]	; 102cddbc <Cells+0x678>
102cdc78:	e5ddc13c 	ldrb	ip, [sp, #316]	; 0x13c
102cdc7c:	e19b80b2 	ldrh	r8, [fp, r2]
102cdc80:	e2822002 	add	r2, r2, #2
102cdc84:	e19b70b2 	ldrh	r7, [fp, r2]
102cdc88:	e282200e 	add	r2, r2, #14
102cdc8c:	e19be0b2 	ldrh	lr, [fp, r2]
102cdc90:	e5dd114c 	ldrb	r1, [sp, #332]	; 0x14c
102cdc94:	e2822002 	add	r2, r2, #2
102cdc98:	e15400d4 	ldrsb	r0, [r4, #-4]
102cdc9c:	e1a0ac0c 	lsl	sl, ip, #24
102cdca0:	e59d4130 	ldr	r4, [sp, #304]	; 0x130
102cdca4:	e19bc0b2 	ldrh	ip, [fp, r2]
102cdca8:	e58dc064 	str	ip, [sp, #100]	; 0x64
102cdcac:	e58d4044 	str	r4, [sp, #68]	; 0x44
102cdcb0:	e59dc154 	ldr	ip, [sp, #340]	; 0x154
102cdcb4:	e59d4144 	ldr	r4, [sp, #324]	; 0x144
102cdcb8:	e1a05c01 	lsl	r5, r1, #24
102cdcbc:	e58d4054 	str	r4, [sp, #84]	; 0x54
102cdcc0:	e58dc068 	str	ip, [sp, #104]	; 0x68
102cdcc4:	e59d4140 	ldr	r4, [sp, #320]	; 0x140
102cdcc8:	e59dc150 	ldr	ip, [sp, #336]	; 0x150
102cdccc:	e1a0ac4a 	asr	sl, sl, #24
102cdcd0:	e1a05c45 	asr	r5, r5, #24
102cdcd4:	e59f20e4 	ldr	r2, [pc, #228]	; 102cddc0 <Cells+0x67c>
102cdcd8:	e58de060 	str	lr, [sp, #96]	; 0x60
102cdcdc:	e58dc06c 	str	ip, [sp, #108]	; 0x6c
102cdce0:	e58d0070 	str	r0, [sp, #112]	; 0x70
102cdce4:	e596c000 	ldr	ip, [r6]
102cdce8:	e59f10d4 	ldr	r1, [pc, #212]	; 102cddc4 <Cells+0x680>
102cdcec:	e58da048 	str	sl, [sp, #72]	; 0x48
102cdcf0:	e58d804c 	str	r8, [sp, #76]	; 0x4c
102cdcf4:	e58d7050 	str	r7, [sp, #80]	; 0x50
102cdcf8:	e58d4058 	str	r4, [sp, #88]	; 0x58
102cdcfc:	e58d505c 	str	r5, [sp, #92]	; 0x5c
102cdd00:	e28d0fe9 	add	r0, sp, #932	; 0x3a4
102cdd04:	e12fff3c 	blx	ip
102cdd08:	e28d1fe9 	add	r1, sp, #932	; 0x3a4
102cdd0c:	e3a00001 	mov	r0, #1
102cdd10:	ebfffd81 	bl	102cd31c <HTTP_Program>
102cdd14:	e3a00000 	mov	r0, #0
102cdd18:	e59f10a8 	ldr	r1, [pc, #168]	; 102cddc8 <Cells+0x684>
102cdd1c:	ebfffd7e 	bl	102cd31c <HTTP_Program>
102cdd20:	e28ddf99 	add	sp, sp, #612	; 0x264
102cdd24:	e28ddb01 	add	sp, sp, #1024	; 0x400
102cdd28:	e8bd8ff0 	pop	{r4, r5, r6, r7, r8, r9, sl, fp, pc}
102cdd2c:	e3a02c02 	mov	r2, #512	; 0x200
102cdd30:	e1a01004 	mov	r1, r4
102cdd34:	e59f004c 	ldr	r0, [pc, #76]	; 102cdd88 <Cells+0x644>
102cdd38:	e12fff3a 	blx	sl
102cdd3c:	e59f1088 	ldr	r1, [pc, #136]	; 102cddcc <Cells+0x688>
102cdd40:	e5963000 	ldr	r3, [r6]
102cdd44:	e59f003c 	ldr	r0, [pc, #60]	; 102cdd88 <Cells+0x644>
102cdd48:	e12fff33 	blx	r3
102cdd4c:	e59f0034 	ldr	r0, [pc, #52]	; 102cdd88 <Cells+0x644>
102cdd50:	e12fff39 	blx	r9
102cdd54:	e59f102c 	ldr	r1, [pc, #44]	; 102cdd88 <Cells+0x644>
102cdd58:	e28d4e16 	add	r4, sp, #352	; 0x160
102cdd5c:	e1a02000 	mov	r2, r0
102cdd60:	e3a0000a 	mov	r0, #10
102cdd64:	e12fff3b 	blx	fp
102cdd68:	eaffff8d 	b	102cdba4 <Cells+0x460>
102cdd6c:	102cf648 	.word	0x102cf648
102cdd70:	102d0d90 	.word	0x102d0d90
102cdd74:	102cf204 	.word	0x102cf204
102cdd78:	102cd6a8 	.word	0x102cd6a8
102cdd7c:	f03d5b00 	.word	0xf03d5b00
102cdd80:	102cf798 	.word	0x102cf798
102cdd84:	102d0028 	.word	0x102d0028
102cdd88:	f03d2128 	.word	0xf03d2128
102cdd8c:	102d1cb0 	.word	0x102d1cb0
102cdd90:	f03d5b08 	.word	0xf03d5b08
102cdd94:	102d1cc0 	.word	0x102d1cc0
102cdd98:	102d1d7c 	.word	0x102d1d7c
102cdd9c:	102d1d88 	.word	0x102d1d88
102cdda0:	102d1d94 	.word	0x102d1d94
102cdda4:	102d1da0 	.word	0x102d1da0
102cdda8:	102d1dac 	.word	0x102d1dac
102cddac:	102d1db8 	.word	0x102d1db8
102cddb0:	fffffaaa 	.word	0xfffffaaa
102cddb4:	fffffaa8 	.word	0xfffffaa8
102cddb8:	fffffad8 	.word	0xfffffad8
102cddbc:	fffffae8 	.word	0xfffffae8
102cddc0:	102d1df4 	.word	0x102d1df4
102cddc4:	102d0d9c 	.word	0x102d0d9c
102cddc8:	f03d232c 	.word	0xf03d232c
102cddcc:	102d1dc8 	.word	0x102d1dc8

102cddd0 <Timer_handler>:
102cddd0:	e5913000 	ldr	r3, [r1]
102cddd4:	e59f2068 	ldr	r2, [pc, #104]	; 102cde44 <Timer_handler+0x74>
102cddd8:	e2833001 	add	r3, r3, #1
102cdddc:	e1500002 	cmp	r0, r2
102cdde0:	e92d4010 	push	{r4, lr}
102cdde4:	e1a04001 	mov	r4, r1
102cdde8:	e5813000 	str	r3, [r1]
102cddec:	18bd8010 	popne	{r4, pc}
102cddf0:	e3a01000 	mov	r1, #0
102cddf4:	e3a02c02 	mov	r2, #512	; 0x200
102cddf8:	e59f3048 	ldr	r3, [pc, #72]	; 102cde48 <Timer_handler+0x78>
102cddfc:	e59f0048 	ldr	r0, [pc, #72]	; 102cde4c <Timer_handler+0x7c>
102cde00:	e12fff33 	blx	r3
102cde04:	e59f3044 	ldr	r3, [pc, #68]	; 102cde50 <Timer_handler+0x80>
102cde08:	e5942000 	ldr	r2, [r4]
102cde0c:	e59f1040 	ldr	r1, [pc, #64]	; 102cde54 <Timer_handler+0x84>
102cde10:	e5933000 	ldr	r3, [r3]
102cde14:	e59f0030 	ldr	r0, [pc, #48]	; 102cde4c <Timer_handler+0x7c>
102cde18:	e12fff33 	blx	r3
102cde1c:	e59f3034 	ldr	r3, [pc, #52]	; 102cde58 <Timer_handler+0x88>
102cde20:	e59f0024 	ldr	r0, [pc, #36]	; 102cde4c <Timer_handler+0x7c>
102cde24:	e12fff33 	blx	r3
102cde28:	e59f101c 	ldr	r1, [pc, #28]	; 102cde4c <Timer_handler+0x7c>
102cde2c:	e59f3028 	ldr	r3, [pc, #40]	; 102cde5c <Timer_handler+0x8c>
102cde30:	e1a02000 	mov	r2, r0
102cde34:	e3a0000a 	mov	r0, #10
102cde38:	e12fff33 	blx	r3
102cde3c:	e8bd4010 	pop	{r4, lr}
102cde40:	eafffe3f 	b	102cd744 <Cells>
102cde44:	00000102 	.word	0x00000102
102cde48:	102cf798 	.word	0x102cf798
102cde4c:	f03d2128 	.word	0xf03d2128
102cde50:	f03d5b00 	.word	0xf03d5b00
102cde54:	102d1e50 	.word	0x102d1e50
102cde58:	102cf648 	.word	0x102cf648
102cde5c:	102d0028 	.word	0x102d0028

102cde60 <proc_main_task>:
102cde60:	e92d4ff0 	push	{r4, r5, r6, r7, r8, r9, sl, fp, lr}
102cde64:	e59f14c8 	ldr	r1, [pc, #1224]	; 102ce334 <proc_main_task+0x4d4>
102cde68:	e24dd01c 	sub	sp, sp, #28
102cde6c:	e3a02000 	mov	r2, #0
102cde70:	e59f64c0 	ldr	r6, [pc, #1216]	; 102ce338 <proc_main_task+0x4d8>
102cde74:	e3a0000a 	mov	r0, #10
102cde78:	e12fff36 	blx	r6
102cde7c:	e59f54b8 	ldr	r5, [pc, #1208]	; 102ce33c <proc_main_task+0x4dc>
102cde80:	e59f14b8 	ldr	r1, [pc, #1208]	; 102ce340 <proc_main_task+0x4e0>
102cde84:	e3a02001 	mov	r2, #1
102cde88:	e3a0000a 	mov	r0, #10
102cde8c:	e12fff35 	blx	r5
102cde90:	e59f44ac 	ldr	r4, [pc, #1196]	; 102ce344 <proc_main_task+0x4e4>
102cde94:	e59f1498 	ldr	r1, [pc, #1176]	; 102ce334 <proc_main_task+0x4d4>
102cde98:	e3a02000 	mov	r2, #0
102cde9c:	e3a0000b 	mov	r0, #11
102cdea0:	e12fff36 	blx	r6
102cdea4:	e59f1494 	ldr	r1, [pc, #1172]	; 102ce340 <proc_main_task+0x4e0>
102cdea8:	e3a02001 	mov	r2, #1
102cdeac:	e3a0000b 	mov	r0, #11
102cdeb0:	e12fff35 	blx	r5
102cdeb4:	e59f048c 	ldr	r0, [pc, #1164]	; 102ce348 <proc_main_task+0x4e8>
102cdeb8:	e59f148c 	ldr	r1, [pc, #1164]	; 102ce34c <proc_main_task+0x4ec>
102cdebc:	e2842e33 	add	r2, r4, #816	; 0x330
102cdec0:	e59f3488 	ldr	r3, [pc, #1160]	; 102ce350 <proc_main_task+0x4f0>
102cdec4:	e12fff33 	blx	r3
102cdec8:	e250a000 	subs	sl, r0, #0
102cdecc:	ba000103 	blt	102ce2e0 <proc_main_task+0x480>
102cded0:	e59f847c 	ldr	r8, [pc, #1148]	; 102ce354 <proc_main_task+0x4f4>
102cded4:	e59f747c 	ldr	r7, [pc, #1148]	; 102ce358 <proc_main_task+0x4f8>
102cded8:	e59f647c 	ldr	r6, [pc, #1148]	; 102ce35c <proc_main_task+0x4fc>
102cdedc:	e59f547c 	ldr	r5, [pc, #1148]	; 102ce360 <proc_main_task+0x500>
102cdee0:	e3a01000 	mov	r1, #0
102cdee4:	e3a02c02 	mov	r2, #512	; 0x200
102cdee8:	e59f0454 	ldr	r0, [pc, #1108]	; 102ce344 <proc_main_task+0x4e4>
102cdeec:	e12fff38 	blx	r8
102cdef0:	e5943330 	ldr	r3, [r4, #816]	; 0x330
102cdef4:	e597c000 	ldr	ip, [r7]
102cdef8:	e59f1464 	ldr	r1, [pc, #1124]	; 102ce364 <proc_main_task+0x504>
102cdefc:	e59f2444 	ldr	r2, [pc, #1092]	; 102ce348 <proc_main_task+0x4e8>
102cdf00:	e58da000 	str	sl, [sp]
102cdf04:	e59f0438 	ldr	r0, [pc, #1080]	; 102ce344 <proc_main_task+0x4e4>
102cdf08:	e12fff3c 	blx	ip
102cdf0c:	e59f0430 	ldr	r0, [pc, #1072]	; 102ce344 <proc_main_task+0x4e4>
102cdf10:	e12fff36 	blx	r6
102cdf14:	e59f1428 	ldr	r1, [pc, #1064]	; 102ce344 <proc_main_task+0x4e4>
102cdf18:	e1a02000 	mov	r2, r0
102cdf1c:	e3a0000a 	mov	r0, #10
102cdf20:	e12fff35 	blx	r5
102cdf24:	e59f041c 	ldr	r0, [pc, #1052]	; 102ce348 <proc_main_task+0x4e8>
102cdf28:	e59f1438 	ldr	r1, [pc, #1080]	; 102ce368 <proc_main_task+0x508>
102cdf2c:	e3a02001 	mov	r2, #1
102cdf30:	e59f3434 	ldr	r3, [pc, #1076]	; 102ce36c <proc_main_task+0x50c>
102cdf34:	e12fff33 	blx	r3
102cdf38:	e2504000 	subs	r4, r0, #0
102cdf3c:	ba0000d3 	blt	102ce290 <proc_main_task+0x430>
102cdf40:	e3a01000 	mov	r1, #0
102cdf44:	e3a02c02 	mov	r2, #512	; 0x200
102cdf48:	e59f03f4 	ldr	r0, [pc, #1012]	; 102ce344 <proc_main_task+0x4e4>
102cdf4c:	e12fff38 	blx	r8
102cdf50:	e59f1418 	ldr	r1, [pc, #1048]	; 102ce370 <proc_main_task+0x510>
102cdf54:	e59f23ec 	ldr	r2, [pc, #1004]	; 102ce348 <proc_main_task+0x4e8>
102cdf58:	e59f3408 	ldr	r3, [pc, #1032]	; 102ce368 <proc_main_task+0x508>
102cdf5c:	e597c000 	ldr	ip, [r7]
102cdf60:	e58d4000 	str	r4, [sp]
102cdf64:	e59f03d8 	ldr	r0, [pc, #984]	; 102ce344 <proc_main_task+0x4e4>
102cdf68:	e12fff3c 	blx	ip
102cdf6c:	e59f03d0 	ldr	r0, [pc, #976]	; 102ce344 <proc_main_task+0x4e4>
102cdf70:	e12fff36 	blx	r6
102cdf74:	e59f13c8 	ldr	r1, [pc, #968]	; 102ce344 <proc_main_task+0x4e4>
102cdf78:	e59f43f4 	ldr	r4, [pc, #1012]	; 102ce374 <proc_main_task+0x514>
102cdf7c:	e59fa3f4 	ldr	sl, [pc, #1012]	; 102ce378 <proc_main_task+0x518>
102cdf80:	e59fb3cc 	ldr	fp, [pc, #972]	; 102ce354 <proc_main_task+0x4f4>
102cdf84:	e59f93cc 	ldr	r9, [pc, #972]	; 102ce358 <proc_main_task+0x4f8>
102cdf88:	e1a02000 	mov	r2, r0
102cdf8c:	e3a0000a 	mov	r0, #10
102cdf90:	e12fff35 	blx	r5
102cdf94:	e28d0008 	add	r0, sp, #8
102cdf98:	e12fff34 	blx	r4
102cdf9c:	e59d3008 	ldr	r3, [sp, #8]
102cdfa0:	e59f23d4 	ldr	r2, [pc, #980]	; 102ce37c <proc_main_task+0x51c>
102cdfa4:	e1530002 	cmp	r3, r2
102cdfa8:	0a0000a7 	beq	102ce24c <proc_main_task+0x3ec>
102cdfac:	e2822001 	add	r2, r2, #1
102cdfb0:	e1530002 	cmp	r3, r2
102cdfb4:	1afffff6 	bne	102cdf94 <proc_main_task+0x134>
102cdfb8:	e59d300c 	ldr	r3, [sp, #12]
102cdfbc:	e2433001 	sub	r3, r3, #1
102cdfc0:	e3530004 	cmp	r3, #4
102cdfc4:	979ff103 	ldrls	pc, [pc, r3, lsl #2]
102cdfc8:	eafffff1 	b	102cdf94 <proc_main_task+0x134>
102cdfcc:	102ce128 	.word	0x102ce128
102cdfd0:	102ce0e4 	.word	0x102ce0e4
102cdfd4:	102ce0b0 	.word	0x102ce0b0
102cdfd8:	102ce020 	.word	0x102ce020
102cdfdc:	102cdfe0 	.word	0x102cdfe0
102cdfe0:	e3a01000 	mov	r1, #0
102cdfe4:	e3a02c02 	mov	r2, #512	; 0x200
102cdfe8:	e59f0354 	ldr	r0, [pc, #852]	; 102ce344 <proc_main_task+0x4e4>
102cdfec:	e12fff38 	blx	r8
102cdff0:	e59d2010 	ldr	r2, [sp, #16]
102cdff4:	e59f1384 	ldr	r1, [pc, #900]	; 102ce380 <proc_main_task+0x520>
102cdff8:	e5973000 	ldr	r3, [r7]
102cdffc:	e59f0340 	ldr	r0, [pc, #832]	; 102ce344 <proc_main_task+0x4e4>
102ce000:	e12fff33 	blx	r3
102ce004:	e59f0338 	ldr	r0, [pc, #824]	; 102ce344 <proc_main_task+0x4e4>
102ce008:	e12fff36 	blx	r6
102ce00c:	e59f1330 	ldr	r1, [pc, #816]	; 102ce344 <proc_main_task+0x4e4>
102ce010:	e1a02000 	mov	r2, r0
102ce014:	e3a0000a 	mov	r0, #10
102ce018:	e12fff35 	blx	r5
102ce01c:	eaffffdc 	b	102cdf94 <proc_main_task+0x134>
102ce020:	e3a01000 	mov	r1, #0
102ce024:	e3a02c02 	mov	r2, #512	; 0x200
102ce028:	e59f0314 	ldr	r0, [pc, #788]	; 102ce344 <proc_main_task+0x4e4>
102ce02c:	e12fff38 	blx	r8
102ce030:	e5973000 	ldr	r3, [r7]
102ce034:	e59f1348 	ldr	r1, [pc, #840]	; 102ce384 <proc_main_task+0x524>
102ce038:	e59d2010 	ldr	r2, [sp, #16]
102ce03c:	e59f0300 	ldr	r0, [pc, #768]	; 102ce344 <proc_main_task+0x4e4>
102ce040:	e12fff33 	blx	r3
102ce044:	e59f02f8 	ldr	r0, [pc, #760]	; 102ce344 <proc_main_task+0x4e4>
102ce048:	e12fff36 	blx	r6
102ce04c:	e59f12f0 	ldr	r1, [pc, #752]	; 102ce344 <proc_main_task+0x4e4>
102ce050:	e1a02000 	mov	r2, r0
102ce054:	e3a0000a 	mov	r0, #10
102ce058:	e12fff35 	blx	r5
102ce05c:	e59d3010 	ldr	r3, [sp, #16]
102ce060:	e3c33004 	bic	r3, r3, #4
102ce064:	e3530001 	cmp	r3, #1
102ce068:	1affffc9 	bne	102cdf94 <proc_main_task+0x134>
102ce06c:	e3a02c02 	mov	r2, #512	; 0x200
102ce070:	e3a01000 	mov	r1, #0
102ce074:	e59f02c8 	ldr	r0, [pc, #712]	; 102ce344 <proc_main_task+0x4e4>
102ce078:	e12fff3b 	blx	fp
102ce07c:	e59f1304 	ldr	r1, [pc, #772]	; 102ce388 <proc_main_task+0x528>
102ce080:	e5993000 	ldr	r3, [r9]
102ce084:	e59f02b8 	ldr	r0, [pc, #696]	; 102ce344 <proc_main_task+0x4e4>
102ce088:	e12fff33 	blx	r3
102ce08c:	e59f32c8 	ldr	r3, [pc, #712]	; 102ce35c <proc_main_task+0x4fc>
102ce090:	e59f02ac 	ldr	r0, [pc, #684]	; 102ce344 <proc_main_task+0x4e4>
102ce094:	e12fff33 	blx	r3
102ce098:	e59f12a4 	ldr	r1, [pc, #676]	; 102ce344 <proc_main_task+0x4e4>
102ce09c:	e59f32bc 	ldr	r3, [pc, #700]	; 102ce360 <proc_main_task+0x500>
102ce0a0:	e1a02000 	mov	r2, r0
102ce0a4:	e3a0000a 	mov	r0, #10
102ce0a8:	e12fff33 	blx	r3
102ce0ac:	eaffffb8 	b	102cdf94 <proc_main_task+0x134>
102ce0b0:	e59d3010 	ldr	r3, [sp, #16]
102ce0b4:	e3c33004 	bic	r3, r3, #4
102ce0b8:	e3530001 	cmp	r3, #1
102ce0bc:	1a00006c 	bne	102ce274 <proc_main_task+0x414>
102ce0c0:	e3a02c02 	mov	r2, #512	; 0x200
102ce0c4:	e3a01000 	mov	r1, #0
102ce0c8:	e59f0274 	ldr	r0, [pc, #628]	; 102ce344 <proc_main_task+0x4e4>
102ce0cc:	e12fff38 	blx	r8
102ce0d0:	e59f12b4 	ldr	r1, [pc, #692]	; 102ce38c <proc_main_task+0x52c>
102ce0d4:	e5973000 	ldr	r3, [r7]
102ce0d8:	e59f0264 	ldr	r0, [pc, #612]	; 102ce344 <proc_main_task+0x4e4>
102ce0dc:	e12fff33 	blx	r3
102ce0e0:	eaffffc7 	b	102ce004 <proc_main_task+0x1a4>
102ce0e4:	e59d3010 	ldr	r3, [sp, #16]
102ce0e8:	e3a02c02 	mov	r2, #512	; 0x200
102ce0ec:	e3a01000 	mov	r1, #0
102ce0f0:	e59f024c 	ldr	r0, [pc, #588]	; 102ce344 <proc_main_task+0x4e4>
102ce0f4:	e3530009 	cmp	r3, #9
102ce0f8:	979ff103 	ldrls	pc, [pc, r3, lsl #2]
102ce0fc:	ea00004c 	b	102ce234 <proc_main_task+0x3d4>
102ce100:	102ce21c 	.word	0x102ce21c
102ce104:	102ce204 	.word	0x102ce204
102ce108:	102ce1ec 	.word	0x102ce1ec
102ce10c:	102ce1d4 	.word	0x102ce1d4
102ce110:	102ce1bc 	.word	0x102ce1bc
102ce114:	102ce1a4 	.word	0x102ce1a4
102ce118:	102ce18c 	.word	0x102ce18c
102ce11c:	102ce174 	.word	0x102ce174
102ce120:	102ce15c 	.word	0x102ce15c
102ce124:	102ce144 	.word	0x102ce144
102ce128:	e3a01000 	mov	r1, #0
102ce12c:	e3a02c02 	mov	r2, #512	; 0x200
102ce130:	e59f020c 	ldr	r0, [pc, #524]	; 102ce344 <proc_main_task+0x4e4>
102ce134:	e12fff38 	blx	r8
102ce138:	e59d2010 	ldr	r2, [sp, #16]
102ce13c:	e59f124c 	ldr	r1, [pc, #588]	; 102ce390 <proc_main_task+0x530>
102ce140:	eaffffac 	b	102cdff8 <proc_main_task+0x198>
102ce144:	e12fff38 	blx	r8
102ce148:	e59f1244 	ldr	r1, [pc, #580]	; 102ce394 <proc_main_task+0x534>
102ce14c:	e5973000 	ldr	r3, [r7]
102ce150:	e59f01ec 	ldr	r0, [pc, #492]	; 102ce344 <proc_main_task+0x4e4>
102ce154:	e12fff33 	blx	r3
102ce158:	eaffffa9 	b	102ce004 <proc_main_task+0x1a4>
102ce15c:	e12fff38 	blx	r8
102ce160:	e59f1230 	ldr	r1, [pc, #560]	; 102ce398 <proc_main_task+0x538>
102ce164:	e5973000 	ldr	r3, [r7]
102ce168:	e59f01d4 	ldr	r0, [pc, #468]	; 102ce344 <proc_main_task+0x4e4>
102ce16c:	e12fff33 	blx	r3
102ce170:	eaffffa3 	b	102ce004 <proc_main_task+0x1a4>
102ce174:	e12fff38 	blx	r8
102ce178:	e59f121c 	ldr	r1, [pc, #540]	; 102ce39c <proc_main_task+0x53c>
102ce17c:	e5973000 	ldr	r3, [r7]
102ce180:	e59f01bc 	ldr	r0, [pc, #444]	; 102ce344 <proc_main_task+0x4e4>
102ce184:	e12fff33 	blx	r3
102ce188:	eaffff9d 	b	102ce004 <proc_main_task+0x1a4>
102ce18c:	e12fff38 	blx	r8
102ce190:	e59f1208 	ldr	r1, [pc, #520]	; 102ce3a0 <proc_main_task+0x540>
102ce194:	e5973000 	ldr	r3, [r7]
102ce198:	e59f01a4 	ldr	r0, [pc, #420]	; 102ce344 <proc_main_task+0x4e4>
102ce19c:	e12fff33 	blx	r3
102ce1a0:	eaffff97 	b	102ce004 <proc_main_task+0x1a4>
102ce1a4:	e12fff38 	blx	r8
102ce1a8:	e59f11f4 	ldr	r1, [pc, #500]	; 102ce3a4 <proc_main_task+0x544>
102ce1ac:	e5973000 	ldr	r3, [r7]
102ce1b0:	e59f018c 	ldr	r0, [pc, #396]	; 102ce344 <proc_main_task+0x4e4>
102ce1b4:	e12fff33 	blx	r3
102ce1b8:	eaffff91 	b	102ce004 <proc_main_task+0x1a4>
102ce1bc:	e12fff38 	blx	r8
102ce1c0:	e59f11e0 	ldr	r1, [pc, #480]	; 102ce3a8 <proc_main_task+0x548>
102ce1c4:	e5973000 	ldr	r3, [r7]
102ce1c8:	e59f0174 	ldr	r0, [pc, #372]	; 102ce344 <proc_main_task+0x4e4>
102ce1cc:	e12fff33 	blx	r3
102ce1d0:	eaffff8b 	b	102ce004 <proc_main_task+0x1a4>
102ce1d4:	e12fff38 	blx	r8
102ce1d8:	e59f11cc 	ldr	r1, [pc, #460]	; 102ce3ac <proc_main_task+0x54c>
102ce1dc:	e5973000 	ldr	r3, [r7]
102ce1e0:	e59f015c 	ldr	r0, [pc, #348]	; 102ce344 <proc_main_task+0x4e4>
102ce1e4:	e12fff33 	blx	r3
102ce1e8:	eaffff85 	b	102ce004 <proc_main_task+0x1a4>
102ce1ec:	e12fff38 	blx	r8
102ce1f0:	e59f11b8 	ldr	r1, [pc, #440]	; 102ce3b0 <proc_main_task+0x550>
102ce1f4:	e5973000 	ldr	r3, [r7]
102ce1f8:	e59f0144 	ldr	r0, [pc, #324]	; 102ce344 <proc_main_task+0x4e4>
102ce1fc:	e12fff33 	blx	r3
102ce200:	eaffff7f 	b	102ce004 <proc_main_task+0x1a4>
102ce204:	e12fff38 	blx	r8
102ce208:	e59f11a4 	ldr	r1, [pc, #420]	; 102ce3b4 <proc_main_task+0x554>
102ce20c:	e5973000 	ldr	r3, [r7]
102ce210:	e59f012c 	ldr	r0, [pc, #300]	; 102ce344 <proc_main_task+0x4e4>
102ce214:	e12fff33 	blx	r3
102ce218:	eaffff79 	b	102ce004 <proc_main_task+0x1a4>
102ce21c:	e12fff38 	blx	r8
102ce220:	e59f1190 	ldr	r1, [pc, #400]	; 102ce3b8 <proc_main_task+0x558>
102ce224:	e5973000 	ldr	r3, [r7]
102ce228:	e59f0114 	ldr	r0, [pc, #276]	; 102ce344 <proc_main_task+0x4e4>
102ce22c:	e12fff33 	blx	r3
102ce230:	eaffff73 	b	102ce004 <proc_main_task+0x1a4>
102ce234:	e12fff38 	blx	r8
102ce238:	e59f117c 	ldr	r1, [pc, #380]	; 102ce3bc <proc_main_task+0x55c>
102ce23c:	e5973000 	ldr	r3, [r7]
102ce240:	e59f00fc 	ldr	r0, [pc, #252]	; 102ce344 <proc_main_task+0x4e4>
102ce244:	e12fff33 	blx	r3
102ce248:	eaffff6d 	b	102ce004 <proc_main_task+0x1a4>
102ce24c:	e12fff3a 	blx	sl
102ce250:	e3a02c02 	mov	r2, #512	; 0x200
102ce254:	e3a01000 	mov	r1, #0
102ce258:	e59f00e4 	ldr	r0, [pc, #228]	; 102ce344 <proc_main_task+0x4e4>
102ce25c:	e12fff38 	blx	r8
102ce260:	e59f1158 	ldr	r1, [pc, #344]	; 102ce3c0 <proc_main_task+0x560>
102ce264:	e5973000 	ldr	r3, [r7]
102ce268:	e59f00d4 	ldr	r0, [pc, #212]	; 102ce344 <proc_main_task+0x4e4>
102ce26c:	e12fff33 	blx	r3
102ce270:	eaffff63 	b	102ce004 <proc_main_task+0x1a4>
102ce274:	e3a01000 	mov	r1, #0
102ce278:	e3a02c02 	mov	r2, #512	; 0x200
102ce27c:	e59f00c0 	ldr	r0, [pc, #192]	; 102ce344 <proc_main_task+0x4e4>
102ce280:	e12fff38 	blx	r8
102ce284:	e59d2010 	ldr	r2, [sp, #16]
102ce288:	e59f1134 	ldr	r1, [pc, #308]	; 102ce3c4 <proc_main_task+0x564>
102ce28c:	eaffff59 	b	102cdff8 <proc_main_task+0x198>
102ce290:	e3a01000 	mov	r1, #0
102ce294:	e3a02c02 	mov	r2, #512	; 0x200
102ce298:	e59f30b4 	ldr	r3, [pc, #180]	; 102ce354 <proc_main_task+0x4f4>
102ce29c:	e59f00a0 	ldr	r0, [pc, #160]	; 102ce344 <proc_main_task+0x4e4>
102ce2a0:	e12fff33 	blx	r3
102ce2a4:	e59f30ac 	ldr	r3, [pc, #172]	; 102ce358 <proc_main_task+0x4f8>
102ce2a8:	e1a02004 	mov	r2, r4
102ce2ac:	e59f1114 	ldr	r1, [pc, #276]	; 102ce3c8 <proc_main_task+0x568>
102ce2b0:	e5933000 	ldr	r3, [r3]
102ce2b4:	e59f0088 	ldr	r0, [pc, #136]	; 102ce344 <proc_main_task+0x4e4>
102ce2b8:	e12fff33 	blx	r3
102ce2bc:	e59f3098 	ldr	r3, [pc, #152]	; 102ce35c <proc_main_task+0x4fc>
102ce2c0:	e59f007c 	ldr	r0, [pc, #124]	; 102ce344 <proc_main_task+0x4e4>
102ce2c4:	e12fff33 	blx	r3
102ce2c8:	e59f1074 	ldr	r1, [pc, #116]	; 102ce344 <proc_main_task+0x4e4>
102ce2cc:	e59f308c 	ldr	r3, [pc, #140]	; 102ce360 <proc_main_task+0x500>
102ce2d0:	e1a02000 	mov	r2, r0
102ce2d4:	e3a0000a 	mov	r0, #10
102ce2d8:	e12fff33 	blx	r3
102ce2dc:	eaffff17 	b	102cdf40 <proc_main_task+0xe0>
102ce2e0:	e59f7070 	ldr	r7, [pc, #112]	; 102ce358 <proc_main_task+0x4f8>
102ce2e4:	e3a01000 	mov	r1, #0
102ce2e8:	e3a02c02 	mov	r2, #512	; 0x200
102ce2ec:	e1a00004 	mov	r0, r4
102ce2f0:	e59f805c 	ldr	r8, [pc, #92]	; 102ce354 <proc_main_task+0x4f4>
102ce2f4:	e12fff38 	blx	r8
102ce2f8:	e59f10cc 	ldr	r1, [pc, #204]	; 102ce3cc <proc_main_task+0x56c>
102ce2fc:	e59f2044 	ldr	r2, [pc, #68]	; 102ce348 <proc_main_task+0x4e8>
102ce300:	e1a0300a 	mov	r3, sl
102ce304:	e597c000 	ldr	ip, [r7]
102ce308:	e1a00004 	mov	r0, r4
102ce30c:	e12fff3c 	blx	ip
102ce310:	e59f6044 	ldr	r6, [pc, #68]	; 102ce35c <proc_main_task+0x4fc>
102ce314:	e1a00004 	mov	r0, r4
102ce318:	e12fff36 	blx	r6
102ce31c:	e59f503c 	ldr	r5, [pc, #60]	; 102ce360 <proc_main_task+0x500>
102ce320:	e1a01004 	mov	r1, r4
102ce324:	e1a02000 	mov	r2, r0
102ce328:	e3a0000a 	mov	r0, #10
102ce32c:	e12fff35 	blx	r5
102ce330:	eafffeea 	b	102cdee0 <proc_main_task+0x80>
102ce334:	102cd00c 	.word	0x102cd00c
102ce338:	102cff48 	.word	0x102cff48
102ce33c:	102cffb8 	.word	0x102cffb8
102ce340:	0001c200 	.word	0x0001c200
102ce344:	f03d2128 	.word	0xf03d2128
102ce348:	00000102 	.word	0x00000102
102ce34c:	102cddd0 	.word	0x102cddd0
102ce350:	102cfe08 	.word	0x102cfe08
102ce354:	102cf798 	.word	0x102cf798
102ce358:	f03d5b00 	.word	0xf03d5b00
102ce35c:	102cf648 	.word	0x102cf648
102ce360:	102d0028 	.word	0x102d0028
102ce364:	102d1ebc 	.word	0x102d1ebc
102ce368:	00007530 	.word	0x00007530
102ce36c:	102cfe78 	.word	0x102cfe78
102ce370:	102d1f2c 	.word	0x102d1f2c
102ce374:	102cfb10 	.word	0x102cfb10
102ce378:	102cf130 	.word	0x102cf130
102ce37c:	00001001 	.word	0x00001001
102ce380:	102d1fa4 	.word	0x102d1fa4
102ce384:	102d21a8 	.word	0x102d21a8
102ce388:	102d21cc 	.word	0x102d21cc
102ce38c:	102d2158 	.word	0x102d2158
102ce390:	102d1f84 	.word	0x102d1f84
102ce394:	102d210c 	.word	0x102d210c
102ce398:	102d20ec 	.word	0x102d20ec
102ce39c:	102d20c8 	.word	0x102d20c8
102ce3a0:	102d20a4 	.word	0x102d20a4
102ce3a4:	102d207c 	.word	0x102d207c
102ce3a8:	102d2054 	.word	0x102d2054
102ce3ac:	102d2030 	.word	0x102d2030
102ce3b0:	102d200c 	.word	0x102d200c
102ce3b4:	102d1fe8 	.word	0x102d1fe8
102ce3b8:	102d1fc0 	.word	0x102d1fc0
102ce3bc:	102d2134 	.word	0x102d2134
102ce3c0:	102d1f6c 	.word	0x102d1f6c
102ce3c4:	102d2188 	.word	0x102d2188
102ce3c8:	102d1ef4 	.word	0x102d1ef4
102ce3cc:	102d1e78 	.word	0x102d1e78

102ce3d0 <proc_subtask1>:
102ce3d0:	e92d4070 	push	{r4, r5, r6, lr}
102ce3d4:	e59f3060 	ldr	r3, [pc, #96]	; 102ce43c <proc_subtask1+0x6c>
102ce3d8:	e12fff33 	blx	r3
102ce3dc:	e59f605c 	ldr	r6, [pc, #92]	; 102ce440 <proc_subtask1+0x70>
102ce3e0:	e3a02c02 	mov	r2, #512	; 0x200
102ce3e4:	e59f3058 	ldr	r3, [pc, #88]	; 102ce444 <proc_subtask1+0x74>
102ce3e8:	e1a04000 	mov	r4, r0
102ce3ec:	e1a05001 	mov	r5, r1
102ce3f0:	e1a00006 	mov	r0, r6
102ce3f4:	e3a01000 	mov	r1, #0
102ce3f8:	e12fff33 	blx	r3
102ce3fc:	e59f0044 	ldr	r0, [pc, #68]	; 102ce448 <proc_subtask1+0x78>
102ce400:	e1a02004 	mov	r2, r4
102ce404:	e590c000 	ldr	ip, [r0]
102ce408:	e59f103c 	ldr	r1, [pc, #60]	; 102ce44c <proc_subtask1+0x7c>
102ce40c:	e1a03005 	mov	r3, r5
102ce410:	e1a00006 	mov	r0, r6
102ce414:	e12fff3c 	blx	ip
102ce418:	e1a00006 	mov	r0, r6
102ce41c:	e59f302c 	ldr	r3, [pc, #44]	; 102ce450 <proc_subtask1+0x80>
102ce420:	e12fff33 	blx	r3
102ce424:	e1a01006 	mov	r1, r6
102ce428:	e59f3024 	ldr	r3, [pc, #36]	; 102ce454 <proc_subtask1+0x84>
102ce42c:	e1a02000 	mov	r2, r0
102ce430:	e3a0000a 	mov	r0, #10
102ce434:	e12fff33 	blx	r3
102ce438:	e8bd8070 	pop	{r4, r5, r6, pc}
102ce43c:	102cfa28 	.word	0x102cfa28
102ce440:	f03d2128 	.word	0xf03d2128
102ce444:	102cf798 	.word	0x102cf798
102ce448:	f03d5b00 	.word	0xf03d5b00
102ce44c:	102d21e0 	.word	0x102d21e0
102ce450:	102cf648 	.word	0x102cf648
102ce454:	102d0028 	.word	0x102d0028

102ce458 <_OCPU_InitUserMem>:
102ce458:	e59f0030 	ldr	r0, [pc, #48]	; 102ce490 <_OCPU_InitUserMem+0x38>
102ce45c:	e59f1030 	ldr	r1, [pc, #48]	; 102ce494 <_OCPU_InitUserMem+0x3c>
102ce460:	e59f2030 	ldr	r2, [pc, #48]	; 102ce498 <_OCPU_InitUserMem+0x40>
102ce464:	e1510002 	cmp	r1, r2
102ce468:	b8b00008 	ldmlt	r0!, {r3}
102ce46c:	b8a10008 	stmialt	r1!, {r3}
102ce470:	bafffffb 	blt	102ce464 <_OCPU_InitUserMem+0xc>
102ce474:	e59f1020 	ldr	r1, [pc, #32]	; 102ce49c <_OCPU_InitUserMem+0x44>
102ce478:	e59f2020 	ldr	r2, [pc, #32]	; 102ce4a0 <_OCPU_InitUserMem+0x48>
102ce47c:	e3a03000 	mov	r3, #0
102ce480:	e1510002 	cmp	r1, r2
102ce484:	b8a10008 	stmialt	r1!, {r3}
102ce488:	bafffffc 	blt	102ce480 <_OCPU_InitUserMem+0x28>
102ce48c:	e12fff1e 	bx	lr
102ce490:	102d26b8 	.word	0x102d26b8
102ce494:	f03d2000 	.word	0xf03d2000
102ce498:	f03d2050 	.word	0xf03d2050
102ce49c:	f03d2050 	.word	0xf03d2050
102ce4a0:	f03d31d8 	.word	0xf03d31d8

102ce4a4 <memcpy>:
102ce4a4:	b5f0      	push	{r4, r5, r6, r7, lr}
102ce4a6:	4657      	mov	r7, sl
102ce4a8:	464e      	mov	r6, r9
102ce4aa:	4645      	mov	r5, r8
102ce4ac:	b4e0      	push	{r5, r6, r7}
102ce4ae:	2a03      	cmp	r2, #3
102ce4b0:	d80e      	bhi.n	102ce4d0 <memcpy+0x2c>
102ce4b2:	2300      	movs	r3, #0
102ce4b4:	2a00      	cmp	r2, #0
102ce4b6:	d004      	beq.n	102ce4c2 <memcpy+0x1e>
102ce4b8:	5ccc      	ldrb	r4, [r1, r3]
102ce4ba:	54c4      	strb	r4, [r0, r3]
102ce4bc:	3301      	adds	r3, #1
102ce4be:	4293      	cmp	r3, r2
102ce4c0:	d1fa      	bne.n	102ce4b8 <memcpy+0x14>
102ce4c2:	bc1c      	pop	{r2, r3, r4}
102ce4c4:	4690      	mov	r8, r2
102ce4c6:	4699      	mov	r9, r3
102ce4c8:	46a2      	mov	sl, r4
102ce4ca:	bcf0      	pop	{r4, r5, r6, r7}
102ce4cc:	bc02      	pop	{r1}
102ce4ce:	4708      	bx	r1
102ce4d0:	1882      	adds	r2, r0, r2
102ce4d2:	0783      	lsls	r3, r0, #30
102ce4d4:	d008      	beq.n	102ce4e8 <memcpy+0x44>
102ce4d6:	1c03      	adds	r3, r0, #0
102ce4d8:	2403      	movs	r4, #3
102ce4da:	780d      	ldrb	r5, [r1, #0]
102ce4dc:	701d      	strb	r5, [r3, #0]
102ce4de:	3301      	adds	r3, #1
102ce4e0:	3101      	adds	r1, #1
102ce4e2:	4223      	tst	r3, r4
102ce4e4:	d1f9      	bne.n	102ce4da <memcpy+0x36>
102ce4e6:	e000      	b.n	102ce4ea <memcpy+0x46>
102ce4e8:	1c03      	adds	r3, r0, #0
102ce4ea:	2403      	movs	r4, #3
102ce4ec:	400c      	ands	r4, r1
102ce4ee:	d046      	beq.n	102ce57e <memcpy+0xda>
102ce4f0:	4267      	negs	r7, r4
102ce4f2:	46ba      	mov	sl, r7
102ce4f4:	59ce      	ldr	r6, [r1, r7]
102ce4f6:	1ad7      	subs	r7, r2, r3
102ce4f8:	2f03      	cmp	r7, #3
102ce4fa:	dd15      	ble.n	102ce528 <memcpy+0x84>
102ce4fc:	2704      	movs	r7, #4
102ce4fe:	00e5      	lsls	r5, r4, #3
102ce500:	1b3c      	subs	r4, r7, r4
102ce502:	00e4      	lsls	r4, r4, #3
102ce504:	46ac      	mov	ip, r5
102ce506:	46a1      	mov	r9, r4
102ce508:	4654      	mov	r4, sl
102ce50a:	3104      	adds	r1, #4
102ce50c:	590f      	ldr	r7, [r1, r4]
102ce50e:	464c      	mov	r4, r9
102ce510:	1c3d      	adds	r5, r7, #0
102ce512:	40a5      	lsls	r5, r4
102ce514:	46a8      	mov	r8, r5
102ce516:	4665      	mov	r5, ip
102ce518:	40ee      	lsrs	r6, r5
102ce51a:	4644      	mov	r4, r8
102ce51c:	4326      	orrs	r6, r4
102ce51e:	c340      	stmia	r3!, {r6}
102ce520:	1c3e      	adds	r6, r7, #0
102ce522:	1ad7      	subs	r7, r2, r3
102ce524:	2f03      	cmp	r7, #3
102ce526:	dcef      	bgt.n	102ce508 <memcpy+0x64>
102ce528:	429a      	cmp	r2, r3
102ce52a:	d9ca      	bls.n	102ce4c2 <memcpy+0x1e>
102ce52c:	780c      	ldrb	r4, [r1, #0]
102ce52e:	701c      	strb	r4, [r3, #0]
102ce530:	3301      	adds	r3, #1
102ce532:	3101      	adds	r1, #1
102ce534:	4293      	cmp	r3, r2
102ce536:	d1f9      	bne.n	102ce52c <memcpy+0x88>
102ce538:	e7c3      	b.n	102ce4c2 <memcpy+0x1e>
102ce53a:	680c      	ldr	r4, [r1, #0]
102ce53c:	601c      	str	r4, [r3, #0]
102ce53e:	684d      	ldr	r5, [r1, #4]
102ce540:	605d      	str	r5, [r3, #4]
102ce542:	688f      	ldr	r7, [r1, #8]
102ce544:	609f      	str	r7, [r3, #8]
102ce546:	68cc      	ldr	r4, [r1, #12]
102ce548:	60dc      	str	r4, [r3, #12]
102ce54a:	690d      	ldr	r5, [r1, #16]
102ce54c:	611d      	str	r5, [r3, #16]
102ce54e:	694f      	ldr	r7, [r1, #20]
102ce550:	615f      	str	r7, [r3, #20]
102ce552:	698c      	ldr	r4, [r1, #24]
102ce554:	619c      	str	r4, [r3, #24]
102ce556:	69cd      	ldr	r5, [r1, #28]
102ce558:	61dd      	str	r5, [r3, #28]
102ce55a:	6a0f      	ldr	r7, [r1, #32]
102ce55c:	621f      	str	r7, [r3, #32]
102ce55e:	6a4c      	ldr	r4, [r1, #36]	; 0x24
102ce560:	625c      	str	r4, [r3, #36]	; 0x24
102ce562:	6a8d      	ldr	r5, [r1, #40]	; 0x28
102ce564:	629d      	str	r5, [r3, #40]	; 0x28
102ce566:	6acf      	ldr	r7, [r1, #44]	; 0x2c
102ce568:	62df      	str	r7, [r3, #44]	; 0x2c
102ce56a:	6b0c      	ldr	r4, [r1, #48]	; 0x30
102ce56c:	631c      	str	r4, [r3, #48]	; 0x30
102ce56e:	6b4d      	ldr	r5, [r1, #52]	; 0x34
102ce570:	635d      	str	r5, [r3, #52]	; 0x34
102ce572:	6b8f      	ldr	r7, [r1, #56]	; 0x38
102ce574:	639f      	str	r7, [r3, #56]	; 0x38
102ce576:	6bcc      	ldr	r4, [r1, #60]	; 0x3c
102ce578:	3140      	adds	r1, #64	; 0x40
102ce57a:	63dc      	str	r4, [r3, #60]	; 0x3c
102ce57c:	3340      	adds	r3, #64	; 0x40
102ce57e:	1ad4      	subs	r4, r2, r3
102ce580:	2c3f      	cmp	r4, #63	; 0x3f
102ce582:	dcda      	bgt.n	102ce53a <memcpy+0x96>
102ce584:	e00a      	b.n	102ce59c <memcpy+0xf8>
102ce586:	680d      	ldr	r5, [r1, #0]
102ce588:	601d      	str	r5, [r3, #0]
102ce58a:	684f      	ldr	r7, [r1, #4]
102ce58c:	605f      	str	r7, [r3, #4]
102ce58e:	688c      	ldr	r4, [r1, #8]
102ce590:	609c      	str	r4, [r3, #8]
102ce592:	68cd      	ldr	r5, [r1, #12]
102ce594:	60dd      	str	r5, [r3, #12]
102ce596:	3310      	adds	r3, #16
102ce598:	3110      	adds	r1, #16
102ce59a:	1ad4      	subs	r4, r2, r3
102ce59c:	2c0f      	cmp	r4, #15
102ce59e:	dcf2      	bgt.n	102ce586 <memcpy+0xe2>
102ce5a0:	e002      	b.n	102ce5a8 <memcpy+0x104>
102ce5a2:	c910      	ldmia	r1!, {r4}
102ce5a4:	c310      	stmia	r3!, {r4}
102ce5a6:	1ad4      	subs	r4, r2, r3
102ce5a8:	2c03      	cmp	r4, #3
102ce5aa:	dcfa      	bgt.n	102ce5a2 <memcpy+0xfe>
102ce5ac:	e7bc      	b.n	102ce528 <memcpy+0x84>
102ce5ae:	46c0      	nop			; (mov r8, r8)

102ce5b0 <memset>:
102ce5b0:	b530      	push	{r4, r5, lr}
102ce5b2:	060c      	lsls	r4, r1, #24
102ce5b4:	0e24      	lsrs	r4, r4, #24
102ce5b6:	2a03      	cmp	r2, #3
102ce5b8:	d80a      	bhi.n	102ce5d0 <memset+0x20>
102ce5ba:	1c03      	adds	r3, r0, #0
102ce5bc:	1811      	adds	r1, r2, r0
102ce5be:	2a00      	cmp	r2, #0
102ce5c0:	d003      	beq.n	102ce5ca <memset+0x1a>
102ce5c2:	701c      	strb	r4, [r3, #0]
102ce5c4:	3301      	adds	r3, #1
102ce5c6:	428b      	cmp	r3, r1
102ce5c8:	d1fb      	bne.n	102ce5c2 <memset+0x12>
102ce5ca:	bc30      	pop	{r4, r5}
102ce5cc:	bc02      	pop	{r1}
102ce5ce:	4708      	bx	r1
102ce5d0:	1882      	adds	r2, r0, r2
102ce5d2:	0783      	lsls	r3, r0, #30
102ce5d4:	d006      	beq.n	102ce5e4 <memset+0x34>
102ce5d6:	1c03      	adds	r3, r0, #0
102ce5d8:	2503      	movs	r5, #3
102ce5da:	701c      	strb	r4, [r3, #0]
102ce5dc:	3301      	adds	r3, #1
102ce5de:	422b      	tst	r3, r5
102ce5e0:	d1fb      	bne.n	102ce5da <memset+0x2a>
102ce5e2:	e000      	b.n	102ce5e6 <memset+0x36>
102ce5e4:	1c03      	adds	r3, r0, #0
102ce5e6:	25ff      	movs	r5, #255	; 0xff
102ce5e8:	4029      	ands	r1, r5
102ce5ea:	020d      	lsls	r5, r1, #8
102ce5ec:	1869      	adds	r1, r5, r1
102ce5ee:	040d      	lsls	r5, r1, #16
102ce5f0:	1949      	adds	r1, r1, r5
102ce5f2:	1ad5      	subs	r5, r2, r3
102ce5f4:	2d3f      	cmp	r5, #63	; 0x3f
102ce5f6:	dd1a      	ble.n	102ce62e <memset+0x7e>
102ce5f8:	6019      	str	r1, [r3, #0]
102ce5fa:	6059      	str	r1, [r3, #4]
102ce5fc:	6099      	str	r1, [r3, #8]
102ce5fe:	60d9      	str	r1, [r3, #12]
102ce600:	6119      	str	r1, [r3, #16]
102ce602:	6159      	str	r1, [r3, #20]
102ce604:	6199      	str	r1, [r3, #24]
102ce606:	61d9      	str	r1, [r3, #28]
102ce608:	6219      	str	r1, [r3, #32]
102ce60a:	6259      	str	r1, [r3, #36]	; 0x24
102ce60c:	6299      	str	r1, [r3, #40]	; 0x28
102ce60e:	62d9      	str	r1, [r3, #44]	; 0x2c
102ce610:	6319      	str	r1, [r3, #48]	; 0x30
102ce612:	6359      	str	r1, [r3, #52]	; 0x34
102ce614:	6399      	str	r1, [r3, #56]	; 0x38
102ce616:	63d9      	str	r1, [r3, #60]	; 0x3c
102ce618:	3340      	adds	r3, #64	; 0x40
102ce61a:	1ad5      	subs	r5, r2, r3
102ce61c:	2d3f      	cmp	r5, #63	; 0x3f
102ce61e:	dceb      	bgt.n	102ce5f8 <memset+0x48>
102ce620:	e005      	b.n	102ce62e <memset+0x7e>
102ce622:	6019      	str	r1, [r3, #0]
102ce624:	6059      	str	r1, [r3, #4]
102ce626:	6099      	str	r1, [r3, #8]
102ce628:	60d9      	str	r1, [r3, #12]
102ce62a:	3310      	adds	r3, #16
102ce62c:	1ad5      	subs	r5, r2, r3
102ce62e:	2d0f      	cmp	r5, #15
102ce630:	dcf7      	bgt.n	102ce622 <memset+0x72>
102ce632:	e001      	b.n	102ce638 <memset+0x88>
102ce634:	c302      	stmia	r3!, {r1}
102ce636:	1ad5      	subs	r5, r2, r3
102ce638:	2d03      	cmp	r5, #3
102ce63a:	dcfb      	bgt.n	102ce634 <memset+0x84>
102ce63c:	429a      	cmp	r2, r3
102ce63e:	d9c4      	bls.n	102ce5ca <memset+0x1a>
102ce640:	701c      	strb	r4, [r3, #0]
102ce642:	3301      	adds	r3, #1
102ce644:	4293      	cmp	r3, r2
102ce646:	d1fb      	bne.n	102ce640 <memset+0x90>
102ce648:	e7bf      	b.n	102ce5ca <memset+0x1a>
102ce64a:	46c0      	nop			; (mov r8, r8)

102ce64c <__aeabi_d2iz>:
102ce64c:	e1a02081 	lsl	r2, r1, #1
102ce650:	e2922602 	adds	r2, r2, #2097152	; 0x200000
102ce654:	2a00000c 	bcs	102ce68c <__aeabi_d2iz+0x40>
102ce658:	5a000009 	bpl	102ce684 <__aeabi_d2iz+0x38>
102ce65c:	e3e03e3e 	mvn	r3, #992	; 0x3e0
102ce660:	e0532ac2 	subs	r2, r3, r2, asr #21
102ce664:	9a00000a 	bls	102ce694 <__aeabi_d2iz+0x48>
102ce668:	e1a03581 	lsl	r3, r1, #11
102ce66c:	e3833102 	orr	r3, r3, #-2147483648	; 0x80000000
102ce670:	e1833aa0 	orr	r3, r3, r0, lsr #21
102ce674:	e3110102 	tst	r1, #-2147483648	; 0x80000000
102ce678:	e1a00233 	lsr	r0, r3, r2
102ce67c:	12600000 	rsbne	r0, r0, #0
102ce680:	e12fff1e 	bx	lr
102ce684:	e3a00000 	mov	r0, #0
102ce688:	e12fff1e 	bx	lr
102ce68c:	e1900601 	orrs	r0, r0, r1, lsl #12
102ce690:	1a000002 	bne	102ce6a0 <__aeabi_d2iz+0x54>
102ce694:	e2110102 	ands	r0, r1, #-2147483648	; 0x80000000
102ce698:	03e00102 	mvneq	r0, #-2147483648	; 0x80000000
102ce69c:	e12fff1e 	bx	lr
102ce6a0:	e3a00000 	mov	r0, #0
102ce6a4:	e12fff1e 	bx	lr

102ce6a8 <__aeabi_d2f>:
102ce6a8:	e1a02081 	lsl	r2, r1, #1
102ce6ac:	e2523207 	subs	r3, r2, #1879048192	; 0x70000000
102ce6b0:	2253c602 	subscs	ip, r3, #2097152	; 0x200000
102ce6b4:	227cc57f 	rsbscs	ip, ip, #532676608	; 0x1fc00000
102ce6b8:	9a000006 	bls	102ce6d8 <__aeabi_d2f+0x30>
102ce6bc:	e201c102 	and	ip, r1, #-2147483648	; 0x80000000
102ce6c0:	e1a02180 	lsl	r2, r0, #3
102ce6c4:	e18c0ea0 	orr	r0, ip, r0, lsr #29
102ce6c8:	e3520102 	cmp	r2, #-2147483648	; 0x80000000
102ce6cc:	e0a00103 	adc	r0, r0, r3, lsl #2
102ce6d0:	03c00001 	biceq	r0, r0, #1
102ce6d4:	e12fff1e 	bx	lr
102ce6d8:	e3110101 	tst	r1, #1073741824	; 0x40000000
102ce6dc:	1a00000f 	bne	102ce720 <__aeabi_d2f+0x78>
102ce6e0:	e293262e 	adds	r2, r3, #48234496	; 0x2e00000
102ce6e4:	b2010102 	andlt	r0, r1, #-2147483648	; 0x80000000
102ce6e8:	b12fff1e 	bxlt	lr
102ce6ec:	e3811601 	orr	r1, r1, #1048576	; 0x100000
102ce6f0:	e1a02aa2 	lsr	r2, r2, #21
102ce6f4:	e2622018 	rsb	r2, r2, #24
102ce6f8:	e262c020 	rsb	ip, r2, #32
102ce6fc:	e1b03c10 	lsls	r3, r0, ip
102ce700:	e1a00230 	lsr	r0, r0, r2
102ce704:	13800001 	orrne	r0, r0, #1
102ce708:	e1a03581 	lsl	r3, r1, #11
102ce70c:	e1a035a3 	lsr	r3, r3, #11
102ce710:	e1800c13 	orr	r0, r0, r3, lsl ip
102ce714:	e1a03233 	lsr	r3, r3, r2
102ce718:	e1a03083 	lsl	r3, r3, #1
102ce71c:	eaffffe6 	b	102ce6bc <__aeabi_d2f+0x14>
102ce720:	e1f03ac2 	mvns	r3, r2, asr #21
102ce724:	1a000003 	bne	102ce738 <__aeabi_d2f+0x90>
102ce728:	e1903601 	orrs	r3, r0, r1, lsl #12
102ce72c:	13a0047f 	movne	r0, #2130706432	; 0x7f000000
102ce730:	13800503 	orrne	r0, r0, #12582912	; 0xc00000
102ce734:	112fff1e 	bxne	lr
102ce738:	e2010102 	and	r0, r1, #-2147483648	; 0x80000000
102ce73c:	e380047f 	orr	r0, r0, #2130706432	; 0x7f000000
102ce740:	e3800502 	orr	r0, r0, #8388608	; 0x800000
102ce744:	e12fff1e 	bx	lr

Disassembly of section .text.Ql_GPRS_GetPDPCntxtState:

102ce748 <Ql_GPRS_GetPDPCntxtState>:
102ce748:	e92d4038 	push	{r3, r4, r5, lr}
102ce74c:	e59f4044 	ldr	r4, [pc, #68]	; 102ce798 <Ql_GPRS_GetPDPCntxtState+0x50>
102ce750:	e1a05000 	mov	r5, r0
102ce754:	e5943000 	ldr	r3, [r4]
102ce758:	e3530000 	cmp	r3, #0
102ce75c:	1a000006 	bne	102ce77c <Ql_GPRS_GetPDPCntxtState+0x34>
102ce760:	e59f3034 	ldr	r3, [pc, #52]	; 102ce79c <Ql_GPRS_GetPDPCntxtState+0x54>
102ce764:	e59f0034 	ldr	r0, [pc, #52]	; 102ce7a0 <Ql_GPRS_GetPDPCntxtState+0x58>
102ce768:	e5933000 	ldr	r3, [r3]
102ce76c:	e12fff33 	blx	r3
102ce770:	e3500000 	cmp	r0, #0
102ce774:	0a000005 	beq	102ce790 <Ql_GPRS_GetPDPCntxtState+0x48>
102ce778:	e5840000 	str	r0, [r4]
102ce77c:	e59f3014 	ldr	r3, [pc, #20]	; 102ce798 <Ql_GPRS_GetPDPCntxtState+0x50>
102ce780:	e1a00005 	mov	r0, r5
102ce784:	e5933000 	ldr	r3, [r3]
102ce788:	e12fff33 	blx	r3
102ce78c:	e8bd8038 	pop	{r3, r4, r5, pc}
102ce790:	e59f000c 	ldr	r0, [pc, #12]	; 102ce7a4 <Ql_GPRS_GetPDPCntxtState+0x5c>
102ce794:	e8bd8038 	pop	{r3, r4, r5, pc}
102ce798:	f03d245c 	.word	0xf03d245c
102ce79c:	f03d2490 	.word	0xf03d2490
102ce7a0:	102d21f0 	.word	0x102d21f0
102ce7a4:	ffffd8f0 	.word	0xffffd8f0

Disassembly of section .text.Ql_GPRS_GetPDPContextId:

102ce7a8 <Ql_GPRS_GetPDPContextId>:
102ce7a8:	e92d4010 	push	{r4, lr}
102ce7ac:	e3a00000 	mov	r0, #0
102ce7b0:	e59f404c 	ldr	r4, [pc, #76]	; 102ce804 <Ql_GPRS_GetPDPContextId+0x5c>
102ce7b4:	e12fff34 	blx	r4
102ce7b8:	e3500000 	cmp	r0, #0
102ce7bc:	1a000001 	bne	102ce7c8 <Ql_GPRS_GetPDPContextId+0x20>
102ce7c0:	e3a00000 	mov	r0, #0
102ce7c4:	e8bd8010 	pop	{r4, pc}
102ce7c8:	e3a00000 	mov	r0, #0
102ce7cc:	e12fff34 	blx	r4
102ce7d0:	e3500001 	cmp	r0, #1
102ce7d4:	0afffff9 	beq	102ce7c0 <Ql_GPRS_GetPDPContextId+0x18>
102ce7d8:	e3a00001 	mov	r0, #1
102ce7dc:	e12fff34 	blx	r4
102ce7e0:	e3500000 	cmp	r0, #0
102ce7e4:	e3a00001 	mov	r0, #1
102ce7e8:	0a000004 	beq	102ce800 <Ql_GPRS_GetPDPContextId+0x58>
102ce7ec:	e12fff34 	blx	r4
102ce7f0:	e3500001 	cmp	r0, #1
102ce7f4:	03a00001 	moveq	r0, #1
102ce7f8:	13e00000 	mvnne	r0, #0
102ce7fc:	e8bd8010 	pop	{r4, pc}
102ce800:	e8bd8010 	pop	{r4, pc}
102ce804:	102ce748 	.word	0x102ce748

Disassembly of section .text.Ql_MEM_Alloc:

102ce808 <Ql_MEM_Alloc>:
102ce808:	e92d4070 	push	{r4, r5, r6, lr}
102ce80c:	e59f5058 	ldr	r5, [pc, #88]	; 102ce86c <Ql_MEM_Alloc+0x64>
102ce810:	e1a06000 	mov	r6, r0
102ce814:	e5953000 	ldr	r3, [r5]
102ce818:	e3530000 	cmp	r3, #0
102ce81c:	1a00000d 	bne	102ce858 <Ql_MEM_Alloc+0x50>
102ce820:	e59f3048 	ldr	r3, [pc, #72]	; 102ce870 <Ql_MEM_Alloc+0x68>
102ce824:	e59f0048 	ldr	r0, [pc, #72]	; 102ce874 <Ql_MEM_Alloc+0x6c>
102ce828:	e5933000 	ldr	r3, [r3]
102ce82c:	e12fff33 	blx	r3
102ce830:	e2504000 	subs	r4, r0, #0
102ce834:	15854000 	strne	r4, [r5]
102ce838:	1a000006 	bne	102ce858 <Ql_MEM_Alloc+0x50>
102ce83c:	e59f3034 	ldr	r3, [pc, #52]	; 102ce878 <Ql_MEM_Alloc+0x70>
102ce840:	e59f102c 	ldr	r1, [pc, #44]	; 102ce874 <Ql_MEM_Alloc+0x6c>
102ce844:	e5933000 	ldr	r3, [r3]
102ce848:	e59f002c 	ldr	r0, [pc, #44]	; 102ce87c <Ql_MEM_Alloc+0x74>
102ce84c:	e12fff33 	blx	r3
102ce850:	e1a00004 	mov	r0, r4
102ce854:	e8bd8070 	pop	{r4, r5, r6, pc}
102ce858:	e59f300c 	ldr	r3, [pc, #12]	; 102ce86c <Ql_MEM_Alloc+0x64>
102ce85c:	e1a00006 	mov	r0, r6
102ce860:	e5933000 	ldr	r3, [r3]
102ce864:	e12fff33 	blx	r3
102ce868:	e8bd8070 	pop	{r4, r5, r6, pc}
102ce86c:	f03d2484 	.word	0xf03d2484
102ce870:	f03d2490 	.word	0xf03d2490
102ce874:	102d22bb 	.word	0x102d22bb
102ce878:	f03d5b04 	.word	0xf03d5b04
102ce87c:	f03d2024 	.word	0xf03d2024

Disassembly of section .text.Ql_MEM_Free:

102ce880 <Ql_MEM_Free>:
102ce880:	e92d4038 	push	{r3, r4, r5, lr}
102ce884:	e59f4054 	ldr	r4, [pc, #84]	; 102ce8e0 <Ql_MEM_Free+0x60>
102ce888:	e1a05000 	mov	r5, r0
102ce88c:	e5943004 	ldr	r3, [r4, #4]
102ce890:	e3530000 	cmp	r3, #0
102ce894:	1a00000c 	bne	102ce8cc <Ql_MEM_Free+0x4c>
102ce898:	e59f3044 	ldr	r3, [pc, #68]	; 102ce8e4 <Ql_MEM_Free+0x64>
102ce89c:	e59f0044 	ldr	r0, [pc, #68]	; 102ce8e8 <Ql_MEM_Free+0x68>
102ce8a0:	e5933000 	ldr	r3, [r3]
102ce8a4:	e12fff33 	blx	r3
102ce8a8:	e3500000 	cmp	r0, #0
102ce8ac:	15840004 	strne	r0, [r4, #4]
102ce8b0:	1a000005 	bne	102ce8cc <Ql_MEM_Free+0x4c>
102ce8b4:	e59f3030 	ldr	r3, [pc, #48]	; 102ce8ec <Ql_MEM_Free+0x6c>
102ce8b8:	e59f1028 	ldr	r1, [pc, #40]	; 102ce8e8 <Ql_MEM_Free+0x68>
102ce8bc:	e5933000 	ldr	r3, [r3]
102ce8c0:	e59f0028 	ldr	r0, [pc, #40]	; 102ce8f0 <Ql_MEM_Free+0x70>
102ce8c4:	e12fff33 	blx	r3
102ce8c8:	e8bd8038 	pop	{r3, r4, r5, pc}
102ce8cc:	e59f300c 	ldr	r3, [pc, #12]	; 102ce8e0 <Ql_MEM_Free+0x60>
102ce8d0:	e1a00005 	mov	r0, r5
102ce8d4:	e5933004 	ldr	r3, [r3, #4]
102ce8d8:	e12fff33 	blx	r3
102ce8dc:	e8bd8038 	pop	{r3, r4, r5, pc}
102ce8e0:	f03d2484 	.word	0xf03d2484
102ce8e4:	f03d2490 	.word	0xf03d2490
102ce8e8:	102d22c8 	.word	0x102d22c8
102ce8ec:	f03d5b04 	.word	0xf03d5b04
102ce8f0:	f03d2024 	.word	0xf03d2024

Disassembly of section .text.ql_InitVFunc:

102ce8f4 <ql_InitVFunc>:
102ce8f4:	e5903000 	ldr	r3, [r0]
102ce8f8:	e59f20b0 	ldr	r2, [pc, #176]	; 102ce9b0 <ql_InitVFunc+0xbc>
102ce8fc:	e5933000 	ldr	r3, [r3]
102ce900:	e5901014 	ldr	r1, [r0, #20]
102ce904:	e3530007 	cmp	r3, #7
102ce908:	23a03007 	movcs	r3, #7
102ce90c:	e5823000 	str	r3, [r2]
102ce910:	e59f209c 	ldr	r2, [pc, #156]	; 102ce9b4 <ql_InitVFunc+0xc0>
102ce914:	e3530001 	cmp	r3, #1
102ce918:	e5821000 	str	r1, [r2]
102ce91c:	e59f2094 	ldr	r2, [pc, #148]	; 102ce9b8 <ql_InitVFunc+0xc4>
102ce920:	e5901018 	ldr	r1, [r0, #24]
102ce924:	e5821000 	str	r1, [r2]
102ce928:	e59f108c 	ldr	r1, [pc, #140]	; 102ce9bc <ql_InitVFunc+0xc8>
102ce92c:	e59f208c 	ldr	r2, [pc, #140]	; 102ce9c0 <ql_InitVFunc+0xcc>
102ce930:	9a000004 	bls	102ce948 <ql_InitVFunc+0x54>
102ce934:	e590c004 	ldr	ip, [r0, #4]
102ce938:	e3530002 	cmp	r3, #2
102ce93c:	e581c000 	str	ip, [r1]
102ce940:	1a000003 	bne	102ce954 <ql_InitVFunc+0x60>
102ce944:	ea000007 	b	102ce968 <ql_InitVFunc+0x74>
102ce948:	e3a03000 	mov	r3, #0
102ce94c:	e5813000 	str	r3, [r1]
102ce950:	ea000004 	b	102ce968 <ql_InitVFunc+0x74>
102ce954:	e5901008 	ldr	r1, [r0, #8]
102ce958:	e3530003 	cmp	r3, #3
102ce95c:	e5821000 	str	r1, [r2]
102ce960:	1a000003 	bne	102ce974 <ql_InitVFunc+0x80>
102ce964:	ea000009 	b	102ce990 <ql_InitVFunc+0x9c>
102ce968:	e3a03000 	mov	r3, #0
102ce96c:	e5823000 	str	r3, [r2]
102ce970:	ea000006 	b	102ce990 <ql_InitVFunc+0x9c>
102ce974:	e59f2048 	ldr	r2, [pc, #72]	; 102ce9c4 <ql_InitVFunc+0xd0>
102ce978:	e590100c 	ldr	r1, [r0, #12]
102ce97c:	e3530004 	cmp	r3, #4
102ce980:	e5821000 	str	r1, [r2]
102ce984:	15902010 	ldrne	r2, [r0, #16]
102ce988:	1a000005 	bne	102ce9a4 <ql_InitVFunc+0xb0>
102ce98c:	ea000003 	b	102ce9a0 <ql_InitVFunc+0xac>
102ce990:	e59f302c 	ldr	r3, [pc, #44]	; 102ce9c4 <ql_InitVFunc+0xd0>
102ce994:	e3a02000 	mov	r2, #0
102ce998:	e5832000 	str	r2, [r3]
102ce99c:	eaffffff 	b	102ce9a0 <ql_InitVFunc+0xac>
102ce9a0:	e3a02000 	mov	r2, #0
102ce9a4:	e59f301c 	ldr	r3, [pc, #28]	; 102ce9c8 <ql_InitVFunc+0xd4>
102ce9a8:	e5832000 	str	r2, [r3]
102ce9ac:	e12fff1e 	bx	lr
102ce9b0:	f03d24b0 	.word	0xf03d24b0
102ce9b4:	f03d24ac 	.word	0xf03d24ac
102ce9b8:	f03d2490 	.word	0xf03d2490
102ce9bc:	f03d5b04 	.word	0xf03d5b04
102ce9c0:	f03d5b00 	.word	0xf03d5b00
102ce9c4:	f03d5afc 	.word	0xf03d5afc
102ce9c8:	f03d5b08 	.word	0xf03d5b08

Disassembly of section .text.ocpu_main:

102ce9cc <ocpu_main>:
102ce9cc:	e92d4010 	push	{r4, lr}
102ce9d0:	e24dd020 	sub	sp, sp, #32
102ce9d4:	e1a04000 	mov	r4, r0
102ce9d8:	e3a01000 	mov	r1, #0
102ce9dc:	e3a0201e 	mov	r2, #30
102ce9e0:	e59f30ac 	ldr	r3, [pc, #172]	; 102cea94 <ocpu_main+0xc8>
102ce9e4:	e1a0000d 	mov	r0, sp
102ce9e8:	e12fff33 	blx	r3
102ce9ec:	e5d42000 	ldrb	r2, [r4]
102ce9f0:	e59f10a0 	ldr	r1, [pc, #160]	; 102cea98 <ocpu_main+0xcc>
102ce9f4:	e5943004 	ldr	r3, [r4, #4]
102ce9f8:	e3520000 	cmp	r2, #0
102ce9fc:	e5c12004 	strb	r2, [r1, #4]
102cea00:	e5813008 	str	r3, [r1, #8]
102cea04:	1a000004 	bne	102cea1c <ocpu_main+0x50>
102cea08:	e59f208c 	ldr	r2, [pc, #140]	; 102cea9c <ocpu_main+0xd0>
102cea0c:	e59f008c 	ldr	r0, [pc, #140]	; 102ceaa0 <ocpu_main+0xd4>
102cea10:	e1a01003 	mov	r1, r3
102cea14:	e5922000 	ldr	r2, [r2]
102cea18:	e12fff33 	blx	r3
102cea1c:	e5940008 	ldr	r0, [r4, #8]
102cea20:	e3500000 	cmp	r0, #0
102cea24:	0a000002 	beq	102cea34 <ocpu_main+0x68>
102cea28:	e59f3074 	ldr	r3, [pc, #116]	; 102ceaa4 <ocpu_main+0xd8>
102cea2c:	e12fff33 	blx	r3
102cea30:	ea000003 	b	102cea44 <ocpu_main+0x78>
102cea34:	e59f305c 	ldr	r3, [pc, #92]	; 102cea98 <ocpu_main+0xcc>
102cea38:	e59f0068 	ldr	r0, [pc, #104]	; 102ceaa8 <ocpu_main+0xdc>
102cea3c:	e5933008 	ldr	r3, [r3, #8]
102cea40:	e12fff33 	blx	r3
102cea44:	e3a0201e 	mov	r2, #30
102cea48:	e1a0000d 	mov	r0, sp
102cea4c:	e3a01000 	mov	r1, #0
102cea50:	e59f3054 	ldr	r3, [pc, #84]	; 102ceaac <ocpu_main+0xe0>
102cea54:	e12fff33 	blx	r3
102cea58:	e1a0000d 	mov	r0, sp
102cea5c:	e3a0101e 	mov	r1, #30
102cea60:	e59f3048 	ldr	r3, [pc, #72]	; 102ceab0 <ocpu_main+0xe4>
102cea64:	e12fff33 	blx	r3
102cea68:	e59f3028 	ldr	r3, [pc, #40]	; 102cea98 <ocpu_main+0xcc>
102cea6c:	e1a0100d 	mov	r1, sp
102cea70:	e5933008 	ldr	r3, [r3, #8]
102cea74:	e59f0038 	ldr	r0, [pc, #56]	; 102ceab4 <ocpu_main+0xe8>
102cea78:	e12fff33 	blx	r3
102cea7c:	e59f3034 	ldr	r3, [pc, #52]	; 102ceab8 <ocpu_main+0xec>
102cea80:	e5932000 	ldr	r2, [r3]
102cea84:	e5930004 	ldr	r0, [r3, #4]
102cea88:	e12fff32 	blx	r2
102cea8c:	e28dd020 	add	sp, sp, #32
102cea90:	e8bd8010 	pop	{r4, pc}
102cea94:	102ce5b1 	.word	0x102ce5b1
102cea98:	f03d24b0 	.word	0xf03d24b0
102cea9c:	f03d5b04 	.word	0xf03d5b04
102ceaa0:	102d22d4 	.word	0x102d22d4
102ceaa4:	102ce8f4 	.word	0x102ce8f4
102ceaa8:	102d230b 	.word	0x102d230b
102ceaac:	102cf798 	.word	0x102cf798
102ceab0:	102cfaac 	.word	0x102cfaac
102ceab4:	102d2325 	.word	0x102d2325
102ceab8:	102d0cd0 	.word	0x102d0cd0

Disassembly of section .text.proc_reserved2:

102ceabc <proc_reserved2>:
102ceabc:	e59f3054 	ldr	r3, [pc, #84]	; 102ceb18 <proc_reserved2+0x5c>
102ceac0:	e92d4030 	push	{r4, r5, lr}
102ceac4:	e5830000 	str	r0, [r3]
102ceac8:	e59f404c 	ldr	r4, [pc, #76]	; 102ceb1c <proc_reserved2+0x60>
102ceacc:	e59f304c 	ldr	r3, [pc, #76]	; 102ceb20 <proc_reserved2+0x64>
102cead0:	e59f504c 	ldr	r5, [pc, #76]	; 102ceb24 <proc_reserved2+0x68>
102cead4:	e3a02001 	mov	r2, #1
102cead8:	e24dd014 	sub	sp, sp, #20
102ceadc:	e5c32000 	strb	r2, [r3]
102ceae0:	e1a0000d 	mov	r0, sp
102ceae4:	e12fff34 	blx	r4
102ceae8:	e59d3000 	ldr	r3, [sp]
102ceaec:	e3530002 	cmp	r3, #2
102ceaf0:	1afffffa 	bne	102ceae0 <proc_reserved2+0x24>
102ceaf4:	e59d0008 	ldr	r0, [sp, #8]
102ceaf8:	e3a01000 	mov	r1, #0
102ceafc:	e12fff35 	blx	r5
102ceb00:	e59d0008 	ldr	r0, [sp, #8]
102ceb04:	e3500000 	cmp	r0, #0
102ceb08:	0afffff4 	beq	102ceae0 <proc_reserved2+0x24>
102ceb0c:	e59f3014 	ldr	r3, [pc, #20]	; 102ceb28 <proc_reserved2+0x6c>
102ceb10:	e12fff33 	blx	r3
102ceb14:	eafffff1 	b	102ceae0 <proc_reserved2+0x24>
102ceb18:	f03d203c 	.word	0xf03d203c
102ceb1c:	102cfb10 	.word	0x102cfb10
102ceb20:	f03d24c0 	.word	0xf03d24c0
102ceb24:	102cca1c 	.word	0x102cca1c
102ceb28:	102ce880 	.word	0x102ce880

Disassembly of section .text.ril_StopATTimer:

102ceb2c <ril_StopATTimer>:
102ceb2c:	e92d4008 	push	{r3, lr}
102ceb30:	e59f3020 	ldr	r3, [pc, #32]	; 102ceb58 <ril_StopATTimer+0x2c>
102ceb34:	e5d30009 	ldrb	r0, [r3, #9]
102ceb38:	e3500000 	cmp	r0, #0
102ceb3c:	08bd8008 	popeq	{r3, pc}
102ceb40:	e3a02000 	mov	r2, #0
102ceb44:	e5c32009 	strb	r2, [r3, #9]
102ceb48:	e5930000 	ldr	r0, [r3]
102ceb4c:	e59f3008 	ldr	r3, [pc, #8]	; 102ceb5c <ril_StopATTimer+0x30>
102ceb50:	e12fff33 	blx	r3
102ceb54:	e8bd8008 	pop	{r3, pc}
102ceb58:	f03d2040 	.word	0xf03d2040
102ceb5c:	102cfee8 	.word	0x102cfee8

Disassembly of section .text.Callback_OnATTimer:

102ceb60 <Callback_OnATTimer>:
102ceb60:	e92d4008 	push	{r3, lr}
102ceb64:	e59f3030 	ldr	r3, [pc, #48]	; 102ceb9c <Callback_OnATTimer+0x3c>
102ceb68:	e5d33009 	ldrb	r3, [r3, #9]
102ceb6c:	e3530000 	cmp	r3, #0
102ceb70:	08bd8008 	popeq	{r3, pc}
102ceb74:	e59f3024 	ldr	r3, [pc, #36]	; 102ceba0 <Callback_OnATTimer+0x40>
102ceb78:	e12fff33 	blx	r3
102ceb7c:	e59f3020 	ldr	r3, [pc, #32]	; 102ceba4 <Callback_OnATTimer+0x44>
102ceb80:	e3e02001 	mvn	r2, #1
102ceb84:	e5832000 	str	r2, [r3]
102ceb88:	e5930004 	ldr	r0, [r3, #4]
102ceb8c:	e3a01001 	mov	r1, #1
102ceb90:	e59f3010 	ldr	r3, [pc, #16]	; 102ceba8 <Callback_OnATTimer+0x48>
102ceb94:	e12fff33 	blx	r3
102ceb98:	e8bd8008 	pop	{r3, pc}
102ceb9c:	f03d2040 	.word	0xf03d2040
102ceba0:	102ceb2c 	.word	0x102ceb2c
102ceba4:	f03d24c4 	.word	0xf03d24c4
102ceba8:	102cfda0 	.word	0x102cfda0

Disassembly of section .text.CallBack_SerialPort_Hdlr:

102cebac <CallBack_SerialPort_Hdlr>:
102cebac:	e92d4ff8 	push	{r3, r4, r5, r6, r7, r8, r9, sl, fp, lr}
102cebb0:	e2515000 	subs	r5, r1, #0
102cebb4:	18bd8ff8 	popne	{r3, r4, r5, r6, r7, r8, r9, sl, fp, pc}
102cebb8:	e3500002 	cmp	r0, #2
102cebbc:	18bd8ff8 	popne	{r3, r4, r5, r6, r7, r8, r9, sl, fp, pc}
102cebc0:	e59f030c 	ldr	r0, [pc, #780]	; 102ceed4 <CallBack_SerialPort_Hdlr+0x328>
102cebc4:	e3a02b02 	mov	r2, #2048	; 0x800
102cebc8:	e59f3308 	ldr	r3, [pc, #776]	; 102ceed8 <CallBack_SerialPort_Hdlr+0x32c>
102cebcc:	e12fff33 	blx	r3
102cebd0:	e59f72fc 	ldr	r7, [pc, #764]	; 102ceed4 <CallBack_SerialPort_Hdlr+0x328>
102cebd4:	e59f8300 	ldr	r8, [pc, #768]	; 102ceedc <CallBack_SerialPort_Hdlr+0x330>
102cebd8:	e3a00002 	mov	r0, #2
102cebdc:	e0871005 	add	r1, r7, r5
102cebe0:	e2652b02 	rsb	r2, r5, #2048	; 0x800
102cebe4:	e12fff38 	blx	r8
102cebe8:	e59f42f0 	ldr	r4, [pc, #752]	; 102ceee0 <CallBack_SerialPort_Hdlr+0x334>
102cebec:	e2846008 	add	r6, r4, #8
102cebf0:	e3500000 	cmp	r0, #0
102cebf4:	c0855000 	addgt	r5, r5, r0
102cebf8:	cafffff6 	bgt	102cebd8 <CallBack_SerialPort_Hdlr+0x2c>
102cebfc:	18bd8ff8 	popne	{r3, r4, r5, r6, r7, r8, r9, sl, fp, pc}
102cec00:	e3550000 	cmp	r5, #0
102cec04:	08bd8ff8 	popeq	{r3, r4, r5, r6, r7, r8, r9, sl, fp, pc}
102cec08:	e5845808 	str	r5, [r4, #2056]	; 0x808
102cec0c:	e0845005 	add	r5, r4, r5
102cec10:	e5c50008 	strb	r0, [r5, #8]
102cec14:	e3a01001 	mov	r1, #1
102cec18:	e3a00002 	mov	r0, #2
102cec1c:	e59f32c0 	ldr	r3, [pc, #704]	; 102ceee4 <CallBack_SerialPort_Hdlr+0x338>
102cec20:	e584680c 	str	r6, [r4, #2060]	; 0x80c
102cec24:	e12fff33 	blx	r3
102cec28:	e2502000 	subs	r2, r0, #0
102cec2c:	159f82a4 	ldrne	r8, [pc, #676]	; 102ceed8 <CallBack_SerialPort_Hdlr+0x32c>
102cec30:	1a000004 	bne	102cec48 <CallBack_SerialPort_Hdlr+0x9c>
102cec34:	e594080c 	ldr	r0, [r4, #2060]	; 0x80c
102cec38:	e5941808 	ldr	r1, [r4, #2056]	; 0x808
102cec3c:	e59f32a4 	ldr	r3, [pc, #676]	; 102ceee8 <CallBack_SerialPort_Hdlr+0x33c>
102cec40:	e12fff33 	blx	r3
102cec44:	e8bd8ff8 	pop	{r3, r4, r5, r6, r7, r8, r9, sl, fp, pc}
102cec48:	e594680c 	ldr	r6, [r4, #2060]	; 0x80c
102cec4c:	e59f2298 	ldr	r2, [pc, #664]	; 102ceeec <CallBack_SerialPort_Hdlr+0x340>
102cec50:	e3a01000 	mov	r1, #0
102cec54:	e5940810 	ldr	r0, [r4, #2064]	; 0x810
102cec58:	e5949808 	ldr	r9, [r4, #2056]	; 0x808
102cec5c:	e12fff38 	blx	r8
102cec60:	e59f3288 	ldr	r3, [pc, #648]	; 102ceef0 <CallBack_SerialPort_Hdlr+0x344>
102cec64:	e59f1288 	ldr	r1, [pc, #648]	; 102ceef4 <CallBack_SerialPort_Hdlr+0x348>
102cec68:	e1a00006 	mov	r0, r6
102cec6c:	e12fff33 	blx	r3
102cec70:	e59fa280 	ldr	sl, [pc, #640]	; 102ceef8 <CallBack_SerialPort_Hdlr+0x34c>
102cec74:	e59f1278 	ldr	r1, [pc, #632]	; 102ceef4 <CallBack_SerialPort_Hdlr+0x348>
102cec78:	e3500000 	cmp	r0, #0
102cec7c:	1286b002 	addne	fp, r6, #2
102cec80:	01a0b006 	moveq	fp, r6
102cec84:	e1a0000b 	mov	r0, fp
102cec88:	e12fff3a 	blx	sl
102cec8c:	e59f1268 	ldr	r1, [pc, #616]	; 102ceefc <CallBack_SerialPort_Hdlr+0x350>
102cec90:	e1a07000 	mov	r7, r0
102cec94:	e1a0000b 	mov	r0, fp
102cec98:	e12fff3a 	blx	sl
102cec9c:	e59f125c 	ldr	r1, [pc, #604]	; 102cef00 <CallBack_SerialPort_Hdlr+0x354>
102ceca0:	e1a05000 	mov	r5, r0
102ceca4:	e1a0000b 	mov	r0, fp
102ceca8:	e12fff3a 	blx	sl
102cecac:	e2971000 	adds	r1, r7, #0
102cecb0:	13a01001 	movne	r1, #1
102cecb4:	e2952000 	adds	r2, r5, #0
102cecb8:	13a02001 	movne	r2, #1
102cecbc:	e1923001 	orrs	r3, r2, r1
102cecc0:	1a000002 	bne	102cecd0 <CallBack_SerialPort_Hdlr+0x124>
102cecc4:	e3500000 	cmp	r0, #0
102cecc8:	1a000018 	bne	102ced30 <CallBack_SerialPort_Hdlr+0x184>
102ceccc:	ea000027 	b	102ced70 <CallBack_SerialPort_Hdlr+0x1c4>
102cecd0:	e3510000 	cmp	r1, #0
102cecd4:	0a00000c 	beq	102ced0c <CallBack_SerialPort_Hdlr+0x160>
102cecd8:	e1550007 	cmp	r5, r7
102cecdc:	83a02000 	movhi	r2, #0
102cece0:	92022001 	andls	r2, r2, #1
102cece4:	e3520000 	cmp	r2, #0
102cece8:	01a05007 	moveq	r5, r7
102cecec:	e1500005 	cmp	r0, r5
102cecf0:	83a02000 	movhi	r2, #0
102cecf4:	93a02001 	movls	r2, #1
102cecf8:	e3500000 	cmp	r0, #0
102cecfc:	03a02000 	moveq	r2, #0
102ced00:	e3520000 	cmp	r2, #0
102ced04:	01a00005 	moveq	r0, r5
102ced08:	ea000008 	b	102ced30 <CallBack_SerialPort_Hdlr+0x184>
102ced0c:	e3520000 	cmp	r2, #0
102ced10:	0a000006 	beq	102ced30 <CallBack_SerialPort_Hdlr+0x184>
102ced14:	e1500005 	cmp	r0, r5
102ced18:	83a02000 	movhi	r2, #0
102ced1c:	93a02001 	movls	r2, #1
102ced20:	e3500000 	cmp	r0, #0
102ced24:	03a02000 	moveq	r2, #0
102ced28:	e3520000 	cmp	r2, #0
102ced2c:	0a000004 	beq	102ced44 <CallBack_SerialPort_Hdlr+0x198>
102ced30:	e1500007 	cmp	r0, r7
102ced34:	00663000 	rsbeq	r3, r6, r0
102ced38:	02835002 	addeq	r5, r3, #2
102ced3c:	0a000002 	beq	102ced4c <CallBack_SerialPort_Hdlr+0x1a0>
102ced40:	e1a05000 	mov	r5, r0
102ced44:	e0665005 	rsb	r5, r6, r5
102ced48:	e2855001 	add	r5, r5, #1
102ced4c:	e59f31b0 	ldr	r3, [pc, #432]	; 102cef04 <CallBack_SerialPort_Hdlr+0x358>
102ced50:	e5940810 	ldr	r0, [r4, #2064]	; 0x810
102ced54:	e1a01006 	mov	r1, r6
102ced58:	e1a02005 	mov	r2, r5
102ced5c:	e12fff33 	blx	r3
102ced60:	e5943810 	ldr	r3, [r4, #2064]	; 0x810
102ced64:	e5843814 	str	r3, [r4, #2068]	; 0x814
102ced68:	e5845818 	str	r5, [r4, #2072]	; 0x818
102ced6c:	ea000007 	b	102ced90 <CallBack_SerialPort_Hdlr+0x1e4>
102ced70:	e59f318c 	ldr	r3, [pc, #396]	; 102cef04 <CallBack_SerialPort_Hdlr+0x358>
102ced74:	e5940810 	ldr	r0, [r4, #2064]	; 0x810
102ced78:	e1a01006 	mov	r1, r6
102ced7c:	e1a02009 	mov	r2, r9
102ced80:	e12fff33 	blx	r3
102ced84:	e5943810 	ldr	r3, [r4, #2064]	; 0x810
102ced88:	e5843814 	str	r3, [r4, #2068]	; 0x814
102ced8c:	e5849818 	str	r9, [r4, #2072]	; 0x818
102ced90:	e5d4381c 	ldrb	r3, [r4, #2076]	; 0x81c
102ced94:	e3530001 	cmp	r3, #1
102ced98:	1a000029 	bne	102cee44 <CallBack_SerialPort_Hdlr+0x298>
102ced9c:	e59f0164 	ldr	r0, [pc, #356]	; 102cef08 <CallBack_SerialPort_Hdlr+0x35c>
102ceda0:	e5941814 	ldr	r1, [r4, #2068]	; 0x814
102ceda4:	e5942818 	ldr	r2, [r4, #2072]	; 0x818
102ceda8:	e59f315c 	ldr	r3, [pc, #348]	; 102cef0c <CallBack_SerialPort_Hdlr+0x360>
102cedac:	e12fff33 	blx	r3
102cedb0:	e3500000 	cmp	r0, #0
102cedb4:	0a00003c 	beq	102ceeac <CallBack_SerialPort_Hdlr+0x300>
102cedb8:	e5943c20 	ldr	r3, [r4, #3104]	; 0xc20
102cedbc:	e5940814 	ldr	r0, [r4, #2068]	; 0x814
102cedc0:	e3530000 	cmp	r3, #0
102cedc4:	059f3144 	ldreq	r3, [pc, #324]	; 102cef10 <CallBack_SerialPort_Hdlr+0x364>
102cedc8:	e5941818 	ldr	r1, [r4, #2072]	; 0x818
102cedcc:	e5942c24 	ldr	r2, [r4, #3108]	; 0xc24
102cedd0:	e12fff33 	blx	r3
102cedd4:	e5840c28 	str	r0, [r4, #3112]	; 0xc28
102cedd8:	e5943c28 	ldr	r3, [r4, #3112]	; 0xc28
102ceddc:	e3530001 	cmp	r3, #1
102cede0:	0a000012 	beq	102cee30 <CallBack_SerialPort_Hdlr+0x284>
102cede4:	e5942c20 	ldr	r2, [r4, #3104]	; 0xc20
102cede8:	e3520000 	cmp	r2, #0
102cedec:	13a02000 	movne	r2, #0
102cedf0:	15842c20 	strne	r2, [r4, #3104]	; 0xc20
102cedf4:	e3530000 	cmp	r3, #0
102cedf8:	0a000001 	beq	102cee04 <CallBack_SerialPort_Hdlr+0x258>
102cedfc:	e3730001 	cmn	r3, #1
102cee00:	1a000001 	bne	102cee0c <CallBack_SerialPort_Hdlr+0x260>
102cee04:	e59f20d4 	ldr	r2, [pc, #212]	; 102ceee0 <CallBack_SerialPort_Hdlr+0x334>
102cee08:	e5823000 	str	r3, [r2]
102cee0c:	e59f3100 	ldr	r3, [pc, #256]	; 102cef14 <CallBack_SerialPort_Hdlr+0x368>
102cee10:	e12fff33 	blx	r3
102cee14:	e59f30fc 	ldr	r3, [pc, #252]	; 102cef18 <CallBack_SerialPort_Hdlr+0x36c>
102cee18:	e5940004 	ldr	r0, [r4, #4]
102cee1c:	e3a01001 	mov	r1, #1
102cee20:	e12fff33 	blx	r3
102cee24:	e3a03000 	mov	r3, #0
102cee28:	e5c4381c 	strb	r3, [r4, #2076]	; 0x81c
102cee2c:	ea00001e 	b	102ceeac <CallBack_SerialPort_Hdlr+0x300>
102cee30:	e5940814 	ldr	r0, [r4, #2068]	; 0x814
102cee34:	e59f30e0 	ldr	r3, [pc, #224]	; 102cef1c <CallBack_SerialPort_Hdlr+0x370>
102cee38:	e12fff33 	blx	r3
102cee3c:	e3500000 	cmp	r0, #0
102cee40:	0a000019 	beq	102ceeac <CallBack_SerialPort_Hdlr+0x300>
102cee44:	e59f30d4 	ldr	r3, [pc, #212]	; 102cef20 <CallBack_SerialPort_Hdlr+0x374>
102cee48:	e5d33000 	ldrb	r3, [r3]
102cee4c:	e3530000 	cmp	r3, #0
102cee50:	0a000015 	beq	102ceeac <CallBack_SerialPort_Hdlr+0x300>
102cee54:	e5945818 	ldr	r5, [r4, #2072]	; 0x818
102cee58:	e59f30c4 	ldr	r3, [pc, #196]	; 102cef24 <CallBack_SerialPort_Hdlr+0x378>
102cee5c:	e2857001 	add	r7, r5, #1
102cee60:	e1a00007 	mov	r0, r7
102cee64:	e12fff33 	blx	r3
102cee68:	e2506000 	subs	r6, r0, #0
102cee6c:	0a00000e 	beq	102ceeac <CallBack_SerialPort_Hdlr+0x300>
102cee70:	e3a01000 	mov	r1, #0
102cee74:	e1a02007 	mov	r2, r7
102cee78:	e12fff38 	blx	r8
102cee7c:	e5941814 	ldr	r1, [r4, #2068]	; 0x814
102cee80:	e1a02005 	mov	r2, r5
102cee84:	e59f3078 	ldr	r3, [pc, #120]	; 102cef04 <CallBack_SerialPort_Hdlr+0x358>
102cee88:	e1a00006 	mov	r0, r6
102cee8c:	e12fff33 	blx	r3
102cee90:	e59f3090 	ldr	r3, [pc, #144]	; 102cef28 <CallBack_SerialPort_Hdlr+0x37c>
102cee94:	e3a01002 	mov	r1, #2
102cee98:	e5930000 	ldr	r0, [r3]
102cee9c:	e1a02005 	mov	r2, r5
102ceea0:	e1a03006 	mov	r3, r6
102ceea4:	e59fc080 	ldr	ip, [pc, #128]	; 102cef2c <CallBack_SerialPort_Hdlr+0x380>
102ceea8:	e12fff3c 	blx	ip
102ceeac:	e5943818 	ldr	r3, [r4, #2072]	; 0x818
102ceeb0:	e594280c 	ldr	r2, [r4, #2060]	; 0x80c
102ceeb4:	e0822003 	add	r2, r2, r3
102ceeb8:	e584280c 	str	r2, [r4, #2060]	; 0x80c
102ceebc:	e5942808 	ldr	r2, [r4, #2056]	; 0x808
102ceec0:	e0633002 	rsb	r3, r3, r2
102ceec4:	e3530000 	cmp	r3, #0
102ceec8:	e5843808 	str	r3, [r4, #2056]	; 0x808
102ceecc:	1affff5d 	bne	102cec48 <CallBack_SerialPort_Hdlr+0x9c>
102ceed0:	e8bd8ff8 	pop	{r3, r4, r5, r6, r7, r8, r9, sl, fp, pc}
102ceed4:	f03d24cc 	.word	0xf03d24cc
102ceed8:	102cf798 	.word	0x102cf798
102ceedc:	102d0098 	.word	0x102d0098
102ceee0:	f03d24c4 	.word	0xf03d24c4
102ceee4:	102d0108 	.word	0x102d0108
102ceee8:	102ca1bc 	.word	0x102ca1bc
102ceeec:	00000801 	.word	0x00000801
102ceef0:	102ccb6c 	.word	0x102ccb6c
102ceef4:	102d2322 	.word	0x102d2322
102ceef8:	102cf8a8 	.word	0x102cf8a8
102ceefc:	102d2344 	.word	0x102d2344
102cef00:	102d2323 	.word	0x102d2323
102cef04:	102cf820 	.word	0x102cf820
102cef08:	f03d2ce1 	.word	0xf03d2ce1
102cef0c:	102cf728 	.word	0x102cf728
102cef10:	102c7090 	.word	0x102c7090
102cef14:	102ceb2c 	.word	0x102ceb2c
102cef18:	102cfda0 	.word	0x102cfda0
102cef1c:	102ccaec 	.word	0x102ccaec
102cef20:	f03d24c0 	.word	0xf03d24c0
102cef24:	102ce808 	.word	0x102ce808
102cef28:	f03d203c 	.word	0xf03d203c
102cef2c:	102cfb70 	.word	0x102cfb70

Disassembly of section .text.proc_reserved1:

102cef30 <proc_reserved1>:
102cef30:	e92d40f0 	push	{r4, r5, r6, r7, lr}
102cef34:	e59f118c 	ldr	r1, [pc, #396]	; 102cf0c8 <proc_reserved1+0x198>
102cef38:	e24dd014 	sub	sp, sp, #20
102cef3c:	e1a04000 	mov	r4, r0
102cef40:	e3a02000 	mov	r2, #0
102cef44:	e59f3180 	ldr	r3, [pc, #384]	; 102cf0cc <proc_reserved1+0x19c>
102cef48:	e3a00002 	mov	r0, #2
102cef4c:	e12fff33 	blx	r3
102cef50:	e59f5178 	ldr	r5, [pc, #376]	; 102cf0d0 <proc_reserved1+0x1a0>
102cef54:	e3a01000 	mov	r1, #0
102cef58:	e3a02001 	mov	r2, #1
102cef5c:	e59f3170 	ldr	r3, [pc, #368]	; 102cf0d4 <proc_reserved1+0x1a4>
102cef60:	e3a00002 	mov	r0, #2
102cef64:	e12fff33 	blx	r3
102cef68:	e59f3168 	ldr	r3, [pc, #360]	; 102cf0d8 <proc_reserved1+0x1a8>
102cef6c:	e59f0168 	ldr	r0, [pc, #360]	; 102cf0dc <proc_reserved1+0x1ac>
102cef70:	e585400c 	str	r4, [r5, #12]
102cef74:	e12fff33 	blx	r3
102cef78:	e59f4160 	ldr	r4, [pc, #352]	; 102cf0e0 <proc_reserved1+0x1b0>
102cef7c:	e59f3160 	ldr	r3, [pc, #352]	; 102cf0e4 <proc_reserved1+0x1b4>
102cef80:	e1a06004 	mov	r6, r4
102cef84:	e5840c30 	str	r0, [r4, #3120]	; 0xc30
102cef88:	e59f0158 	ldr	r0, [pc, #344]	; 102cf0e8 <proc_reserved1+0x1b8>
102cef8c:	e12fff33 	blx	r3
102cef90:	e59f1154 	ldr	r1, [pc, #340]	; 102cf0ec <proc_reserved1+0x1bc>
102cef94:	e3a02000 	mov	r2, #0
102cef98:	e59f3150 	ldr	r3, [pc, #336]	; 102cf0f0 <proc_reserved1+0x1c0>
102cef9c:	e5840004 	str	r0, [r4, #4]
102cefa0:	e5950000 	ldr	r0, [r5]
102cefa4:	e12fff33 	blx	r3
102cefa8:	e3a00000 	mov	r0, #0
102cefac:	e59f1140 	ldr	r1, [pc, #320]	; 102cf0f4 <proc_reserved1+0x1c4>
102cefb0:	e1a02000 	mov	r2, r0
102cefb4:	e1a03000 	mov	r3, r0
102cefb8:	e59fc138 	ldr	ip, [pc, #312]	; 102cf0f8 <proc_reserved1+0x1c8>
102cefbc:	e12fff3c 	blx	ip
102cefc0:	e59f0134 	ldr	r0, [pc, #308]	; 102cf0fc <proc_reserved1+0x1cc>
102cefc4:	e59f3134 	ldr	r3, [pc, #308]	; 102cf100 <proc_reserved1+0x1d0>
102cefc8:	e12fff33 	blx	r3
102cefcc:	e5840810 	str	r0, [r4, #2064]	; 0x810
102cefd0:	e1a0000d 	mov	r0, sp
102cefd4:	e59f3128 	ldr	r3, [pc, #296]	; 102cf104 <proc_reserved1+0x1d4>
102cefd8:	e12fff33 	blx	r3
102cefdc:	e59d5000 	ldr	r5, [sp]
102cefe0:	e3550001 	cmp	r5, #1
102cefe4:	1afffff9 	bne	102cefd0 <proc_reserved1+0xa0>
102cefe8:	e59f0118 	ldr	r0, [pc, #280]	; 102cf108 <proc_reserved1+0x1d8>
102cefec:	e59f1118 	ldr	r1, [pc, #280]	; 102cf10c <proc_reserved1+0x1dc>
102ceff0:	e3a02004 	mov	r2, #4
102ceff4:	e59f3114 	ldr	r3, [pc, #276]	; 102cf110 <proc_reserved1+0x1e0>
102ceff8:	e12fff33 	blx	r3
102ceffc:	e2507000 	subs	r7, r0, #0
102cf000:	1a00000e 	bne	102cf040 <proc_reserved1+0x110>
102cf004:	e3a00002 	mov	r0, #2
102cf008:	e59f3104 	ldr	r3, [pc, #260]	; 102cf114 <proc_reserved1+0x1e4>
102cf00c:	e12fff33 	blx	r3
102cf010:	e5847000 	str	r7, [r4]
102cf014:	e3500000 	cmp	r0, #0
102cf018:	aa000003 	bge	102cf02c <proc_reserved1+0xfc>
102cf01c:	e59f30f4 	ldr	r3, [pc, #244]	; 102cf118 <proc_reserved1+0x1e8>
102cf020:	e12fff33 	blx	r3
102cf024:	e3e03000 	mvn	r3, #0
102cf028:	e5843000 	str	r3, [r4]
102cf02c:	e5960004 	ldr	r0, [r6, #4]
102cf030:	e3a01001 	mov	r1, #1
102cf034:	e59f30e0 	ldr	r3, [pc, #224]	; 102cf11c <proc_reserved1+0x1ec>
102cf038:	e12fff33 	blx	r3
102cf03c:	eaffffe3 	b	102cefd0 <proc_reserved1+0xa0>
102cf040:	e59f30d8 	ldr	r3, [pc, #216]	; 102cf120 <proc_reserved1+0x1f0>
102cf044:	e59f00bc 	ldr	r0, [pc, #188]	; 102cf108 <proc_reserved1+0x1d8>
102cf048:	e12fff33 	blx	r3
102cf04c:	e59f10b4 	ldr	r1, [pc, #180]	; 102cf108 <proc_reserved1+0x1d8>
102cf050:	e59f30cc 	ldr	r3, [pc, #204]	; 102cf124 <proc_reserved1+0x1f4>
102cf054:	e1a02000 	mov	r2, r0
102cf058:	e3a00002 	mov	r0, #2
102cf05c:	e12fff33 	blx	r3
102cf060:	e3500000 	cmp	r0, #0
102cf064:	aa000007 	bge	102cf088 <proc_reserved1+0x158>
102cf068:	e59f30a8 	ldr	r3, [pc, #168]	; 102cf118 <proc_reserved1+0x1e8>
102cf06c:	e12fff33 	blx	r3
102cf070:	e3e03000 	mvn	r3, #0
102cf074:	e5843000 	str	r3, [r4]
102cf078:	e5940004 	ldr	r0, [r4, #4]
102cf07c:	e1a01005 	mov	r1, r5
102cf080:	e59f3094 	ldr	r3, [pc, #148]	; 102cf11c <proc_reserved1+0x1ec>
102cf084:	e12fff33 	blx	r3
102cf088:	e59f2040 	ldr	r2, [pc, #64]	; 102cf0d0 <proc_reserved1+0x1a0>
102cf08c:	e5923004 	ldr	r3, [r2, #4]
102cf090:	e3530000 	cmp	r3, #0
102cf094:	059f308c 	ldreq	r3, [pc, #140]	; 102cf128 <proc_reserved1+0x1f8>
102cf098:	05823004 	streq	r3, [r2, #4]
102cf09c:	e5d22009 	ldrb	r2, [r2, #9]
102cf0a0:	e59f3028 	ldr	r3, [pc, #40]	; 102cf0d0 <proc_reserved1+0x1a0>
102cf0a4:	e3520001 	cmp	r2, #1
102cf0a8:	0affffc8 	beq	102cefd0 <proc_reserved1+0xa0>
102cf0ac:	e3a02001 	mov	r2, #1
102cf0b0:	e5c32009 	strb	r2, [r3, #9]
102cf0b4:	e8930003 	ldm	r3, {r0, r1}
102cf0b8:	e5d32008 	ldrb	r2, [r3, #8]
102cf0bc:	e59f3068 	ldr	r3, [pc, #104]	; 102cf12c <proc_reserved1+0x1fc>
102cf0c0:	e12fff33 	blx	r3
102cf0c4:	eaffffc1 	b	102cefd0 <proc_reserved1+0xa0>
102cf0c8:	102cebac 	.word	0x102cebac
102cf0cc:	102cff48 	.word	0x102cff48
102cf0d0:	f03d2040 	.word	0xf03d2040
102cf0d4:	102cffb8 	.word	0x102cffb8
102cf0d8:	102cfbe8 	.word	0x102cfbe8
102cf0dc:	102d232a 	.word	0x102d232a
102cf0e0:	f03d24c4 	.word	0xf03d24c4
102cf0e4:	102cfce4 	.word	0x102cfce4
102cf0e8:	102d2334 	.word	0x102d2334
102cf0ec:	102ceb60 	.word	0x102ceb60
102cf0f0:	102cfe08 	.word	0x102cfe08
102cf0f4:	00001001 	.word	0x00001001
102cf0f8:	102cfb70 	.word	0x102cfb70
102cf0fc:	00000801 	.word	0x00000801
102cf100:	102ce808 	.word	0x102ce808
102cf104:	102cfb10 	.word	0x102cfb10
102cf108:	f03d2ce1 	.word	0xf03d2ce1
102cf10c:	102d2341 	.word	0x102d2341
102cf110:	102cf728 	.word	0x102cf728
102cf114:	102d0170 	.word	0x102d0170
102cf118:	102ceb2c 	.word	0x102ceb2c
102cf11c:	102cfda0 	.word	0x102cfda0
102cf120:	102cf648 	.word	0x102cf648
102cf124:	102d0028 	.word	0x102d0028
102cf128:	0002bf20 	.word	0x0002bf20
102cf12c:	102cfe78 	.word	0x102cfe78

Disassembly of section .text.Ql_RIL_Initialize:

102cf130 <Ql_RIL_Initialize>:
102cf130:	e92d4ff8 	push	{r3, r4, r5, r6, r7, r8, r9, sl, fp, lr}
102cf134:	e59f30a4 	ldr	r3, [pc, #164]	; 102cf1e0 <Ql_RIL_Initialize+0xb0>
102cf138:	e12fff33 	blx	r3
102cf13c:	e59f40a0 	ldr	r4, [pc, #160]	; 102cf1e4 <Ql_RIL_Initialize+0xb4>
102cf140:	e3a06000 	mov	r6, #0
102cf144:	e59f709c 	ldr	r7, [pc, #156]	; 102cf1e8 <Ql_RIL_Initialize+0xb8>
102cf148:	e59fb09c 	ldr	fp, [pc, #156]	; 102cf1ec <Ql_RIL_Initialize+0xbc>
102cf14c:	e59f809c 	ldr	r8, [pc, #156]	; 102cf1f0 <Ql_RIL_Initialize+0xc0>
102cf150:	e1a09000 	mov	r9, r0
102cf154:	ea00001b 	b	102cf1c8 <Ql_RIL_Initialize+0x98>
102cf158:	e3a01000 	mov	r1, #0
102cf15c:	e3a02b01 	mov	r2, #1024	; 0x400
102cf160:	e59f008c 	ldr	r0, [pc, #140]	; 102cf1f4 <Ql_RIL_Initialize+0xc4>
102cf164:	e5c7581c 	strb	r5, [r7, #2076]	; 0x81c
102cf168:	e12fff3b 	blx	fp
102cf16c:	e594a004 	ldr	sl, [r4, #4]
102cf170:	e2866001 	add	r6, r6, #1
102cf174:	e1a0000a 	mov	r0, sl
102cf178:	e12fff38 	blx	r8
102cf17c:	e1a0100a 	mov	r1, sl
102cf180:	e59f3070 	ldr	r3, [pc, #112]	; 102cf1f8 <Ql_RIL_Initialize+0xc8>
102cf184:	e1a02000 	mov	r2, r0
102cf188:	e59f0064 	ldr	r0, [pc, #100]	; 102cf1f4 <Ql_RIL_Initialize+0xc4>
102cf18c:	e12fff33 	blx	r3
102cf190:	e5b4a004 	ldr	sl, [r4, #4]!
102cf194:	e1a0000a 	mov	r0, sl
102cf198:	e12fff38 	blx	r8
102cf19c:	e1a0100a 	mov	r1, sl
102cf1a0:	e59f3054 	ldr	r3, [pc, #84]	; 102cf1fc <Ql_RIL_Initialize+0xcc>
102cf1a4:	e1a02000 	mov	r2, r0
102cf1a8:	e3a00002 	mov	r0, #2
102cf1ac:	e12fff33 	blx	r3
102cf1b0:	e59f3048 	ldr	r3, [pc, #72]	; 102cf200 <Ql_RIL_Initialize+0xd0>
102cf1b4:	e5970004 	ldr	r0, [r7, #4]
102cf1b8:	e1a01005 	mov	r1, r5
102cf1bc:	e12fff33 	blx	r3
102cf1c0:	e3a03000 	mov	r3, #0
102cf1c4:	e5c7381c 	strb	r3, [r7, #2076]	; 0x81c
102cf1c8:	e1560009 	cmp	r6, r9
102cf1cc:	e3a05001 	mov	r5, #1
102cf1d0:	baffffe0 	blt	102cf158 <Ql_RIL_Initialize+0x28>
102cf1d4:	e59f300c 	ldr	r3, [pc, #12]	; 102cf1e8 <Ql_RIL_Initialize+0xb8>
102cf1d8:	e5c35c2c 	strb	r5, [r3, #3116]	; 0xc2c
102cf1dc:	e8bd8ff8 	pop	{r3, r4, r5, r6, r7, r8, r9, sl, fp, pc}
102cf1e0:	102cac28 	.word	0x102cac28
102cf1e4:	f03d2008 	.word	0xf03d2008
102cf1e8:	f03d24c4 	.word	0xf03d24c4
102cf1ec:	102cf798 	.word	0x102cf798
102cf1f0:	102cf648 	.word	0x102cf648
102cf1f4:	f03d2ce1 	.word	0xf03d2ce1
102cf1f8:	102cf820 	.word	0x102cf820
102cf1fc:	102d0028 	.word	0x102d0028
102cf200:	102cfd38 	.word	0x102cfd38

Disassembly of section .text.Ql_RIL_SendATCmd:

102cf204 <Ql_RIL_SendATCmd>:
102cf204:	e92d4ff8 	push	{r3, r4, r5, r6, r7, r8, r9, sl, fp, lr}
102cf208:	e1a04000 	mov	r4, r0
102cf20c:	e1a08003 	mov	r8, r3
102cf210:	e3e00000 	mvn	r0, #0
102cf214:	e59f31f4 	ldr	r3, [pc, #500]	; 102cf410 <Ql_RIL_SendATCmd+0x20c>
102cf218:	e1a07002 	mov	r7, r2
102cf21c:	e12fff33 	blx	r3
102cf220:	e59f31ec 	ldr	r3, [pc, #492]	; 102cf414 <Ql_RIL_SendATCmd+0x210>
102cf224:	e5d33c2c 	ldrb	r3, [r3, #3116]	; 0xc2c
102cf228:	e3530000 	cmp	r3, #0
102cf22c:	0a000059 	beq	102cf398 <Ql_RIL_SendATCmd+0x194>
102cf230:	e3540000 	cmp	r4, #0
102cf234:	13a03000 	movne	r3, #0
102cf238:	159f21d8 	ldrne	r2, [pc, #472]	; 102cf418 <Ql_RIL_SendATCmd+0x214>
102cf23c:	1a000001 	bne	102cf248 <Ql_RIL_SendATCmd+0x44>
102cf240:	e3e06003 	mvn	r6, #3
102cf244:	ea00006f 	b	102cf408 <Ql_RIL_SendATCmd+0x204>
102cf248:	e5d40000 	ldrb	r0, [r4]
102cf24c:	e7d31002 	ldrb	r1, [r3, r2]
102cf250:	e1500001 	cmp	r0, r1
102cf254:	0afffff9 	beq	102cf240 <Ql_RIL_SendATCmd+0x3c>
102cf258:	e2833001 	add	r3, r3, #1
102cf25c:	e3530004 	cmp	r3, #4
102cf260:	1afffff8 	bne	102cf248 <Ql_RIL_SendATCmd+0x44>
102cf264:	ea00004f 	b	102cf3a8 <Ql_RIL_SendATCmd+0x1a4>
102cf268:	e1a00004 	mov	r0, r4
102cf26c:	e59f11a8 	ldr	r1, [pc, #424]	; 102cf41c <Ql_RIL_SendATCmd+0x218>
102cf270:	e12fff35 	blx	r5
102cf274:	e59f61a4 	ldr	r6, [pc, #420]	; 102cf420 <Ql_RIL_SendATCmd+0x21c>
102cf278:	e3a05000 	mov	r5, #0
102cf27c:	e59fa1a0 	ldr	sl, [pc, #416]	; 102cf424 <Ql_RIL_SendATCmd+0x220>
102cf280:	e59f91a0 	ldr	r9, [pc, #416]	; 102cf428 <Ql_RIL_SendATCmd+0x224>
102cf284:	e3500000 	cmp	r0, #0
102cf288:	13a03000 	movne	r3, #0
102cf28c:	15c03000 	strbne	r3, [r0]
102cf290:	ea000005 	b	102cf2ac <Ql_RIL_SendATCmd+0xa8>
102cf294:	e1a00004 	mov	r0, r4
102cf298:	e79a1105 	ldr	r1, [sl, r5, lsl #2]
102cf29c:	e12fff39 	blx	r9
102cf2a0:	e3500000 	cmp	r0, #0
102cf2a4:	1a00003d 	bne	102cf3a0 <Ql_RIL_SendATCmd+0x19c>
102cf2a8:	e2855001 	add	r5, r5, #1
102cf2ac:	e12fff36 	blx	r6
102cf2b0:	e1550000 	cmp	r5, r0
102cf2b4:	3afffff6 	bcc	102cf294 <Ql_RIL_SendATCmd+0x90>
102cf2b8:	ea000042 	b	102cf3c8 <Ql_RIL_SendATCmd+0x1c4>
102cf2bc:	e1a00004 	mov	r0, r4
102cf2c0:	e59f1164 	ldr	r1, [pc, #356]	; 102cf42c <Ql_RIL_SendATCmd+0x228>
102cf2c4:	e59f3164 	ldr	r3, [pc, #356]	; 102cf430 <Ql_RIL_SendATCmd+0x22c>
102cf2c8:	e12fff33 	blx	r3
102cf2cc:	e59f9160 	ldr	r9, [pc, #352]	; 102cf434 <Ql_RIL_SendATCmd+0x230>
102cf2d0:	e59fb160 	ldr	fp, [pc, #352]	; 102cf438 <Ql_RIL_SendATCmd+0x234>
102cf2d4:	e3500000 	cmp	r0, #0
102cf2d8:	0a00000b 	beq	102cf30c <Ql_RIL_SendATCmd+0x108>
102cf2dc:	e0646000 	rsb	r6, r4, r0
102cf2e0:	e1a01004 	mov	r1, r4
102cf2e4:	e1a02006 	mov	r2, r6
102cf2e8:	e1a00005 	mov	r0, r5
102cf2ec:	e12fff39 	blx	r9
102cf2f0:	e1a00005 	mov	r0, r5
102cf2f4:	e12fff3b 	blx	fp
102cf2f8:	e0850006 	add	r0, r5, r6
102cf2fc:	e0841006 	add	r1, r4, r6
102cf300:	e066200a 	rsb	r2, r6, sl
102cf304:	e12fff39 	blx	r9
102cf308:	ea000005 	b	102cf324 <Ql_RIL_SendATCmd+0x120>
102cf30c:	e1a00005 	mov	r0, r5
102cf310:	e1a01004 	mov	r1, r4
102cf314:	e1a0200a 	mov	r2, sl
102cf318:	e12fff39 	blx	r9
102cf31c:	e1a00005 	mov	r0, r5
102cf320:	e12fff3b 	blx	fp
102cf324:	e59f40e8 	ldr	r4, [pc, #232]	; 102cf414 <Ql_RIL_SendATCmd+0x210>
102cf328:	e3a0300d 	mov	r3, #13
102cf32c:	e084a00a 	add	sl, r4, sl
102cf330:	e5ca381d 	strb	r3, [sl, #2077]	; 0x81d
102cf334:	e59f3100 	ldr	r3, [pc, #256]	; 102cf43c <Ql_RIL_SendATCmd+0x238>
102cf338:	e3a05000 	mov	r5, #0
102cf33c:	e3a06001 	mov	r6, #1
102cf340:	e59d2028 	ldr	r2, [sp, #40]	; 0x28
102cf344:	e5832004 	str	r2, [r3, #4]
102cf348:	e1a01006 	mov	r1, r6
102cf34c:	e1a02005 	mov	r2, r5
102cf350:	e59fc0e8 	ldr	ip, [pc, #232]	; 102cf440 <Ql_RIL_SendATCmd+0x23c>
102cf354:	e593000c 	ldr	r0, [r3, #12]
102cf358:	e1a03005 	mov	r3, r5
102cf35c:	e5c4681c 	strb	r6, [r4, #2076]	; 0x81c
102cf360:	e5ca581e 	strb	r5, [sl, #2078]	; 0x81e
102cf364:	e5848c24 	str	r8, [r4, #3108]	; 0xc24
102cf368:	e5847c20 	str	r7, [r4, #3104]	; 0xc20
102cf36c:	e12fff3c 	blx	ip
102cf370:	e1a01006 	mov	r1, r6
102cf374:	e59f30c8 	ldr	r3, [pc, #200]	; 102cf444 <Ql_RIL_SendATCmd+0x240>
102cf378:	e5940004 	ldr	r0, [r4, #4]
102cf37c:	e12fff33 	blx	r3
102cf380:	e5940c30 	ldr	r0, [r4, #3120]	; 0xc30
102cf384:	e59f30bc 	ldr	r3, [pc, #188]	; 102cf448 <Ql_RIL_SendATCmd+0x244>
102cf388:	e5946000 	ldr	r6, [r4]
102cf38c:	e12fff33 	blx	r3
102cf390:	e5c4581c 	strb	r5, [r4, #2076]	; 0x81c
102cf394:	ea00001b 	b	102cf408 <Ql_RIL_SendATCmd+0x204>
102cf398:	e3e06004 	mvn	r6, #4
102cf39c:	ea000019 	b	102cf408 <Ql_RIL_SendATCmd+0x204>
102cf3a0:	e59f60a4 	ldr	r6, [pc, #164]	; 102cf44c <Ql_RIL_SendATCmd+0x248>
102cf3a4:	ea000017 	b	102cf408 <Ql_RIL_SendATCmd+0x204>
102cf3a8:	e1a00004 	mov	r0, r4
102cf3ac:	e59f109c 	ldr	r1, [pc, #156]	; 102cf450 <Ql_RIL_SendATCmd+0x24c>
102cf3b0:	e59f5078 	ldr	r5, [pc, #120]	; 102cf430 <Ql_RIL_SendATCmd+0x22c>
102cf3b4:	e12fff35 	blx	r5
102cf3b8:	e3500000 	cmp	r0, #0
102cf3bc:	13a03000 	movne	r3, #0
102cf3c0:	15c03000 	strbne	r3, [r0]
102cf3c4:	eaffffa7 	b	102cf268 <Ql_RIL_SendATCmd+0x64>
102cf3c8:	e59f3044 	ldr	r3, [pc, #68]	; 102cf414 <Ql_RIL_SendATCmd+0x210>
102cf3cc:	e59f5080 	ldr	r5, [pc, #128]	; 102cf454 <Ql_RIL_SendATCmd+0x250>
102cf3d0:	e5930c30 	ldr	r0, [r3, #3120]	; 0xc30
102cf3d4:	e59f307c 	ldr	r3, [pc, #124]	; 102cf458 <Ql_RIL_SendATCmd+0x254>
102cf3d8:	e12fff33 	blx	r3
102cf3dc:	e3a01000 	mov	r1, #0
102cf3e0:	e3a02b01 	mov	r2, #1024	; 0x400
102cf3e4:	e59f3070 	ldr	r3, [pc, #112]	; 102cf45c <Ql_RIL_SendATCmd+0x258>
102cf3e8:	e1a00005 	mov	r0, r5
102cf3ec:	e12fff33 	blx	r3
102cf3f0:	e1a00004 	mov	r0, r4
102cf3f4:	e59f3064 	ldr	r3, [pc, #100]	; 102cf460 <Ql_RIL_SendATCmd+0x25c>
102cf3f8:	e12fff33 	blx	r3
102cf3fc:	e250a000 	subs	sl, r0, #0
102cf400:	1affffad 	bne	102cf2bc <Ql_RIL_SendATCmd+0xb8>
102cf404:	eaffff8d 	b	102cf240 <Ql_RIL_SendATCmd+0x3c>
102cf408:	e1a00006 	mov	r0, r6
102cf40c:	e8bd8ff8 	pop	{r3, r4, r5, r6, r7, r8, r9, sl, fp, pc}
102cf410:	102c707c 	.word	0x102c707c
102cf414:	f03d24c4 	.word	0xf03d24c4
102cf418:	102d0fc2 	.word	0x102d0fc2
102cf41c:	102d2323 	.word	0x102d2323
102cf420:	102cac30 	.word	0x102cac30
102cf424:	f03d2004 	.word	0xf03d2004
102cf428:	102ccb6c 	.word	0x102ccb6c
102cf42c:	102d2346 	.word	0x102d2346
102cf430:	102cf8a8 	.word	0x102cf8a8
102cf434:	102cf820 	.word	0x102cf820
102cf438:	102ccbbc 	.word	0x102ccbbc
102cf43c:	f03d2040 	.word	0xf03d2040
102cf440:	102cfb70 	.word	0x102cfb70
102cf444:	102cfd38 	.word	0x102cfd38
102cf448:	102cfc90 	.word	0x102cfc90
102cf44c:	ffffd8f0 	.word	0xffffd8f0
102cf450:	102d2344 	.word	0x102d2344
102cf454:	f03d2ce1 	.word	0xf03d2ce1
102cf458:	102cfc3c 	.word	0x102cfc3c
102cf45c:	102cf798 	.word	0x102cf798
102cf460:	102cf648 	.word	0x102cf648

Disassembly of section .text.Ql_RIL_WriteDataToCore:

102cf464 <Ql_RIL_WriteDataToCore>:
102cf464:	e92d4008 	push	{r3, lr}
102cf468:	e1a03000 	mov	r3, r0
102cf46c:	e1a02001 	mov	r2, r1
102cf470:	e3a00002 	mov	r0, #2
102cf474:	e1a01003 	mov	r1, r3
102cf478:	e59f3004 	ldr	r3, [pc, #4]	; 102cf484 <Ql_RIL_WriteDataToCore+0x20>
102cf47c:	e12fff33 	blx	r3
102cf480:	e8bd8008 	pop	{r3, pc}
102cf484:	102d0028 	.word	0x102d0028

Disassembly of section .text.Ql_atof:

102cf488 <Ql_atof>:
102cf488:	e92d4037 	push	{r0, r1, r2, r4, r5, lr}
102cf48c:	e59f4074 	ldr	r4, [pc, #116]	; 102cf508 <Ql_atof+0x80>
102cf490:	e1a05000 	mov	r5, r0
102cf494:	e5943008 	ldr	r3, [r4, #8]
102cf498:	e3530000 	cmp	r3, #0
102cf49c:	1a000013 	bne	102cf4f0 <Ql_atof+0x68>
102cf4a0:	e59f1064 	ldr	r1, [pc, #100]	; 102cf50c <Ql_atof+0x84>
102cf4a4:	e3a02008 	mov	r2, #8
102cf4a8:	e59f3060 	ldr	r3, [pc, #96]	; 102cf510 <Ql_atof+0x88>
102cf4ac:	e1a0000d 	mov	r0, sp
102cf4b0:	e12fff33 	blx	r3
102cf4b4:	e59f3058 	ldr	r3, [pc, #88]	; 102cf514 <Ql_atof+0x8c>
102cf4b8:	e1a0000d 	mov	r0, sp
102cf4bc:	e5933000 	ldr	r3, [r3]
102cf4c0:	e12fff33 	blx	r3
102cf4c4:	e3500000 	cmp	r0, #0
102cf4c8:	15840008 	strne	r0, [r4, #8]
102cf4cc:	1a000007 	bne	102cf4f0 <Ql_atof+0x68>
102cf4d0:	e59f3040 	ldr	r3, [pc, #64]	; 102cf518 <Ql_atof+0x90>
102cf4d4:	e1a0100d 	mov	r1, sp
102cf4d8:	e5933000 	ldr	r3, [r3]
102cf4dc:	e59f0038 	ldr	r0, [pc, #56]	; 102cf51c <Ql_atof+0x94>
102cf4e0:	e12fff33 	blx	r3
102cf4e4:	e3a00000 	mov	r0, #0
102cf4e8:	e3a01000 	mov	r1, #0
102cf4ec:	ea000003 	b	102cf500 <Ql_atof+0x78>
102cf4f0:	e59f3010 	ldr	r3, [pc, #16]	; 102cf508 <Ql_atof+0x80>
102cf4f4:	e1a00005 	mov	r0, r5
102cf4f8:	e5933008 	ldr	r3, [r3, #8]
102cf4fc:	e12fff33 	blx	r3
102cf500:	e28dd00c 	add	sp, sp, #12
102cf504:	e8bd8030 	pop	{r4, r5, pc}
102cf508:	f03d30f8 	.word	0xf03d30f8
102cf50c:	102d235b 	.word	0x102d235b
102cf510:	102ce4a5 	.word	0x102ce4a5
102cf514:	f03d2490 	.word	0xf03d2490
102cf518:	f03d5b04 	.word	0xf03d5b04
102cf51c:	f03d2024 	.word	0xf03d2024

Disassembly of section .text.Ql_strcpy:

102cf520 <Ql_strcpy>:
102cf520:	e92d40f0 	push	{r4, r5, r6, r7, lr}
102cf524:	e59f407c 	ldr	r4, [pc, #124]	; 102cf5a8 <Ql_strcpy+0x88>
102cf528:	e24dd014 	sub	sp, sp, #20
102cf52c:	e594300c 	ldr	r3, [r4, #12]
102cf530:	e1a07000 	mov	r7, r0
102cf534:	e3530000 	cmp	r3, #0
102cf538:	e1a06001 	mov	r6, r1
102cf53c:	1a000012 	bne	102cf58c <Ql_strcpy+0x6c>
102cf540:	e59f1064 	ldr	r1, [pc, #100]	; 102cf5ac <Ql_strcpy+0x8c>
102cf544:	e3a0200a 	mov	r2, #10
102cf548:	e59f3060 	ldr	r3, [pc, #96]	; 102cf5b0 <Ql_strcpy+0x90>
102cf54c:	e28d0004 	add	r0, sp, #4
102cf550:	e12fff33 	blx	r3
102cf554:	e59f3058 	ldr	r3, [pc, #88]	; 102cf5b4 <Ql_strcpy+0x94>
102cf558:	e28d0004 	add	r0, sp, #4
102cf55c:	e5933000 	ldr	r3, [r3]
102cf560:	e12fff33 	blx	r3
102cf564:	e2505000 	subs	r5, r0, #0
102cf568:	1584500c 	strne	r5, [r4, #12]
102cf56c:	1a000006 	bne	102cf58c <Ql_strcpy+0x6c>
102cf570:	e59f3040 	ldr	r3, [pc, #64]	; 102cf5b8 <Ql_strcpy+0x98>
102cf574:	e59f0040 	ldr	r0, [pc, #64]	; 102cf5bc <Ql_strcpy+0x9c>
102cf578:	e5933000 	ldr	r3, [r3]
102cf57c:	e28d1004 	add	r1, sp, #4
102cf580:	e12fff33 	blx	r3
102cf584:	e1a00005 	mov	r0, r5
102cf588:	ea000004 	b	102cf5a0 <Ql_strcpy+0x80>
102cf58c:	e59f3014 	ldr	r3, [pc, #20]	; 102cf5a8 <Ql_strcpy+0x88>
102cf590:	e1a00007 	mov	r0, r7
102cf594:	e593300c 	ldr	r3, [r3, #12]
102cf598:	e1a01006 	mov	r1, r6
102cf59c:	e12fff33 	blx	r3
102cf5a0:	e28dd014 	add	sp, sp, #20
102cf5a4:	e8bd80f0 	pop	{r4, r5, r6, r7, pc}
102cf5a8:	f03d30f8 	.word	0xf03d30f8
102cf5ac:	102d2363 	.word	0x102d2363
102cf5b0:	102ce4a5 	.word	0x102ce4a5
102cf5b4:	f03d2490 	.word	0xf03d2490
102cf5b8:	f03d5b04 	.word	0xf03d5b04
102cf5bc:	f03d2024 	.word	0xf03d2024

Disassembly of section .text.Ql_strncpy:

102cf5c0 <Ql_strncpy>:
102cf5c0:	e92d41f0 	push	{r4, r5, r6, r7, r8, lr}
102cf5c4:	e59f5068 	ldr	r5, [pc, #104]	; 102cf634 <Ql_strncpy+0x74>
102cf5c8:	e1a06000 	mov	r6, r0
102cf5cc:	e5953010 	ldr	r3, [r5, #16]
102cf5d0:	e1a08001 	mov	r8, r1
102cf5d4:	e3530000 	cmp	r3, #0
102cf5d8:	e1a07002 	mov	r7, r2
102cf5dc:	1a00000d 	bne	102cf618 <Ql_strncpy+0x58>
102cf5e0:	e59f3050 	ldr	r3, [pc, #80]	; 102cf638 <Ql_strncpy+0x78>
102cf5e4:	e59f0050 	ldr	r0, [pc, #80]	; 102cf63c <Ql_strncpy+0x7c>
102cf5e8:	e5933000 	ldr	r3, [r3]
102cf5ec:	e12fff33 	blx	r3
102cf5f0:	e2504000 	subs	r4, r0, #0
102cf5f4:	15854010 	strne	r4, [r5, #16]
102cf5f8:	1a000006 	bne	102cf618 <Ql_strncpy+0x58>
102cf5fc:	e59f303c 	ldr	r3, [pc, #60]	; 102cf640 <Ql_strncpy+0x80>
102cf600:	e59f1034 	ldr	r1, [pc, #52]	; 102cf63c <Ql_strncpy+0x7c>
102cf604:	e5933000 	ldr	r3, [r3]
102cf608:	e59f0034 	ldr	r0, [pc, #52]	; 102cf644 <Ql_strncpy+0x84>
102cf60c:	e12fff33 	blx	r3
102cf610:	e1a00004 	mov	r0, r4
102cf614:	e8bd81f0 	pop	{r4, r5, r6, r7, r8, pc}
102cf618:	e59f3014 	ldr	r3, [pc, #20]	; 102cf634 <Ql_strncpy+0x74>
102cf61c:	e1a00006 	mov	r0, r6
102cf620:	e5933010 	ldr	r3, [r3, #16]
102cf624:	e1a01008 	mov	r1, r8
102cf628:	e1a02007 	mov	r2, r7
102cf62c:	e12fff33 	blx	r3
102cf630:	e8bd81f0 	pop	{r4, r5, r6, r7, r8, pc}
102cf634:	f03d30f8 	.word	0xf03d30f8
102cf638:	f03d2490 	.word	0xf03d2490
102cf63c:	102d236d 	.word	0x102d236d
102cf640:	f03d5b04 	.word	0xf03d5b04
102cf644:	f03d2024 	.word	0xf03d2024

Disassembly of section .text.Ql_strlen:

102cf648 <Ql_strlen>:
102cf648:	e92d4070 	push	{r4, r5, r6, lr}
102cf64c:	e59f5058 	ldr	r5, [pc, #88]	; 102cf6ac <Ql_strlen+0x64>
102cf650:	e1a06000 	mov	r6, r0
102cf654:	e595301c 	ldr	r3, [r5, #28]
102cf658:	e3530000 	cmp	r3, #0
102cf65c:	1a00000d 	bne	102cf698 <Ql_strlen+0x50>
102cf660:	e59f3048 	ldr	r3, [pc, #72]	; 102cf6b0 <Ql_strlen+0x68>
102cf664:	e59f0048 	ldr	r0, [pc, #72]	; 102cf6b4 <Ql_strlen+0x6c>
102cf668:	e5933000 	ldr	r3, [r3]
102cf66c:	e12fff33 	blx	r3
102cf670:	e2504000 	subs	r4, r0, #0
102cf674:	1585401c 	strne	r4, [r5, #28]
102cf678:	1a000006 	bne	102cf698 <Ql_strlen+0x50>
102cf67c:	e59f3034 	ldr	r3, [pc, #52]	; 102cf6b8 <Ql_strlen+0x70>
102cf680:	e59f102c 	ldr	r1, [pc, #44]	; 102cf6b4 <Ql_strlen+0x6c>
102cf684:	e5933000 	ldr	r3, [r3]
102cf688:	e59f002c 	ldr	r0, [pc, #44]	; 102cf6bc <Ql_strlen+0x74>
102cf68c:	e12fff33 	blx	r3
102cf690:	e1a00004 	mov	r0, r4
102cf694:	e8bd8070 	pop	{r4, r5, r6, pc}
102cf698:	e59f300c 	ldr	r3, [pc, #12]	; 102cf6ac <Ql_strlen+0x64>
102cf69c:	e1a00006 	mov	r0, r6
102cf6a0:	e593301c 	ldr	r3, [r3, #28]
102cf6a4:	e12fff33 	blx	r3
102cf6a8:	e8bd8070 	pop	{r4, r5, r6, pc}
102cf6ac:	f03d30f8 	.word	0xf03d30f8
102cf6b0:	f03d2490 	.word	0xf03d2490
102cf6b4:	102d238d 	.word	0x102d238d
102cf6b8:	f03d5b04 	.word	0xf03d5b04
102cf6bc:	f03d2024 	.word	0xf03d2024

Disassembly of section .text.Ql_strcmp:

102cf6c0 <Ql_strcmp>:
102cf6c0:	e92d4070 	push	{r4, r5, r6, lr}
102cf6c4:	e59f404c 	ldr	r4, [pc, #76]	; 102cf718 <Ql_strcmp+0x58>
102cf6c8:	e1a05000 	mov	r5, r0
102cf6cc:	e5943020 	ldr	r3, [r4, #32]
102cf6d0:	e1a06001 	mov	r6, r1
102cf6d4:	e3530000 	cmp	r3, #0
102cf6d8:	1a000006 	bne	102cf6f8 <Ql_strcmp+0x38>
102cf6dc:	e59f3038 	ldr	r3, [pc, #56]	; 102cf71c <Ql_strcmp+0x5c>
102cf6e0:	e59f0038 	ldr	r0, [pc, #56]	; 102cf720 <Ql_strcmp+0x60>
102cf6e4:	e5933000 	ldr	r3, [r3]
102cf6e8:	e12fff33 	blx	r3
102cf6ec:	e3500000 	cmp	r0, #0
102cf6f0:	0a000006 	beq	102cf710 <Ql_strcmp+0x50>
102cf6f4:	e5840020 	str	r0, [r4, #32]
102cf6f8:	e59f3018 	ldr	r3, [pc, #24]	; 102cf718 <Ql_strcmp+0x58>
102cf6fc:	e1a00005 	mov	r0, r5
102cf700:	e5933020 	ldr	r3, [r3, #32]
102cf704:	e1a01006 	mov	r1, r6
102cf708:	e12fff33 	blx	r3
102cf70c:	e8bd8070 	pop	{r4, r5, r6, pc}
102cf710:	e59f000c 	ldr	r0, [pc, #12]	; 102cf724 <Ql_strcmp+0x64>
102cf714:	e8bd8070 	pop	{r4, r5, r6, pc}
102cf718:	f03d30f8 	.word	0xf03d30f8
102cf71c:	f03d2490 	.word	0xf03d2490
102cf720:	102d2397 	.word	0x102d2397
102cf724:	ffffd8f0 	.word	0xffffd8f0

Disassembly of section .text.Ql_strncmp:

102cf728 <Ql_strncmp>:
102cf728:	e92d40f8 	push	{r3, r4, r5, r6, r7, lr}
102cf72c:	e59f4054 	ldr	r4, [pc, #84]	; 102cf788 <Ql_strncmp+0x60>
102cf730:	e1a05000 	mov	r5, r0
102cf734:	e5943024 	ldr	r3, [r4, #36]	; 0x24
102cf738:	e1a07001 	mov	r7, r1
102cf73c:	e3530000 	cmp	r3, #0
102cf740:	e1a06002 	mov	r6, r2
102cf744:	1a000006 	bne	102cf764 <Ql_strncmp+0x3c>
102cf748:	e59f303c 	ldr	r3, [pc, #60]	; 102cf78c <Ql_strncmp+0x64>
102cf74c:	e59f003c 	ldr	r0, [pc, #60]	; 102cf790 <Ql_strncmp+0x68>
102cf750:	e5933000 	ldr	r3, [r3]
102cf754:	e12fff33 	blx	r3
102cf758:	e3500000 	cmp	r0, #0
102cf75c:	0a000007 	beq	102cf780 <Ql_strncmp+0x58>
102cf760:	e5840024 	str	r0, [r4, #36]	; 0x24
102cf764:	e59f301c 	ldr	r3, [pc, #28]	; 102cf788 <Ql_strncmp+0x60>
102cf768:	e1a00005 	mov	r0, r5
102cf76c:	e5933024 	ldr	r3, [r3, #36]	; 0x24
102cf770:	e1a01007 	mov	r1, r7
102cf774:	e1a02006 	mov	r2, r6
102cf778:	e12fff33 	blx	r3
102cf77c:	e8bd80f8 	pop	{r3, r4, r5, r6, r7, pc}
102cf780:	e59f000c 	ldr	r0, [pc, #12]	; 102cf794 <Ql_strncmp+0x6c>
102cf784:	e8bd80f8 	pop	{r3, r4, r5, r6, r7, pc}
102cf788:	f03d30f8 	.word	0xf03d30f8
102cf78c:	f03d2490 	.word	0xf03d2490
102cf790:	102d23a1 	.word	0x102d23a1
102cf794:	ffffd8f0 	.word	0xffffd8f0

Disassembly of section .text.Ql_memset:

102cf798 <Ql_memset>:
102cf798:	e92d41f0 	push	{r4, r5, r6, r7, r8, lr}
102cf79c:	e59f5068 	ldr	r5, [pc, #104]	; 102cf80c <Ql_memset+0x74>
102cf7a0:	e1a06000 	mov	r6, r0
102cf7a4:	e5953028 	ldr	r3, [r5, #40]	; 0x28
102cf7a8:	e1a08001 	mov	r8, r1
102cf7ac:	e3530000 	cmp	r3, #0
102cf7b0:	e1a07002 	mov	r7, r2
102cf7b4:	1a00000d 	bne	102cf7f0 <Ql_memset+0x58>
102cf7b8:	e59f3050 	ldr	r3, [pc, #80]	; 102cf810 <Ql_memset+0x78>
102cf7bc:	e59f0050 	ldr	r0, [pc, #80]	; 102cf814 <Ql_memset+0x7c>
102cf7c0:	e5933000 	ldr	r3, [r3]
102cf7c4:	e12fff33 	blx	r3
102cf7c8:	e2504000 	subs	r4, r0, #0
102cf7cc:	15854028 	strne	r4, [r5, #40]	; 0x28
102cf7d0:	1a000006 	bne	102cf7f0 <Ql_memset+0x58>
102cf7d4:	e59f303c 	ldr	r3, [pc, #60]	; 102cf818 <Ql_memset+0x80>
102cf7d8:	e59f1034 	ldr	r1, [pc, #52]	; 102cf814 <Ql_memset+0x7c>
102cf7dc:	e5933000 	ldr	r3, [r3]
102cf7e0:	e59f0034 	ldr	r0, [pc, #52]	; 102cf81c <Ql_memset+0x84>
102cf7e4:	e12fff33 	blx	r3
102cf7e8:	e1a00004 	mov	r0, r4
102cf7ec:	e8bd81f0 	pop	{r4, r5, r6, r7, r8, pc}
102cf7f0:	e59f3014 	ldr	r3, [pc, #20]	; 102cf80c <Ql_memset+0x74>
102cf7f4:	e1a00006 	mov	r0, r6
102cf7f8:	e5933028 	ldr	r3, [r3, #40]	; 0x28
102cf7fc:	e1a01008 	mov	r1, r8
102cf800:	e1a02007 	mov	r2, r7
102cf804:	e12fff33 	blx	r3
102cf808:	e8bd81f0 	pop	{r4, r5, r6, r7, r8, pc}
102cf80c:	f03d30f8 	.word	0xf03d30f8
102cf810:	f03d2490 	.word	0xf03d2490
102cf814:	102d23ac 	.word	0x102d23ac
102cf818:	f03d5b04 	.word	0xf03d5b04
102cf81c:	f03d2024 	.word	0xf03d2024

Disassembly of section .text.Ql_memcpy:

102cf820 <Ql_memcpy>:
102cf820:	e92d41f0 	push	{r4, r5, r6, r7, r8, lr}
102cf824:	e59f5068 	ldr	r5, [pc, #104]	; 102cf894 <Ql_memcpy+0x74>
102cf828:	e1a06000 	mov	r6, r0
102cf82c:	e595302c 	ldr	r3, [r5, #44]	; 0x2c
102cf830:	e1a08001 	mov	r8, r1
102cf834:	e3530000 	cmp	r3, #0
102cf838:	e1a07002 	mov	r7, r2
102cf83c:	1a00000d 	bne	102cf878 <Ql_memcpy+0x58>
102cf840:	e59f3050 	ldr	r3, [pc, #80]	; 102cf898 <Ql_memcpy+0x78>
102cf844:	e59f0050 	ldr	r0, [pc, #80]	; 102cf89c <Ql_memcpy+0x7c>
102cf848:	e5933000 	ldr	r3, [r3]
102cf84c:	e12fff33 	blx	r3
102cf850:	e2504000 	subs	r4, r0, #0
102cf854:	1585402c 	strne	r4, [r5, #44]	; 0x2c
102cf858:	1a000006 	bne	102cf878 <Ql_memcpy+0x58>
102cf85c:	e59f303c 	ldr	r3, [pc, #60]	; 102cf8a0 <Ql_memcpy+0x80>
102cf860:	e59f1034 	ldr	r1, [pc, #52]	; 102cf89c <Ql_memcpy+0x7c>
102cf864:	e5933000 	ldr	r3, [r3]
102cf868:	e59f0034 	ldr	r0, [pc, #52]	; 102cf8a4 <Ql_memcpy+0x84>
102cf86c:	e12fff33 	blx	r3
102cf870:	e1a00004 	mov	r0, r4
102cf874:	e8bd81f0 	pop	{r4, r5, r6, r7, r8, pc}
102cf878:	e59f3014 	ldr	r3, [pc, #20]	; 102cf894 <Ql_memcpy+0x74>
102cf87c:	e1a00006 	mov	r0, r6
102cf880:	e593302c 	ldr	r3, [r3, #44]	; 0x2c
102cf884:	e1a01008 	mov	r1, r8
102cf888:	e1a02007 	mov	r2, r7
102cf88c:	e12fff33 	blx	r3
102cf890:	e8bd81f0 	pop	{r4, r5, r6, r7, r8, pc}
102cf894:	f03d30f8 	.word	0xf03d30f8
102cf898:	f03d2490 	.word	0xf03d2490
102cf89c:	102d23b6 	.word	0x102d23b6
102cf8a0:	f03d5b04 	.word	0xf03d5b04
102cf8a4:	f03d2024 	.word	0xf03d2024

Disassembly of section .text.Ql_strstr:

102cf8a8 <Ql_strstr>:
102cf8a8:	e92d40f8 	push	{r3, r4, r5, r6, r7, lr}
102cf8ac:	e59f5060 	ldr	r5, [pc, #96]	; 102cf914 <Ql_strstr+0x6c>
102cf8b0:	e1a06000 	mov	r6, r0
102cf8b4:	e5953038 	ldr	r3, [r5, #56]	; 0x38
102cf8b8:	e1a07001 	mov	r7, r1
102cf8bc:	e3530000 	cmp	r3, #0
102cf8c0:	1a00000d 	bne	102cf8fc <Ql_strstr+0x54>
102cf8c4:	e59f304c 	ldr	r3, [pc, #76]	; 102cf918 <Ql_strstr+0x70>
102cf8c8:	e59f004c 	ldr	r0, [pc, #76]	; 102cf91c <Ql_strstr+0x74>
102cf8cc:	e5933000 	ldr	r3, [r3]
102cf8d0:	e12fff33 	blx	r3
102cf8d4:	e2504000 	subs	r4, r0, #0
102cf8d8:	15854038 	strne	r4, [r5, #56]	; 0x38
102cf8dc:	1a000006 	bne	102cf8fc <Ql_strstr+0x54>
102cf8e0:	e59f3038 	ldr	r3, [pc, #56]	; 102cf920 <Ql_strstr+0x78>
102cf8e4:	e59f1030 	ldr	r1, [pc, #48]	; 102cf91c <Ql_strstr+0x74>
102cf8e8:	e5933000 	ldr	r3, [r3]
102cf8ec:	e59f0030 	ldr	r0, [pc, #48]	; 102cf924 <Ql_strstr+0x7c>
102cf8f0:	e12fff33 	blx	r3
102cf8f4:	e1a00004 	mov	r0, r4
102cf8f8:	e8bd80f8 	pop	{r3, r4, r5, r6, r7, pc}
102cf8fc:	e59f3010 	ldr	r3, [pc, #16]	; 102cf914 <Ql_strstr+0x6c>
102cf900:	e1a00006 	mov	r0, r6
102cf904:	e5933038 	ldr	r3, [r3, #56]	; 0x38
102cf908:	e1a01007 	mov	r1, r7
102cf90c:	e12fff33 	blx	r3
102cf910:	e8bd80f8 	pop	{r3, r4, r5, r6, r7, pc}
102cf914:	f03d30f8 	.word	0xf03d30f8
102cf918:	f03d2490 	.word	0xf03d2490
102cf91c:	102d23d5 	.word	0x102d23d5
102cf920:	f03d5b04 	.word	0xf03d5b04
102cf924:	f03d2024 	.word	0xf03d2024

Disassembly of section .text.Ql_toupper:

102cf928 <Ql_toupper>:
102cf928:	e2400020 	sub	r0, r0, #32
102cf92c:	e12fff1e 	bx	lr

Disassembly of section .text.Ql_atoi:

102cf930 <Ql_atoi>:
102cf930:	e92d4010 	push	{r4, lr}
102cf934:	e1a02000 	mov	r2, r0
102cf938:	e5d23000 	ldrb	r3, [r2]
102cf93c:	e2800001 	add	r0, r0, #1
102cf940:	e3530020 	cmp	r3, #32
102cf944:	13530009 	cmpne	r3, #9
102cf948:	0afffff9 	beq	102cf934 <Ql_atoi+0x4>
102cf94c:	e353000a 	cmp	r3, #10
102cf950:	1353000c 	cmpne	r3, #12
102cf954:	0afffff6 	beq	102cf934 <Ql_atoi+0x4>
102cf958:	e3530008 	cmp	r3, #8
102cf95c:	1353000d 	cmpne	r3, #13
102cf960:	0afffff3 	beq	102cf934 <Ql_atoi+0x4>
102cf964:	e253102d 	subs	r1, r3, #45	; 0x2d
102cf968:	e271c000 	rsbs	ip, r1, #0
102cf96c:	e0bcc001 	adcs	ip, ip, r1
102cf970:	e353002d 	cmp	r3, #45	; 0x2d
102cf974:	1353002b 	cmpne	r3, #43	; 0x2b
102cf978:	11a02000 	movne	r2, r0
102cf97c:	05d23001 	ldrbeq	r3, [r2, #1]
102cf980:	e3a00000 	mov	r0, #0
102cf984:	02822002 	addeq	r2, r2, #2
102cf988:	e3a0100a 	mov	r1, #10
102cf98c:	e2433030 	sub	r3, r3, #48	; 0x30
102cf990:	e20340ff 	and	r4, r3, #255	; 0xff
102cf994:	e3540009 	cmp	r4, #9
102cf998:	9a000002 	bls	102cf9a8 <Ql_atoi+0x78>
102cf99c:	e35c0000 	cmp	ip, #0
102cf9a0:	12600000 	rsbne	r0, r0, #0
102cf9a4:	e8bd8010 	pop	{r4, pc}
102cf9a8:	e0203091 	mla	r0, r1, r0, r3
102cf9ac:	e4d23001 	ldrb	r3, [r2], #1
102cf9b0:	eafffff5 	b	102cf98c <Ql_atoi+0x5c>

Disassembly of section .text.Ql_Sleep:

102cf9b4 <Ql_Sleep>:
102cf9b4:	e92d4038 	push	{r3, r4, r5, lr}
102cf9b8:	e59f4054 	ldr	r4, [pc, #84]	; 102cfa14 <Ql_Sleep+0x60>
102cf9bc:	e1a05000 	mov	r5, r0
102cf9c0:	e5943000 	ldr	r3, [r4]
102cf9c4:	e3530000 	cmp	r3, #0
102cf9c8:	1a00000c 	bne	102cfa00 <Ql_Sleep+0x4c>
102cf9cc:	e59f3044 	ldr	r3, [pc, #68]	; 102cfa18 <Ql_Sleep+0x64>
102cf9d0:	e59f0044 	ldr	r0, [pc, #68]	; 102cfa1c <Ql_Sleep+0x68>
102cf9d4:	e5933000 	ldr	r3, [r3]
102cf9d8:	e12fff33 	blx	r3
102cf9dc:	e3500000 	cmp	r0, #0
102cf9e0:	15840000 	strne	r0, [r4]
102cf9e4:	1a000005 	bne	102cfa00 <Ql_Sleep+0x4c>
102cf9e8:	e59f3030 	ldr	r3, [pc, #48]	; 102cfa20 <Ql_Sleep+0x6c>
102cf9ec:	e59f1028 	ldr	r1, [pc, #40]	; 102cfa1c <Ql_Sleep+0x68>
102cf9f0:	e5933000 	ldr	r3, [r3]
102cf9f4:	e59f0028 	ldr	r0, [pc, #40]	; 102cfa24 <Ql_Sleep+0x70>
102cf9f8:	e12fff33 	blx	r3
102cf9fc:	e8bd8038 	pop	{r3, r4, r5, pc}
102cfa00:	e59f300c 	ldr	r3, [pc, #12]	; 102cfa14 <Ql_Sleep+0x60>
102cfa04:	e1a00005 	mov	r0, r5
102cfa08:	e5933000 	ldr	r3, [r3]
102cfa0c:	e12fff33 	blx	r3
102cfa10:	e8bd8038 	pop	{r3, r4, r5, pc}
102cfa14:	f03d3138 	.word	0xf03d3138
102cfa18:	f03d2490 	.word	0xf03d2490
102cfa1c:	102d23e9 	.word	0x102d23e9
102cfa20:	f03d5b04 	.word	0xf03d5b04
102cfa24:	f03d2024 	.word	0xf03d2024

Disassembly of section .text.Ql_GetMsSincePwrOn:

102cfa28 <Ql_GetMsSincePwrOn>:
102cfa28:	e92d4010 	push	{r4, lr}
102cfa2c:	e59f4064 	ldr	r4, [pc, #100]	; 102cfa98 <Ql_GetMsSincePwrOn+0x70>
102cfa30:	e594300c 	ldr	r3, [r4, #12]
102cfa34:	e3530000 	cmp	r3, #0
102cfa38:	1a00000e 	bne	102cfa78 <Ql_GetMsSincePwrOn+0x50>
102cfa3c:	e59f3058 	ldr	r3, [pc, #88]	; 102cfa9c <Ql_GetMsSincePwrOn+0x74>
102cfa40:	e59f0058 	ldr	r0, [pc, #88]	; 102cfaa0 <Ql_GetMsSincePwrOn+0x78>
102cfa44:	e5933000 	ldr	r3, [r3]
102cfa48:	e12fff33 	blx	r3
102cfa4c:	e3500000 	cmp	r0, #0
102cfa50:	1584000c 	strne	r0, [r4, #12]
102cfa54:	1a000007 	bne	102cfa78 <Ql_GetMsSincePwrOn+0x50>
102cfa58:	e59f3044 	ldr	r3, [pc, #68]	; 102cfaa4 <Ql_GetMsSincePwrOn+0x7c>
102cfa5c:	e59f0044 	ldr	r0, [pc, #68]	; 102cfaa8 <Ql_GetMsSincePwrOn+0x80>
102cfa60:	e5933000 	ldr	r3, [r3]
102cfa64:	e59f1034 	ldr	r1, [pc, #52]	; 102cfaa0 <Ql_GetMsSincePwrOn+0x78>
102cfa68:	e12fff33 	blx	r3
102cfa6c:	e3a02000 	mov	r2, #0
102cfa70:	e3a03000 	mov	r3, #0
102cfa74:	ea000004 	b	102cfa8c <Ql_GetMsSincePwrOn+0x64>
102cfa78:	e59f3018 	ldr	r3, [pc, #24]	; 102cfa98 <Ql_GetMsSincePwrOn+0x70>
102cfa7c:	e593300c 	ldr	r3, [r3, #12]
102cfa80:	e12fff33 	blx	r3
102cfa84:	e1a02000 	mov	r2, r0
102cfa88:	e1a03001 	mov	r3, r1
102cfa8c:	e1a00002 	mov	r0, r2
102cfa90:	e1a01003 	mov	r1, r3
102cfa94:	e8bd8010 	pop	{r4, pc}
102cfa98:	f03d3138 	.word	0xf03d3138
102cfa9c:	f03d2490 	.word	0xf03d2490
102cfaa0:	102d2405 	.word	0x102d2405
102cfaa4:	f03d5b04 	.word	0xf03d5b04
102cfaa8:	f03d2024 	.word	0xf03d2024

Disassembly of section .text.Ql_GetSDKVer:

102cfaac <Ql_GetSDKVer>:
102cfaac:	e3500000 	cmp	r0, #0
102cfab0:	13510000 	cmpne	r1, #0
102cfab4:	e92d4070 	push	{r4, r5, r6, lr}
102cfab8:	e1a06001 	mov	r6, r1
102cfabc:	e1a05000 	mov	r5, r0
102cfac0:	0a00000d 	beq	102cfafc <Ql_GetSDKVer+0x50>
102cfac4:	e59f3038 	ldr	r3, [pc, #56]	; 102cfb04 <Ql_GetSDKVer+0x58>
102cfac8:	e59f0038 	ldr	r0, [pc, #56]	; 102cfb08 <Ql_GetSDKVer+0x5c>
102cfacc:	e12fff33 	blx	r3
102cfad0:	e59f1030 	ldr	r1, [pc, #48]	; 102cfb08 <Ql_GetSDKVer+0x5c>
102cfad4:	e59f3030 	ldr	r3, [pc, #48]	; 102cfb0c <Ql_GetSDKVer+0x60>
102cfad8:	e1a00800 	lsl	r0, r0, #16
102cfadc:	e1a04820 	lsr	r4, r0, #16
102cfae0:	e1540006 	cmp	r4, r6
102cfae4:	21a04006 	movcs	r4, r6
102cfae8:	e1a00005 	mov	r0, r5
102cfaec:	e1a02004 	mov	r2, r4
102cfaf0:	e12fff33 	blx	r3
102cfaf4:	e1a00004 	mov	r0, r4
102cfaf8:	e8bd8070 	pop	{r4, r5, r6, pc}
102cfafc:	e3e00032 	mvn	r0, #50	; 0x32
102cfb00:	e8bd8070 	pop	{r4, r5, r6, pc}
102cfb04:	102cf648 	.word	0x102cf648
102cfb08:	102d0fc6 	.word	0x102d0fc6
102cfb0c:	102cf5c0 	.word	0x102cf5c0

Disassembly of section .text.Ql_OS_GetMessage:

102cfb10 <Ql_OS_GetMessage>:
102cfb10:	e92d4038 	push	{r3, r4, r5, lr}
102cfb14:	e59f4044 	ldr	r4, [pc, #68]	; 102cfb60 <Ql_OS_GetMessage+0x50>
102cfb18:	e1a05000 	mov	r5, r0
102cfb1c:	e5943000 	ldr	r3, [r4]
102cfb20:	e3530000 	cmp	r3, #0
102cfb24:	1a000006 	bne	102cfb44 <Ql_OS_GetMessage+0x34>
102cfb28:	e59f3034 	ldr	r3, [pc, #52]	; 102cfb64 <Ql_OS_GetMessage+0x54>
102cfb2c:	e59f0034 	ldr	r0, [pc, #52]	; 102cfb68 <Ql_OS_GetMessage+0x58>
102cfb30:	e5933000 	ldr	r3, [r3]
102cfb34:	e12fff33 	blx	r3
102cfb38:	e3500000 	cmp	r0, #0
102cfb3c:	0a000005 	beq	102cfb58 <Ql_OS_GetMessage+0x48>
102cfb40:	e5840000 	str	r0, [r4]
102cfb44:	e59f3014 	ldr	r3, [pc, #20]	; 102cfb60 <Ql_OS_GetMessage+0x50>
102cfb48:	e1a00005 	mov	r0, r5
102cfb4c:	e5933000 	ldr	r3, [r3]
102cfb50:	e12fff33 	blx	r3
102cfb54:	e8bd8038 	pop	{r3, r4, r5, pc}
102cfb58:	e59f000c 	ldr	r0, [pc, #12]	; 102cfb6c <Ql_OS_GetMessage+0x5c>
102cfb5c:	e8bd8038 	pop	{r3, r4, r5, pc}
102cfb60:	f03d314c 	.word	0xf03d314c
102cfb64:	f03d2490 	.word	0xf03d2490
102cfb68:	102d2426 	.word	0x102d2426
102cfb6c:	ffffd8f0 	.word	0xffffd8f0

Disassembly of section .text.Ql_OS_SendMessage:

102cfb70 <Ql_OS_SendMessage>:
102cfb70:	e92d41f0 	push	{r4, r5, r6, r7, r8, lr}
102cfb74:	e59f405c 	ldr	r4, [pc, #92]	; 102cfbd8 <Ql_OS_SendMessage+0x68>
102cfb78:	e1a06003 	mov	r6, r3
102cfb7c:	e5943004 	ldr	r3, [r4, #4]
102cfb80:	e1a05000 	mov	r5, r0
102cfb84:	e3530000 	cmp	r3, #0
102cfb88:	e1a08001 	mov	r8, r1
102cfb8c:	e1a07002 	mov	r7, r2
102cfb90:	1a000006 	bne	102cfbb0 <Ql_OS_SendMessage+0x40>
102cfb94:	e59f3040 	ldr	r3, [pc, #64]	; 102cfbdc <Ql_OS_SendMessage+0x6c>
102cfb98:	e59f0040 	ldr	r0, [pc, #64]	; 102cfbe0 <Ql_OS_SendMessage+0x70>
102cfb9c:	e5933000 	ldr	r3, [r3]
102cfba0:	e12fff33 	blx	r3
102cfba4:	e3500000 	cmp	r0, #0
102cfba8:	0a000008 	beq	102cfbd0 <Ql_OS_SendMessage+0x60>
102cfbac:	e5840004 	str	r0, [r4, #4]
102cfbb0:	e59f3020 	ldr	r3, [pc, #32]	; 102cfbd8 <Ql_OS_SendMessage+0x68>
102cfbb4:	e1a00005 	mov	r0, r5
102cfbb8:	e593c004 	ldr	ip, [r3, #4]
102cfbbc:	e1a01008 	mov	r1, r8
102cfbc0:	e1a02007 	mov	r2, r7
102cfbc4:	e1a03006 	mov	r3, r6
102cfbc8:	e12fff3c 	blx	ip
102cfbcc:	e8bd81f0 	pop	{r4, r5, r6, r7, r8, pc}
102cfbd0:	e59f000c 	ldr	r0, [pc, #12]	; 102cfbe4 <Ql_OS_SendMessage+0x74>
102cfbd4:	e8bd81f0 	pop	{r4, r5, r6, r7, r8, pc}
102cfbd8:	f03d314c 	.word	0xf03d314c
102cfbdc:	f03d2490 	.word	0xf03d2490
102cfbe0:	102d2437 	.word	0x102d2437
102cfbe4:	ffffd8f0 	.word	0xffffd8f0

Disassembly of section .text.Ql_OS_CreateMutex:

102cfbe8 <Ql_OS_CreateMutex>:
102cfbe8:	e92d4038 	push	{r3, r4, r5, lr}
102cfbec:	e59f403c 	ldr	r4, [pc, #60]	; 102cfc30 <Ql_OS_CreateMutex+0x48>
102cfbf0:	e1a05000 	mov	r5, r0
102cfbf4:	e5943008 	ldr	r3, [r4, #8]
102cfbf8:	e3530000 	cmp	r3, #0
102cfbfc:	1a000006 	bne	102cfc1c <Ql_OS_CreateMutex+0x34>
102cfc00:	e59f302c 	ldr	r3, [pc, #44]	; 102cfc34 <Ql_OS_CreateMutex+0x4c>
102cfc04:	e59f002c 	ldr	r0, [pc, #44]	; 102cfc38 <Ql_OS_CreateMutex+0x50>
102cfc08:	e5933000 	ldr	r3, [r3]
102cfc0c:	e12fff33 	blx	r3
102cfc10:	e3500000 	cmp	r0, #0
102cfc14:	08bd8038 	popeq	{r3, r4, r5, pc}
102cfc18:	e5840008 	str	r0, [r4, #8]
102cfc1c:	e59f300c 	ldr	r3, [pc, #12]	; 102cfc30 <Ql_OS_CreateMutex+0x48>
102cfc20:	e1a00005 	mov	r0, r5
102cfc24:	e5933008 	ldr	r3, [r3, #8]
102cfc28:	e12fff33 	blx	r3
102cfc2c:	e8bd8038 	pop	{r3, r4, r5, pc}
102cfc30:	f03d314c 	.word	0xf03d314c
102cfc34:	f03d2490 	.word	0xf03d2490
102cfc38:	102d2449 	.word	0x102d2449

Disassembly of section .text.Ql_OS_TakeMutex:

102cfc3c <Ql_OS_TakeMutex>:
102cfc3c:	e92d4038 	push	{r3, r4, r5, lr}
102cfc40:	e59f403c 	ldr	r4, [pc, #60]	; 102cfc84 <Ql_OS_TakeMutex+0x48>
102cfc44:	e1a05000 	mov	r5, r0
102cfc48:	e594300c 	ldr	r3, [r4, #12]
102cfc4c:	e3530000 	cmp	r3, #0
102cfc50:	1a000006 	bne	102cfc70 <Ql_OS_TakeMutex+0x34>
102cfc54:	e59f302c 	ldr	r3, [pc, #44]	; 102cfc88 <Ql_OS_TakeMutex+0x4c>
102cfc58:	e59f002c 	ldr	r0, [pc, #44]	; 102cfc8c <Ql_OS_TakeMutex+0x50>
102cfc5c:	e5933000 	ldr	r3, [r3]
102cfc60:	e12fff33 	blx	r3
102cfc64:	e3500000 	cmp	r0, #0
102cfc68:	08bd8038 	popeq	{r3, r4, r5, pc}
102cfc6c:	e584000c 	str	r0, [r4, #12]
102cfc70:	e59f300c 	ldr	r3, [pc, #12]	; 102cfc84 <Ql_OS_TakeMutex+0x48>
102cfc74:	e1a00005 	mov	r0, r5
102cfc78:	e593300c 	ldr	r3, [r3, #12]
102cfc7c:	e12fff33 	blx	r3
102cfc80:	e8bd8038 	pop	{r3, r4, r5, pc}
102cfc84:	f03d314c 	.word	0xf03d314c
102cfc88:	f03d2490 	.word	0xf03d2490
102cfc8c:	102d245b 	.word	0x102d245b

Disassembly of section .text.Ql_OS_GiveMutex:

102cfc90 <Ql_OS_GiveMutex>:
102cfc90:	e92d4038 	push	{r3, r4, r5, lr}
102cfc94:	e59f403c 	ldr	r4, [pc, #60]	; 102cfcd8 <Ql_OS_GiveMutex+0x48>
102cfc98:	e1a05000 	mov	r5, r0
102cfc9c:	e5943010 	ldr	r3, [r4, #16]
102cfca0:	e3530000 	cmp	r3, #0
102cfca4:	1a000006 	bne	102cfcc4 <Ql_OS_GiveMutex+0x34>
102cfca8:	e59f302c 	ldr	r3, [pc, #44]	; 102cfcdc <Ql_OS_GiveMutex+0x4c>
102cfcac:	e59f002c 	ldr	r0, [pc, #44]	; 102cfce0 <Ql_OS_GiveMutex+0x50>
102cfcb0:	e5933000 	ldr	r3, [r3]
102cfcb4:	e12fff33 	blx	r3
102cfcb8:	e3500000 	cmp	r0, #0
102cfcbc:	08bd8038 	popeq	{r3, r4, r5, pc}
102cfcc0:	e5840010 	str	r0, [r4, #16]
102cfcc4:	e59f300c 	ldr	r3, [pc, #12]	; 102cfcd8 <Ql_OS_GiveMutex+0x48>
102cfcc8:	e1a00005 	mov	r0, r5
102cfccc:	e5933010 	ldr	r3, [r3, #16]
102cfcd0:	e12fff33 	blx	r3
102cfcd4:	e8bd8038 	pop	{r3, r4, r5, pc}
102cfcd8:	f03d314c 	.word	0xf03d314c
102cfcdc:	f03d2490 	.word	0xf03d2490
102cfce0:	102d246b 	.word	0x102d246b

Disassembly of section .text.Ql_OS_CreateEvent:

102cfce4 <Ql_OS_CreateEvent>:
102cfce4:	e92d4038 	push	{r3, r4, r5, lr}
102cfce8:	e59f403c 	ldr	r4, [pc, #60]	; 102cfd2c <Ql_OS_CreateEvent+0x48>
102cfcec:	e1a05000 	mov	r5, r0
102cfcf0:	e5943020 	ldr	r3, [r4, #32]
102cfcf4:	e3530000 	cmp	r3, #0
102cfcf8:	1a000006 	bne	102cfd18 <Ql_OS_CreateEvent+0x34>
102cfcfc:	e59f302c 	ldr	r3, [pc, #44]	; 102cfd30 <Ql_OS_CreateEvent+0x4c>
102cfd00:	e59f002c 	ldr	r0, [pc, #44]	; 102cfd34 <Ql_OS_CreateEvent+0x50>
102cfd04:	e5933000 	ldr	r3, [r3]
102cfd08:	e12fff33 	blx	r3
102cfd0c:	e3500000 	cmp	r0, #0
102cfd10:	08bd8038 	popeq	{r3, r4, r5, pc}
102cfd14:	e5840020 	str	r0, [r4, #32]
102cfd18:	e59f300c 	ldr	r3, [pc, #12]	; 102cfd2c <Ql_OS_CreateEvent+0x48>
102cfd1c:	e1a00005 	mov	r0, r5
102cfd20:	e5933020 	ldr	r3, [r3, #32]
102cfd24:	e12fff33 	blx	r3
102cfd28:	e8bd8038 	pop	{r3, r4, r5, pc}
102cfd2c:	f03d314c 	.word	0xf03d314c
102cfd30:	f03d2490 	.word	0xf03d2490
102cfd34:	102d24b9 	.word	0x102d24b9

Disassembly of section .text.Ql_OS_WaitEvent:

102cfd38 <Ql_OS_WaitEvent>:
102cfd38:	e92d4070 	push	{r4, r5, r6, lr}
102cfd3c:	e59f404c 	ldr	r4, [pc, #76]	; 102cfd90 <Ql_OS_WaitEvent+0x58>
102cfd40:	e1a05000 	mov	r5, r0
102cfd44:	e5943024 	ldr	r3, [r4, #36]	; 0x24
102cfd48:	e1a06001 	mov	r6, r1
102cfd4c:	e3530000 	cmp	r3, #0
102cfd50:	1a000006 	bne	102cfd70 <Ql_OS_WaitEvent+0x38>
102cfd54:	e59f3038 	ldr	r3, [pc, #56]	; 102cfd94 <Ql_OS_WaitEvent+0x5c>
102cfd58:	e59f0038 	ldr	r0, [pc, #56]	; 102cfd98 <Ql_OS_WaitEvent+0x60>
102cfd5c:	e5933000 	ldr	r3, [r3]
102cfd60:	e12fff33 	blx	r3
102cfd64:	e3500000 	cmp	r0, #0
102cfd68:	0a000006 	beq	102cfd88 <Ql_OS_WaitEvent+0x50>
102cfd6c:	e5840024 	str	r0, [r4, #36]	; 0x24
102cfd70:	e59f3018 	ldr	r3, [pc, #24]	; 102cfd90 <Ql_OS_WaitEvent+0x58>
102cfd74:	e1a00005 	mov	r0, r5
102cfd78:	e5933024 	ldr	r3, [r3, #36]	; 0x24
102cfd7c:	e1a01006 	mov	r1, r6
102cfd80:	e12fff33 	blx	r3
102cfd84:	e8bd8070 	pop	{r4, r5, r6, pc}
102cfd88:	e59f000c 	ldr	r0, [pc, #12]	; 102cfd9c <Ql_OS_WaitEvent+0x64>
102cfd8c:	e8bd8070 	pop	{r4, r5, r6, pc}
102cfd90:	f03d314c 	.word	0xf03d314c
102cfd94:	f03d2490 	.word	0xf03d2490
102cfd98:	102d24cb 	.word	0x102d24cb
102cfd9c:	ffffd8f0 	.word	0xffffd8f0

Disassembly of section .text.Ql_OS_SetEvent:

102cfda0 <Ql_OS_SetEvent>:
102cfda0:	e92d4070 	push	{r4, r5, r6, lr}
102cfda4:	e59f404c 	ldr	r4, [pc, #76]	; 102cfdf8 <Ql_OS_SetEvent+0x58>
102cfda8:	e1a05000 	mov	r5, r0
102cfdac:	e5943028 	ldr	r3, [r4, #40]	; 0x28
102cfdb0:	e1a06001 	mov	r6, r1
102cfdb4:	e3530000 	cmp	r3, #0
102cfdb8:	1a000006 	bne	102cfdd8 <Ql_OS_SetEvent+0x38>
102cfdbc:	e59f3038 	ldr	r3, [pc, #56]	; 102cfdfc <Ql_OS_SetEvent+0x5c>
102cfdc0:	e59f0038 	ldr	r0, [pc, #56]	; 102cfe00 <Ql_OS_SetEvent+0x60>
102cfdc4:	e5933000 	ldr	r3, [r3]
102cfdc8:	e12fff33 	blx	r3
102cfdcc:	e3500000 	cmp	r0, #0
102cfdd0:	0a000006 	beq	102cfdf0 <Ql_OS_SetEvent+0x50>
102cfdd4:	e5840028 	str	r0, [r4, #40]	; 0x28
102cfdd8:	e59f3018 	ldr	r3, [pc, #24]	; 102cfdf8 <Ql_OS_SetEvent+0x58>
102cfddc:	e1a00005 	mov	r0, r5
102cfde0:	e5933028 	ldr	r3, [r3, #40]	; 0x28
102cfde4:	e1a01006 	mov	r1, r6
102cfde8:	e12fff33 	blx	r3
102cfdec:	e8bd8070 	pop	{r4, r5, r6, pc}
102cfdf0:	e59f000c 	ldr	r0, [pc, #12]	; 102cfe04 <Ql_OS_SetEvent+0x64>
102cfdf4:	e8bd8070 	pop	{r4, r5, r6, pc}
102cfdf8:	f03d314c 	.word	0xf03d314c
102cfdfc:	f03d2490 	.word	0xf03d2490
102cfe00:	102d24db 	.word	0x102d24db
102cfe04:	ffffd8f0 	.word	0xffffd8f0

Disassembly of section .text.Ql_Timer_Register:

102cfe08 <Ql_Timer_Register>:
102cfe08:	e92d40f8 	push	{r3, r4, r5, r6, r7, lr}
102cfe0c:	e59f4054 	ldr	r4, [pc, #84]	; 102cfe68 <Ql_Timer_Register+0x60>
102cfe10:	e1a05000 	mov	r5, r0
102cfe14:	e5943000 	ldr	r3, [r4]
102cfe18:	e1a07001 	mov	r7, r1
102cfe1c:	e3530000 	cmp	r3, #0
102cfe20:	e1a06002 	mov	r6, r2
102cfe24:	1a000006 	bne	102cfe44 <Ql_Timer_Register+0x3c>
102cfe28:	e59f303c 	ldr	r3, [pc, #60]	; 102cfe6c <Ql_Timer_Register+0x64>
102cfe2c:	e59f003c 	ldr	r0, [pc, #60]	; 102cfe70 <Ql_Timer_Register+0x68>
102cfe30:	e5933000 	ldr	r3, [r3]
102cfe34:	e12fff33 	blx	r3
102cfe38:	e3500000 	cmp	r0, #0
102cfe3c:	0a000007 	beq	102cfe60 <Ql_Timer_Register+0x58>
102cfe40:	e5840000 	str	r0, [r4]
102cfe44:	e59f301c 	ldr	r3, [pc, #28]	; 102cfe68 <Ql_Timer_Register+0x60>
102cfe48:	e1a00005 	mov	r0, r5
102cfe4c:	e5933000 	ldr	r3, [r3]
102cfe50:	e1a01007 	mov	r1, r7
102cfe54:	e1a02006 	mov	r2, r6
102cfe58:	e12fff33 	blx	r3
102cfe5c:	e8bd80f8 	pop	{r3, r4, r5, r6, r7, pc}
102cfe60:	e59f000c 	ldr	r0, [pc, #12]	; 102cfe74 <Ql_Timer_Register+0x6c>
102cfe64:	e8bd80f8 	pop	{r3, r4, r5, r6, r7, pc}
102cfe68:	f03d318c 	.word	0xf03d318c
102cfe6c:	f03d2490 	.word	0xf03d2490
102cfe70:	102d2566 	.word	0x102d2566
102cfe74:	ffffd8f0 	.word	0xffffd8f0

Disassembly of section .text.Ql_Timer_Start:

102cfe78 <Ql_Timer_Start>:
102cfe78:	e92d40f8 	push	{r3, r4, r5, r6, r7, lr}
102cfe7c:	e59f4054 	ldr	r4, [pc, #84]	; 102cfed8 <Ql_Timer_Start+0x60>
102cfe80:	e1a05000 	mov	r5, r0
102cfe84:	e5943008 	ldr	r3, [r4, #8]
102cfe88:	e1a07001 	mov	r7, r1
102cfe8c:	e3530000 	cmp	r3, #0
102cfe90:	e1a06002 	mov	r6, r2
102cfe94:	1a000006 	bne	102cfeb4 <Ql_Timer_Start+0x3c>
102cfe98:	e59f303c 	ldr	r3, [pc, #60]	; 102cfedc <Ql_Timer_Start+0x64>
102cfe9c:	e59f003c 	ldr	r0, [pc, #60]	; 102cfee0 <Ql_Timer_Start+0x68>
102cfea0:	e5933000 	ldr	r3, [r3]
102cfea4:	e12fff33 	blx	r3
102cfea8:	e3500000 	cmp	r0, #0
102cfeac:	0a000007 	beq	102cfed0 <Ql_Timer_Start+0x58>
102cfeb0:	e5840008 	str	r0, [r4, #8]
102cfeb4:	e59f301c 	ldr	r3, [pc, #28]	; 102cfed8 <Ql_Timer_Start+0x60>
102cfeb8:	e1a00005 	mov	r0, r5
102cfebc:	e5933008 	ldr	r3, [r3, #8]
102cfec0:	e1a01007 	mov	r1, r7
102cfec4:	e1a02006 	mov	r2, r6
102cfec8:	e12fff33 	blx	r3
102cfecc:	e8bd80f8 	pop	{r3, r4, r5, r6, r7, pc}
102cfed0:	e59f000c 	ldr	r0, [pc, #12]	; 102cfee4 <Ql_Timer_Start+0x6c>
102cfed4:	e8bd80f8 	pop	{r3, r4, r5, r6, r7, pc}
102cfed8:	f03d318c 	.word	0xf03d318c
102cfedc:	f03d2490 	.word	0xf03d2490
102cfee0:	102d258e 	.word	0x102d258e
102cfee4:	ffffd8f0 	.word	0xffffd8f0

Disassembly of section .text.Ql_Timer_Stop:

102cfee8 <Ql_Timer_Stop>:
102cfee8:	e92d4038 	push	{r3, r4, r5, lr}
102cfeec:	e59f4044 	ldr	r4, [pc, #68]	; 102cff38 <Ql_Timer_Stop+0x50>
102cfef0:	e1a05000 	mov	r5, r0
102cfef4:	e594300c 	ldr	r3, [r4, #12]
102cfef8:	e3530000 	cmp	r3, #0
102cfefc:	1a000006 	bne	102cff1c <Ql_Timer_Stop+0x34>
102cff00:	e59f3034 	ldr	r3, [pc, #52]	; 102cff3c <Ql_Timer_Stop+0x54>
102cff04:	e59f0034 	ldr	r0, [pc, #52]	; 102cff40 <Ql_Timer_Stop+0x58>
102cff08:	e5933000 	ldr	r3, [r3]
102cff0c:	e12fff33 	blx	r3
102cff10:	e3500000 	cmp	r0, #0
102cff14:	0a000005 	beq	102cff30 <Ql_Timer_Stop+0x48>
102cff18:	e584000c 	str	r0, [r4, #12]
102cff1c:	e59f3014 	ldr	r3, [pc, #20]	; 102cff38 <Ql_Timer_Stop+0x50>
102cff20:	e1a00005 	mov	r0, r5
102cff24:	e593300c 	ldr	r3, [r3, #12]
102cff28:	e12fff33 	blx	r3
102cff2c:	e8bd8038 	pop	{r3, r4, r5, pc}
102cff30:	e59f000c 	ldr	r0, [pc, #12]	; 102cff44 <Ql_Timer_Stop+0x5c>
102cff34:	e8bd8038 	pop	{r3, r4, r5, pc}
102cff38:	f03d318c 	.word	0xf03d318c
102cff3c:	f03d2490 	.word	0xf03d2490
102cff40:	102d259d 	.word	0x102d259d
102cff44:	ffffd8f0 	.word	0xffffd8f0

Disassembly of section .text.Ql_UART_Register:

102cff48 <Ql_UART_Register>:
102cff48:	e92d40f8 	push	{r3, r4, r5, r6, r7, lr}
102cff4c:	e59f4054 	ldr	r4, [pc, #84]	; 102cffa8 <Ql_UART_Register+0x60>
102cff50:	e1a05000 	mov	r5, r0
102cff54:	e5943000 	ldr	r3, [r4]
102cff58:	e1a07001 	mov	r7, r1
102cff5c:	e3530000 	cmp	r3, #0
102cff60:	e1a06002 	mov	r6, r2
102cff64:	1a000006 	bne	102cff84 <Ql_UART_Register+0x3c>
102cff68:	e59f303c 	ldr	r3, [pc, #60]	; 102cffac <Ql_UART_Register+0x64>
102cff6c:	e59f003c 	ldr	r0, [pc, #60]	; 102cffb0 <Ql_UART_Register+0x68>
102cff70:	e5933000 	ldr	r3, [r3]
102cff74:	e12fff33 	blx	r3
102cff78:	e3500000 	cmp	r0, #0
102cff7c:	0a000007 	beq	102cffa0 <Ql_UART_Register+0x58>
102cff80:	e5840000 	str	r0, [r4]
102cff84:	e59f301c 	ldr	r3, [pc, #28]	; 102cffa8 <Ql_UART_Register+0x60>
102cff88:	e1a00005 	mov	r0, r5
102cff8c:	e5933000 	ldr	r3, [r3]
102cff90:	e1a01007 	mov	r1, r7
102cff94:	e1a02006 	mov	r2, r6
102cff98:	e12fff33 	blx	r3
102cff9c:	e8bd80f8 	pop	{r3, r4, r5, r6, r7, pc}
102cffa0:	e59f000c 	ldr	r0, [pc, #12]	; 102cffb4 <Ql_UART_Register+0x6c>
102cffa4:	e8bd80f8 	pop	{r3, r4, r5, r6, r7, pc}
102cffa8:	f03d319c 	.word	0xf03d319c
102cffac:	f03d2490 	.word	0xf03d2490
102cffb0:	102d25ab 	.word	0x102d25ab
102cffb4:	ffffd8f0 	.word	0xffffd8f0

Disassembly of section .text.Ql_UART_Open:

102cffb8 <Ql_UART_Open>:
102cffb8:	e92d40f8 	push	{r3, r4, r5, r6, r7, lr}
102cffbc:	e59f4054 	ldr	r4, [pc, #84]	; 102d0018 <Ql_UART_Open+0x60>
102cffc0:	e1a05000 	mov	r5, r0
102cffc4:	e5943004 	ldr	r3, [r4, #4]
102cffc8:	e1a07001 	mov	r7, r1
102cffcc:	e3530000 	cmp	r3, #0
102cffd0:	e1a06002 	mov	r6, r2
102cffd4:	1a000006 	bne	102cfff4 <Ql_UART_Open+0x3c>
102cffd8:	e59f303c 	ldr	r3, [pc, #60]	; 102d001c <Ql_UART_Open+0x64>
102cffdc:	e59f003c 	ldr	r0, [pc, #60]	; 102d0020 <Ql_UART_Open+0x68>
102cffe0:	e5933000 	ldr	r3, [r3]
102cffe4:	e12fff33 	blx	r3
102cffe8:	e3500000 	cmp	r0, #0
102cffec:	0a000007 	beq	102d0010 <Ql_UART_Open+0x58>
102cfff0:	e5840004 	str	r0, [r4, #4]
102cfff4:	e59f301c 	ldr	r3, [pc, #28]	; 102d0018 <Ql_UART_Open+0x60>
102cfff8:	e1a00005 	mov	r0, r5
102cfffc:	e5933004 	ldr	r3, [r3, #4]
102d0000:	e1a01007 	mov	r1, r7
102d0004:	e1a02006 	mov	r2, r6
102d0008:	e12fff33 	blx	r3
102d000c:	e8bd80f8 	pop	{r3, r4, r5, r6, r7, pc}
102d0010:	e59f000c 	ldr	r0, [pc, #12]	; 102d0024 <Ql_UART_Open+0x6c>
102d0014:	e8bd80f8 	pop	{r3, r4, r5, r6, r7, pc}
102d0018:	f03d319c 	.word	0xf03d319c
102d001c:	f03d2490 	.word	0xf03d2490
102d0020:	102d25bc 	.word	0x102d25bc
102d0024:	ffffd8f0 	.word	0xffffd8f0

Disassembly of section .text.Ql_UART_Write:

102d0028 <Ql_UART_Write>:
102d0028:	e92d40f8 	push	{r3, r4, r5, r6, r7, lr}
102d002c:	e59f4054 	ldr	r4, [pc, #84]	; 102d0088 <Ql_UART_Write+0x60>
102d0030:	e1a05000 	mov	r5, r0
102d0034:	e594300c 	ldr	r3, [r4, #12]
102d0038:	e1a07001 	mov	r7, r1
102d003c:	e3530000 	cmp	r3, #0
102d0040:	e1a06002 	mov	r6, r2
102d0044:	1a000006 	bne	102d0064 <Ql_UART_Write+0x3c>
102d0048:	e59f303c 	ldr	r3, [pc, #60]	; 102d008c <Ql_UART_Write+0x64>
102d004c:	e59f003c 	ldr	r0, [pc, #60]	; 102d0090 <Ql_UART_Write+0x68>
102d0050:	e5933000 	ldr	r3, [r3]
102d0054:	e12fff33 	blx	r3
102d0058:	e3500000 	cmp	r0, #0
102d005c:	0a000007 	beq	102d0080 <Ql_UART_Write+0x58>
102d0060:	e584000c 	str	r0, [r4, #12]
102d0064:	e59f301c 	ldr	r3, [pc, #28]	; 102d0088 <Ql_UART_Write+0x60>
102d0068:	e1a00005 	mov	r0, r5
102d006c:	e593300c 	ldr	r3, [r3, #12]
102d0070:	e1a01007 	mov	r1, r7
102d0074:	e1a02006 	mov	r2, r6
102d0078:	e12fff33 	blx	r3
102d007c:	e8bd80f8 	pop	{r3, r4, r5, r6, r7, pc}
102d0080:	e59f000c 	ldr	r0, [pc, #12]	; 102d0094 <Ql_UART_Write+0x6c>
102d0084:	e8bd80f8 	pop	{r3, r4, r5, r6, r7, pc}
102d0088:	f03d319c 	.word	0xf03d319c
102d008c:	f03d2490 	.word	0xf03d2490
102d0090:	102d25d8 	.word	0x102d25d8
102d0094:	ffffd8f0 	.word	0xffffd8f0

Disassembly of section .text.Ql_UART_Read:

102d0098 <Ql_UART_Read>:
102d0098:	e92d40f8 	push	{r3, r4, r5, r6, r7, lr}
102d009c:	e59f4054 	ldr	r4, [pc, #84]	; 102d00f8 <Ql_UART_Read+0x60>
102d00a0:	e1a05000 	mov	r5, r0
102d00a4:	e5943010 	ldr	r3, [r4, #16]
102d00a8:	e1a07001 	mov	r7, r1
102d00ac:	e3530000 	cmp	r3, #0
102d00b0:	e1a06002 	mov	r6, r2
102d00b4:	1a000006 	bne	102d00d4 <Ql_UART_Read+0x3c>
102d00b8:	e59f303c 	ldr	r3, [pc, #60]	; 102d00fc <Ql_UART_Read+0x64>
102d00bc:	e59f003c 	ldr	r0, [pc, #60]	; 102d0100 <Ql_UART_Read+0x68>
102d00c0:	e5933000 	ldr	r3, [r3]
102d00c4:	e12fff33 	blx	r3
102d00c8:	e3500000 	cmp	r0, #0
102d00cc:	0a000007 	beq	102d00f0 <Ql_UART_Read+0x58>
102d00d0:	e5840010 	str	r0, [r4, #16]
102d00d4:	e59f301c 	ldr	r3, [pc, #28]	; 102d00f8 <Ql_UART_Read+0x60>
102d00d8:	e1a00005 	mov	r0, r5
102d00dc:	e5933010 	ldr	r3, [r3, #16]
102d00e0:	e1a01007 	mov	r1, r7
102d00e4:	e1a02006 	mov	r2, r6
102d00e8:	e12fff33 	blx	r3
102d00ec:	e8bd80f8 	pop	{r3, r4, r5, r6, r7, pc}
102d00f0:	e59f000c 	ldr	r0, [pc, #12]	; 102d0104 <Ql_UART_Read+0x6c>
102d00f4:	e8bd80f8 	pop	{r3, r4, r5, r6, r7, pc}
102d00f8:	f03d319c 	.word	0xf03d319c
102d00fc:	f03d2490 	.word	0xf03d2490
102d0100:	102d25e6 	.word	0x102d25e6
102d0104:	ffffd8f0 	.word	0xffffd8f0

Disassembly of section .text.Ql_UART_GetPinStatus:

102d0108 <Ql_UART_GetPinStatus>:
102d0108:	e92d4070 	push	{r4, r5, r6, lr}
102d010c:	e59f404c 	ldr	r4, [pc, #76]	; 102d0160 <Ql_UART_GetPinStatus+0x58>
102d0110:	e1a05000 	mov	r5, r0
102d0114:	e594302c 	ldr	r3, [r4, #44]	; 0x2c
102d0118:	e1a06001 	mov	r6, r1
102d011c:	e3530000 	cmp	r3, #0
102d0120:	1a000006 	bne	102d0140 <Ql_UART_GetPinStatus+0x38>
102d0124:	e59f3038 	ldr	r3, [pc, #56]	; 102d0164 <Ql_UART_GetPinStatus+0x5c>
102d0128:	e59f0038 	ldr	r0, [pc, #56]	; 102d0168 <Ql_UART_GetPinStatus+0x60>
102d012c:	e5933000 	ldr	r3, [r3]
102d0130:	e12fff33 	blx	r3
102d0134:	e3500000 	cmp	r0, #0
102d0138:	0a000006 	beq	102d0158 <Ql_UART_GetPinStatus+0x50>
102d013c:	e584002c 	str	r0, [r4, #44]	; 0x2c
102d0140:	e59f3018 	ldr	r3, [pc, #24]	; 102d0160 <Ql_UART_GetPinStatus+0x58>
102d0144:	e1a00005 	mov	r0, r5
102d0148:	e593302c 	ldr	r3, [r3, #44]	; 0x2c
102d014c:	e1a01006 	mov	r1, r6
102d0150:	e12fff33 	blx	r3
102d0154:	e8bd8070 	pop	{r4, r5, r6, pc}
102d0158:	e59f000c 	ldr	r0, [pc, #12]	; 102d016c <Ql_UART_GetPinStatus+0x64>
102d015c:	e8bd8070 	pop	{r4, r5, r6, pc}
102d0160:	f03d319c 	.word	0xf03d319c
102d0164:	f03d2490 	.word	0xf03d2490
102d0168:	102d2669 	.word	0x102d2669
102d016c:	ffffd8f0 	.word	0xffffd8f0

Disassembly of section .text.Ql_UART_SendEscap:

102d0170 <Ql_UART_SendEscap>:
102d0170:	e92d4038 	push	{r3, r4, r5, lr}
102d0174:	e59f4044 	ldr	r4, [pc, #68]	; 102d01c0 <Ql_UART_SendEscap+0x50>
102d0178:	e1a05000 	mov	r5, r0
102d017c:	e5943034 	ldr	r3, [r4, #52]	; 0x34
102d0180:	e3530000 	cmp	r3, #0
102d0184:	1a000006 	bne	102d01a4 <Ql_UART_SendEscap+0x34>
102d0188:	e59f3034 	ldr	r3, [pc, #52]	; 102d01c4 <Ql_UART_SendEscap+0x54>
102d018c:	e59f0034 	ldr	r0, [pc, #52]	; 102d01c8 <Ql_UART_SendEscap+0x58>
102d0190:	e5933000 	ldr	r3, [r3]
102d0194:	e12fff33 	blx	r3
102d0198:	e3500000 	cmp	r0, #0
102d019c:	0a000005 	beq	102d01b8 <Ql_UART_SendEscap+0x48>
102d01a0:	e5840034 	str	r0, [r4, #52]	; 0x34
102d01a4:	e59f3014 	ldr	r3, [pc, #20]	; 102d01c0 <Ql_UART_SendEscap+0x50>
102d01a8:	e1a00005 	mov	r0, r5
102d01ac:	e5933034 	ldr	r3, [r3, #52]	; 0x34
102d01b0:	e12fff33 	blx	r3
102d01b4:	e8bd8038 	pop	{r3, r4, r5, pc}
102d01b8:	e59f000c 	ldr	r0, [pc, #12]	; 102d01cc <Ql_UART_SendEscap+0x5c>
102d01bc:	e8bd8038 	pop	{r3, r4, r5, pc}
102d01c0:	f03d319c 	.word	0xf03d319c
102d01c4:	f03d2490 	.word	0xf03d2490
102d01c8:	102d2693 	.word	0x102d2693
102d01cc:	ffffd8f0 	.word	0xffffd8f0
